
motor_driver_eval_graph.elf:     file format elf32-littlearm

Sections:
Idx Name          Size      VMA       LMA       File off  Algn
  0 .isr_vector   000000c0  08000000  08000000  00001000  2**0
                  CONTENTS, ALLOC, LOAD, READONLY, DATA
  1 .text         00006530  080000c0  080000c0  000010c0  2**2
                  CONTENTS, ALLOC, LOAD, READONLY, CODE
  2 .rodata       00000c40  080065f0  080065f0  000075f0  2**2
                  CONTENTS, ALLOC, LOAD, READONLY, DATA
  3 .ARM.extab    00000000  08007230  08007230  000093d4  2**0
                  CONTENTS
  4 .ARM          00000000  08007230  08007230  000093d4  2**0
                  CONTENTS
  5 .preinit_array 00000000  08007230  08007230  000093d4  2**0
                  CONTENTS, ALLOC, LOAD, DATA
  6 .init_array   00000004  08007230  08007230  00008230  2**2
                  CONTENTS, ALLOC, LOAD, DATA
  7 .fini_array   00000004  08007234  08007234  00008234  2**2
                  CONTENTS, ALLOC, LOAD, DATA
  8 .data         000003d4  20000000  08007238  00009000  2**2
                  CONTENTS, ALLOC, LOAD, DATA
  9 .bss          00000628  200003d4  0800760c  000093d4  2**2
                  ALLOC
 10 ._user_heap_stack 00000484  200009fc  0800760c  000099fc  2**0
                  ALLOC
 11 .ARM.attributes 00000028  00000000  00000000  000093d4  2**0
                  CONTENTS, READONLY
 12 .comment      00000043  00000000  00000000  000093fc  2**0
                  CONTENTS, READONLY
 13 .debug_frame  00000144  00000000  00000000  00009440  2**2
                  CONTENTS, READONLY, DEBUGGING, OCTETS

Disassembly of section .text:

080000c0 <__do_global_dtors_aux>:
 80000c0:	b510      	push	{r4, lr}
 80000c2:	4c06      	ldr	r4, [pc, #24]	@ (80000dc <__do_global_dtors_aux+0x1c>)
 80000c4:	7823      	ldrb	r3, [r4, #0]
 80000c6:	2b00      	cmp	r3, #0
 80000c8:	d107      	bne.n	80000da <__do_global_dtors_aux+0x1a>
 80000ca:	4b05      	ldr	r3, [pc, #20]	@ (80000e0 <__do_global_dtors_aux+0x20>)
 80000cc:	2b00      	cmp	r3, #0
 80000ce:	d002      	beq.n	80000d6 <__do_global_dtors_aux+0x16>
 80000d0:	4804      	ldr	r0, [pc, #16]	@ (80000e4 <__do_global_dtors_aux+0x24>)
 80000d2:	e000      	b.n	80000d6 <__do_global_dtors_aux+0x16>
 80000d4:	bf00      	nop
 80000d6:	2301      	movs	r3, #1
 80000d8:	7023      	strb	r3, [r4, #0]
 80000da:	bd10      	pop	{r4, pc}
 80000dc:	200003d4 	.word	0x200003d4
 80000e0:	00000000 	.word	0x00000000
 80000e4:	080065d8 	.word	0x080065d8

080000e8 <frame_dummy>:
 80000e8:	4b04      	ldr	r3, [pc, #16]	@ (80000fc <frame_dummy+0x14>)
 80000ea:	b510      	push	{r4, lr}
 80000ec:	2b00      	cmp	r3, #0
 80000ee:	d003      	beq.n	80000f8 <frame_dummy+0x10>
 80000f0:	4903      	ldr	r1, [pc, #12]	@ (8000100 <frame_dummy+0x18>)
 80000f2:	4804      	ldr	r0, [pc, #16]	@ (8000104 <frame_dummy+0x1c>)
 80000f4:	e000      	b.n	80000f8 <frame_dummy+0x10>
 80000f6:	bf00      	nop
 80000f8:	bd10      	pop	{r4, pc}
 80000fa:	46c0      	nop			@ (mov r8, r8)
 80000fc:	00000000 	.word	0x00000000
 8000100:	200003d8 	.word	0x200003d8
 8000104:	080065d8 	.word	0x080065d8

08000108 <__gnu_thumb1_case_uqi>:
 8000108:	b402      	push	{r1}
 800010a:	4671      	mov	r1, lr
 800010c:	0849      	lsrs	r1, r1, #1
 800010e:	0049      	lsls	r1, r1, #1
 8000110:	5c09      	ldrb	r1, [r1, r0]
 8000112:	0049      	lsls	r1, r1, #1
 8000114:	448e      	add	lr, r1
 8000116:	bc02      	pop	{r1}
 8000118:	4770      	bx	lr
 800011a:	46c0      	nop			@ (mov r8, r8)

0800011c <__gnu_thumb1_case_uhi>:
 800011c:	b403      	push	{r0, r1}
 800011e:	4671      	mov	r1, lr
 8000120:	0849      	lsrs	r1, r1, #1
 8000122:	0040      	lsls	r0, r0, #1
 8000124:	0049      	lsls	r1, r1, #1
 8000126:	5a09      	ldrh	r1, [r1, r0]
 8000128:	0049      	lsls	r1, r1, #1
 800012a:	448e      	add	lr, r1
 800012c:	bc03      	pop	{r0, r1}
 800012e:	4770      	bx	lr

08000130 <__udivsi3>:
 8000130:	2200      	movs	r2, #0
 8000132:	0843      	lsrs	r3, r0, #1
 8000134:	428b      	cmp	r3, r1
 8000136:	d374      	bcc.n	8000222 <__udivsi3+0xf2>
 8000138:	0903      	lsrs	r3, r0, #4
 800013a:	428b      	cmp	r3, r1
 800013c:	d35f      	bcc.n	80001fe <__udivsi3+0xce>
 800013e:	0a03      	lsrs	r3, r0, #8
 8000140:	428b      	cmp	r3, r1
 8000142:	d344      	bcc.n	80001ce <__udivsi3+0x9e>
 8000144:	0b03      	lsrs	r3, r0, #12
 8000146:	428b      	cmp	r3, r1
 8000148:	d328      	bcc.n	800019c <__udivsi3+0x6c>
 800014a:	0c03      	lsrs	r3, r0, #16
 800014c:	428b      	cmp	r3, r1
 800014e:	d30d      	bcc.n	800016c <__udivsi3+0x3c>
 8000150:	22ff      	movs	r2, #255	@ 0xff
 8000152:	0209      	lsls	r1, r1, #8
 8000154:	ba12      	rev	r2, r2
 8000156:	0c03      	lsrs	r3, r0, #16
 8000158:	428b      	cmp	r3, r1
 800015a:	d302      	bcc.n	8000162 <__udivsi3+0x32>
 800015c:	1212      	asrs	r2, r2, #8
 800015e:	0209      	lsls	r1, r1, #8
 8000160:	d065      	beq.n	800022e <__udivsi3+0xfe>
 8000162:	0b03      	lsrs	r3, r0, #12
 8000164:	428b      	cmp	r3, r1
 8000166:	d319      	bcc.n	800019c <__udivsi3+0x6c>
 8000168:	e000      	b.n	800016c <__udivsi3+0x3c>
 800016a:	0a09      	lsrs	r1, r1, #8
 800016c:	0bc3      	lsrs	r3, r0, #15
 800016e:	428b      	cmp	r3, r1
 8000170:	d301      	bcc.n	8000176 <__udivsi3+0x46>
 8000172:	03cb      	lsls	r3, r1, #15
 8000174:	1ac0      	subs	r0, r0, r3
 8000176:	4152      	adcs	r2, r2
 8000178:	0b83      	lsrs	r3, r0, #14
 800017a:	428b      	cmp	r3, r1
 800017c:	d301      	bcc.n	8000182 <__udivsi3+0x52>
 800017e:	038b      	lsls	r3, r1, #14
 8000180:	1ac0      	subs	r0, r0, r3
 8000182:	4152      	adcs	r2, r2
 8000184:	0b43      	lsrs	r3, r0, #13
 8000186:	428b      	cmp	r3, r1
 8000188:	d301      	bcc.n	800018e <__udivsi3+0x5e>
 800018a:	034b      	lsls	r3, r1, #13
 800018c:	1ac0      	subs	r0, r0, r3
 800018e:	4152      	adcs	r2, r2
 8000190:	0b03      	lsrs	r3, r0, #12
 8000192:	428b      	cmp	r3, r1
 8000194:	d301      	bcc.n	800019a <__udivsi3+0x6a>
 8000196:	030b      	lsls	r3, r1, #12
 8000198:	1ac0      	subs	r0, r0, r3
 800019a:	4152      	adcs	r2, r2
 800019c:	0ac3      	lsrs	r3, r0, #11
 800019e:	428b      	cmp	r3, r1
 80001a0:	d301      	bcc.n	80001a6 <__udivsi3+0x76>
 80001a2:	02cb      	lsls	r3, r1, #11
 80001a4:	1ac0      	subs	r0, r0, r3
 80001a6:	4152      	adcs	r2, r2
 80001a8:	0a83      	lsrs	r3, r0, #10
 80001aa:	428b      	cmp	r3, r1
 80001ac:	d301      	bcc.n	80001b2 <__udivsi3+0x82>
 80001ae:	028b      	lsls	r3, r1, #10
 80001b0:	1ac0      	subs	r0, r0, r3
 80001b2:	4152      	adcs	r2, r2
 80001b4:	0a43      	lsrs	r3, r0, #9
 80001b6:	428b      	cmp	r3, r1
 80001b8:	d301      	bcc.n	80001be <__udivsi3+0x8e>
 80001ba:	024b      	lsls	r3, r1, #9
 80001bc:	1ac0      	subs	r0, r0, r3
 80001be:	4152      	adcs	r2, r2
 80001c0:	0a03      	lsrs	r3, r0, #8
 80001c2:	428b      	cmp	r3, r1
 80001c4:	d301      	bcc.n	80001ca <__udivsi3+0x9a>
 80001c6:	020b      	lsls	r3, r1, #8
 80001c8:	1ac0      	subs	r0, r0, r3
 80001ca:	4152      	adcs	r2, r2
 80001cc:	d2cd      	bcs.n	800016a <__udivsi3+0x3a>
 80001ce:	09c3      	lsrs	r3, r0, #7
 80001d0:	428b      	cmp	r3, r1
 80001d2:	d301      	bcc.n	80001d8 <__udivsi3+0xa8>
 80001d4:	01cb      	lsls	r3, r1, #7
 80001d6:	1ac0      	subs	r0, r0, r3
 80001d8:	4152      	adcs	r2, r2
 80001da:	0983      	lsrs	r3, r0, #6
 80001dc:	428b      	cmp	r3, r1
 80001de:	d301      	bcc.n	80001e4 <__udivsi3+0xb4>
 80001e0:	018b      	lsls	r3, r1, #6
 80001e2:	1ac0      	subs	r0, r0, r3
 80001e4:	4152      	adcs	r2, r2
 80001e6:	0943      	lsrs	r3, r0, #5
 80001e8:	428b      	cmp	r3, r1
 80001ea:	d301      	bcc.n	80001f0 <__udivsi3+0xc0>
 80001ec:	014b      	lsls	r3, r1, #5
 80001ee:	1ac0      	subs	r0, r0, r3
 80001f0:	4152      	adcs	r2, r2
 80001f2:	0903      	lsrs	r3, r0, #4
 80001f4:	428b      	cmp	r3, r1
 80001f6:	d301      	bcc.n	80001fc <__udivsi3+0xcc>
 80001f8:	010b      	lsls	r3, r1, #4
 80001fa:	1ac0      	subs	r0, r0, r3
 80001fc:	4152      	adcs	r2, r2
 80001fe:	08c3      	lsrs	r3, r0, #3
 8000200:	428b      	cmp	r3, r1
 8000202:	d301      	bcc.n	8000208 <__udivsi3+0xd8>
 8000204:	00cb      	lsls	r3, r1, #3
 8000206:	1ac0      	subs	r0, r0, r3
 8000208:	4152      	adcs	r2, r2
 800020a:	0883      	lsrs	r3, r0, #2
 800020c:	428b      	cmp	r3, r1
 800020e:	d301      	bcc.n	8000214 <__udivsi3+0xe4>
 8000210:	008b      	lsls	r3, r1, #2
 8000212:	1ac0      	subs	r0, r0, r3
 8000214:	4152      	adcs	r2, r2
 8000216:	0843      	lsrs	r3, r0, #1
 8000218:	428b      	cmp	r3, r1
 800021a:	d301      	bcc.n	8000220 <__udivsi3+0xf0>
 800021c:	004b      	lsls	r3, r1, #1
 800021e:	1ac0      	subs	r0, r0, r3
 8000220:	4152      	adcs	r2, r2
 8000222:	1a41      	subs	r1, r0, r1
 8000224:	d200      	bcs.n	8000228 <__udivsi3+0xf8>
 8000226:	4601      	mov	r1, r0
 8000228:	4152      	adcs	r2, r2
 800022a:	4610      	mov	r0, r2
 800022c:	4770      	bx	lr
 800022e:	e7ff      	b.n	8000230 <__udivsi3+0x100>
 8000230:	b501      	push	{r0, lr}
 8000232:	2000      	movs	r0, #0
 8000234:	f000 f8f0 	bl	8000418 <__aeabi_idiv0>
 8000238:	bd02      	pop	{r1, pc}
 800023a:	46c0      	nop			@ (mov r8, r8)

0800023c <__aeabi_uidivmod>:
 800023c:	2900      	cmp	r1, #0
 800023e:	d0f7      	beq.n	8000230 <__udivsi3+0x100>
 8000240:	e776      	b.n	8000130 <__udivsi3>
 8000242:	4770      	bx	lr

08000244 <__divsi3>:
 8000244:	4603      	mov	r3, r0
 8000246:	430b      	orrs	r3, r1
 8000248:	d47f      	bmi.n	800034a <__divsi3+0x106>
 800024a:	2200      	movs	r2, #0
 800024c:	0843      	lsrs	r3, r0, #1
 800024e:	428b      	cmp	r3, r1
 8000250:	d374      	bcc.n	800033c <__divsi3+0xf8>
 8000252:	0903      	lsrs	r3, r0, #4
 8000254:	428b      	cmp	r3, r1
 8000256:	d35f      	bcc.n	8000318 <__divsi3+0xd4>
 8000258:	0a03      	lsrs	r3, r0, #8
 800025a:	428b      	cmp	r3, r1
 800025c:	d344      	bcc.n	80002e8 <__divsi3+0xa4>
 800025e:	0b03      	lsrs	r3, r0, #12
 8000260:	428b      	cmp	r3, r1
 8000262:	d328      	bcc.n	80002b6 <__divsi3+0x72>
 8000264:	0c03      	lsrs	r3, r0, #16
 8000266:	428b      	cmp	r3, r1
 8000268:	d30d      	bcc.n	8000286 <__divsi3+0x42>
 800026a:	22ff      	movs	r2, #255	@ 0xff
 800026c:	0209      	lsls	r1, r1, #8
 800026e:	ba12      	rev	r2, r2
 8000270:	0c03      	lsrs	r3, r0, #16
 8000272:	428b      	cmp	r3, r1
 8000274:	d302      	bcc.n	800027c <__divsi3+0x38>
 8000276:	1212      	asrs	r2, r2, #8
 8000278:	0209      	lsls	r1, r1, #8
 800027a:	d065      	beq.n	8000348 <__divsi3+0x104>
 800027c:	0b03      	lsrs	r3, r0, #12
 800027e:	428b      	cmp	r3, r1
 8000280:	d319      	bcc.n	80002b6 <__divsi3+0x72>
 8000282:	e000      	b.n	8000286 <__divsi3+0x42>
 8000284:	0a09      	lsrs	r1, r1, #8
 8000286:	0bc3      	lsrs	r3, r0, #15
 8000288:	428b      	cmp	r3, r1
 800028a:	d301      	bcc.n	8000290 <__divsi3+0x4c>
 800028c:	03cb      	lsls	r3, r1, #15
 800028e:	1ac0      	subs	r0, r0, r3
 8000290:	4152      	adcs	r2, r2
 8000292:	0b83      	lsrs	r3, r0, #14
 8000294:	428b      	cmp	r3, r1
 8000296:	d301      	bcc.n	800029c <__divsi3+0x58>
 8000298:	038b      	lsls	r3, r1, #14
 800029a:	1ac0      	subs	r0, r0, r3
 800029c:	4152      	adcs	r2, r2
 800029e:	0b43      	lsrs	r3, r0, #13
 80002a0:	428b      	cmp	r3, r1
 80002a2:	d301      	bcc.n	80002a8 <__divsi3+0x64>
 80002a4:	034b      	lsls	r3, r1, #13
 80002a6:	1ac0      	subs	r0, r0, r3
 80002a8:	4152      	adcs	r2, r2
 80002aa:	0b03      	lsrs	r3, r0, #12
 80002ac:	428b      	cmp	r3, r1
 80002ae:	d301      	bcc.n	80002b4 <__divsi3+0x70>
 80002b0:	030b      	lsls	r3, r1, #12
 80002b2:	1ac0      	subs	r0, r0, r3
 80002b4:	4152      	adcs	r2, r2
 80002b6:	0ac3      	lsrs	r3, r0, #11
 80002b8:	428b      	cmp	r3, r1
 80002ba:	d301      	bcc.n	80002c0 <__divsi3+0x7c>
 80002bc:	02cb      	lsls	r3, r1, #11
 80002be:	1ac0      	subs	r0, r0, r3
 80002c0:	4152      	adcs	r2, r2
 80002c2:	0a83      	lsrs	r3, r0, #10
 80002c4:	428b      	cmp	r3, r1
 80002c6:	d301      	bcc.n	80002cc <__divsi3+0x88>
 80002c8:	028b      	lsls	r3, r1, #10
 80002ca:	1ac0      	subs	r0, r0, r3
 80002cc:	4152      	adcs	r2, r2
 80002ce:	0a43      	lsrs	r3, r0, #9
 80002d0:	428b      	cmp	r3, r1
 80002d2:	d301      	bcc.n	80002d8 <__divsi3+0x94>
 80002d4:	024b      	lsls	r3, r1, #9
 80002d6:	1ac0      	subs	r0, r0, r3
 80002d8:	4152      	adcs	r2, r2
 80002da:	0a03      	lsrs	r3, r0, #8
 80002dc:	428b      	cmp	r3, r1
 80002de:	d301      	bcc.n	80002e4 <__divsi3+0xa0>
 80002e0:	020b      	lsls	r3, r1, #8
 80002e2:	1ac0      	subs	r0, r0, r3
 80002e4:	4152      	adcs	r2, r2
 80002e6:	d2cd      	bcs.n	8000284 <__divsi3+0x40>
 80002e8:	09c3      	lsrs	r3, r0, #7
 80002ea:	428b      	cmp	r3, r1
 80002ec:	d301      	bcc.n	80002f2 <__divsi3+0xae>
 80002ee:	01cb      	lsls	r3, r1, #7
 80002f0:	1ac0      	subs	r0, r0, r3
 80002f2:	4152      	adcs	r2, r2
 80002f4:	0983      	lsrs	r3, r0, #6
 80002f6:	428b      	cmp	r3, r1
 80002f8:	d301      	bcc.n	80002fe <__divsi3+0xba>
 80002fa:	018b      	lsls	r3, r1, #6
 80002fc:	1ac0      	subs	r0, r0, r3
 80002fe:	4152      	adcs	r2, r2
 8000300:	0943      	lsrs	r3, r0, #5
 8000302:	428b      	cmp	r3, r1
 8000304:	d301      	bcc.n	800030a <__divsi3+0xc6>
 8000306:	014b      	lsls	r3, r1, #5
 8000308:	1ac0      	subs	r0, r0, r3
 800030a:	4152      	adcs	r2, r2
 800030c:	0903      	lsrs	r3, r0, #4
 800030e:	428b      	cmp	r3, r1
 8000310:	d301      	bcc.n	8000316 <__divsi3+0xd2>
 8000312:	010b      	lsls	r3, r1, #4
 8000314:	1ac0      	subs	r0, r0, r3
 8000316:	4152      	adcs	r2, r2
 8000318:	08c3      	lsrs	r3, r0, #3
 800031a:	428b      	cmp	r3, r1
 800031c:	d301      	bcc.n	8000322 <__divsi3+0xde>
 800031e:	00cb      	lsls	r3, r1, #3
 8000320:	1ac0      	subs	r0, r0, r3
 8000322:	4152      	adcs	r2, r2
 8000324:	0883      	lsrs	r3, r0, #2
 8000326:	428b      	cmp	r3, r1
 8000328:	d301      	bcc.n	800032e <__divsi3+0xea>
 800032a:	008b      	lsls	r3, r1, #2
 800032c:	1ac0      	subs	r0, r0, r3
 800032e:	4152      	adcs	r2, r2
 8000330:	0843      	lsrs	r3, r0, #1
 8000332:	428b      	cmp	r3, r1
 8000334:	d301      	bcc.n	800033a <__divsi3+0xf6>
 8000336:	004b      	lsls	r3, r1, #1
 8000338:	1ac0      	subs	r0, r0, r3
 800033a:	4152      	adcs	r2, r2
 800033c:	1a41      	subs	r1, r0, r1
 800033e:	d200      	bcs.n	8000342 <__divsi3+0xfe>
 8000340:	4601      	mov	r1, r0
 8000342:	4152      	adcs	r2, r2
 8000344:	4610      	mov	r0, r2
 8000346:	4770      	bx	lr
 8000348:	e05d      	b.n	8000406 <__divsi3+0x1c2>
 800034a:	0fca      	lsrs	r2, r1, #31
 800034c:	d000      	beq.n	8000350 <__divsi3+0x10c>
 800034e:	4249      	negs	r1, r1
 8000350:	1003      	asrs	r3, r0, #32
 8000352:	d300      	bcc.n	8000356 <__divsi3+0x112>
 8000354:	4240      	negs	r0, r0
 8000356:	4053      	eors	r3, r2
 8000358:	2200      	movs	r2, #0
 800035a:	469c      	mov	ip, r3
 800035c:	0903      	lsrs	r3, r0, #4
 800035e:	428b      	cmp	r3, r1
 8000360:	d32d      	bcc.n	80003be <__divsi3+0x17a>
 8000362:	0a03      	lsrs	r3, r0, #8
 8000364:	428b      	cmp	r3, r1
 8000366:	d312      	bcc.n	800038e <__divsi3+0x14a>
 8000368:	22fc      	movs	r2, #252	@ 0xfc
 800036a:	0189      	lsls	r1, r1, #6
 800036c:	ba12      	rev	r2, r2
 800036e:	0a03      	lsrs	r3, r0, #8
 8000370:	428b      	cmp	r3, r1
 8000372:	d30c      	bcc.n	800038e <__divsi3+0x14a>
 8000374:	0189      	lsls	r1, r1, #6
 8000376:	1192      	asrs	r2, r2, #6
 8000378:	428b      	cmp	r3, r1
 800037a:	d308      	bcc.n	800038e <__divsi3+0x14a>
 800037c:	0189      	lsls	r1, r1, #6
 800037e:	1192      	asrs	r2, r2, #6
 8000380:	428b      	cmp	r3, r1
 8000382:	d304      	bcc.n	800038e <__divsi3+0x14a>
 8000384:	0189      	lsls	r1, r1, #6
 8000386:	d03a      	beq.n	80003fe <__divsi3+0x1ba>
 8000388:	1192      	asrs	r2, r2, #6
 800038a:	e000      	b.n	800038e <__divsi3+0x14a>
 800038c:	0989      	lsrs	r1, r1, #6
 800038e:	09c3      	lsrs	r3, r0, #7
 8000390:	428b      	cmp	r3, r1
 8000392:	d301      	bcc.n	8000398 <__divsi3+0x154>
 8000394:	01cb      	lsls	r3, r1, #7
 8000396:	1ac0      	subs	r0, r0, r3
 8000398:	4152      	adcs	r2, r2
 800039a:	0983      	lsrs	r3, r0, #6
 800039c:	428b      	cmp	r3, r1
 800039e:	d301      	bcc.n	80003a4 <__divsi3+0x160>
 80003a0:	018b      	lsls	r3, r1, #6
 80003a2:	1ac0      	subs	r0, r0, r3
 80003a4:	4152      	adcs	r2, r2
 80003a6:	0943      	lsrs	r3, r0, #5
 80003a8:	428b      	cmp	r3, r1
 80003aa:	d301      	bcc.n	80003b0 <__divsi3+0x16c>
 80003ac:	014b      	lsls	r3, r1, #5
 80003ae:	1ac0      	subs	r0, r0, r3
 80003b0:	4152      	adcs	r2, r2
 80003b2:	0903      	lsrs	r3, r0, #4
 80003b4:	428b      	cmp	r3, r1
 80003b6:	d301      	bcc.n	80003bc <__divsi3+0x178>
 80003b8:	010b      	lsls	r3, r1, #4
 80003ba:	1ac0      	subs	r0, r0, r3
 80003bc:	4152      	adcs	r2, r2
 80003be:	08c3      	lsrs	r3, r0, #3
 80003c0:	428b      	cmp	r3, r1
 80003c2:	d301      	bcc.n	80003c8 <__divsi3+0x184>
 80003c4:	00cb      	lsls	r3, r1, #3
 80003c6:	1ac0      	subs	r0, r0, r3
 80003c8:	4152      	adcs	r2, r2
 80003ca:	0883      	lsrs	r3, r0, #2
 80003cc:	428b      	cmp	r3, r1
 80003ce:	d301      	bcc.n	80003d4 <__divsi3+0x190>
 80003d0:	008b      	lsls	r3, r1, #2
 80003d2:	1ac0      	subs	r0, r0, r3
 80003d4:	4152      	adcs	r2, r2
 80003d6:	d2d9      	bcs.n	800038c <__divsi3+0x148>
 80003d8:	0843      	lsrs	r3, r0, #1
 80003da:	428b      	cmp	r3, r1
 80003dc:	d301      	bcc.n	80003e2 <__divsi3+0x19e>
 80003de:	004b      	lsls	r3, r1, #1
 80003e0:	1ac0      	subs	r0, r0, r3
 80003e2:	4152      	adcs	r2, r2
 80003e4:	1a41      	subs	r1, r0, r1
 80003e6:	d200      	bcs.n	80003ea <__divsi3+0x1a6>
 80003e8:	4601      	mov	r1, r0
 80003ea:	4663      	mov	r3, ip
 80003ec:	4152      	adcs	r2, r2
 80003ee:	105b      	asrs	r3, r3, #1
 80003f0:	4610      	mov	r0, r2
 80003f2:	d301      	bcc.n	80003f8 <__divsi3+0x1b4>
 80003f4:	4240      	negs	r0, r0
 80003f6:	2b00      	cmp	r3, #0
 80003f8:	d500      	bpl.n	80003fc <__divsi3+0x1b8>
 80003fa:	4249      	negs	r1, r1
 80003fc:	4770      	bx	lr
 80003fe:	4663      	mov	r3, ip
 8000400:	105b      	asrs	r3, r3, #1
 8000402:	d300      	bcc.n	8000406 <__divsi3+0x1c2>
 8000404:	4240      	negs	r0, r0
 8000406:	b501      	push	{r0, lr}
 8000408:	2000      	movs	r0, #0
 800040a:	f000 f805 	bl	8000418 <__aeabi_idiv0>
 800040e:	bd02      	pop	{r1, pc}

08000410 <__aeabi_idivmod>:
 8000410:	2900      	cmp	r1, #0
 8000412:	d0f8      	beq.n	8000406 <__divsi3+0x1c2>
 8000414:	e716      	b.n	8000244 <__divsi3>
 8000416:	4770      	bx	lr

08000418 <__aeabi_idiv0>:
 8000418:	4770      	bx	lr
 800041a:	46c0      	nop			@ (mov r8, r8)

0800041c <__aeabi_fmul>:
 800041c:	b5f0      	push	{r4, r5, r6, r7, lr}
 800041e:	464f      	mov	r7, r9
 8000420:	4646      	mov	r6, r8
 8000422:	46d6      	mov	lr, sl
 8000424:	0243      	lsls	r3, r0, #9
 8000426:	0a5b      	lsrs	r3, r3, #9
 8000428:	0045      	lsls	r5, r0, #1
 800042a:	b5c0      	push	{r6, r7, lr}
 800042c:	4699      	mov	r9, r3
 800042e:	1c0f      	adds	r7, r1, #0
 8000430:	0e2d      	lsrs	r5, r5, #24
 8000432:	0fc6      	lsrs	r6, r0, #31
 8000434:	2d00      	cmp	r5, #0
 8000436:	d100      	bne.n	800043a <__aeabi_fmul+0x1e>
 8000438:	e088      	b.n	800054c <__aeabi_fmul+0x130>
 800043a:	2dff      	cmp	r5, #255	@ 0xff
 800043c:	d100      	bne.n	8000440 <__aeabi_fmul+0x24>
 800043e:	e08d      	b.n	800055c <__aeabi_fmul+0x140>
 8000440:	2280      	movs	r2, #128	@ 0x80
 8000442:	00db      	lsls	r3, r3, #3
 8000444:	04d2      	lsls	r2, r2, #19
 8000446:	431a      	orrs	r2, r3
 8000448:	2300      	movs	r3, #0
 800044a:	4691      	mov	r9, r2
 800044c:	4698      	mov	r8, r3
 800044e:	469a      	mov	sl, r3
 8000450:	3d7f      	subs	r5, #127	@ 0x7f
 8000452:	027c      	lsls	r4, r7, #9
 8000454:	007b      	lsls	r3, r7, #1
 8000456:	0a64      	lsrs	r4, r4, #9
 8000458:	0e1b      	lsrs	r3, r3, #24
 800045a:	0fff      	lsrs	r7, r7, #31
 800045c:	2b00      	cmp	r3, #0
 800045e:	d068      	beq.n	8000532 <__aeabi_fmul+0x116>
 8000460:	2bff      	cmp	r3, #255	@ 0xff
 8000462:	d021      	beq.n	80004a8 <__aeabi_fmul+0x8c>
 8000464:	2280      	movs	r2, #128	@ 0x80
 8000466:	00e4      	lsls	r4, r4, #3
 8000468:	04d2      	lsls	r2, r2, #19
 800046a:	4314      	orrs	r4, r2
 800046c:	4642      	mov	r2, r8
 800046e:	3b7f      	subs	r3, #127	@ 0x7f
 8000470:	195b      	adds	r3, r3, r5
 8000472:	2100      	movs	r1, #0
 8000474:	1c5d      	adds	r5, r3, #1
 8000476:	2a0a      	cmp	r2, #10
 8000478:	dc2e      	bgt.n	80004d8 <__aeabi_fmul+0xbc>
 800047a:	407e      	eors	r6, r7
 800047c:	4642      	mov	r2, r8
 800047e:	2a02      	cmp	r2, #2
 8000480:	dc23      	bgt.n	80004ca <__aeabi_fmul+0xae>
 8000482:	3a01      	subs	r2, #1
 8000484:	2a01      	cmp	r2, #1
 8000486:	d900      	bls.n	800048a <__aeabi_fmul+0x6e>
 8000488:	e0bd      	b.n	8000606 <__aeabi_fmul+0x1ea>
 800048a:	2902      	cmp	r1, #2
 800048c:	d06e      	beq.n	800056c <__aeabi_fmul+0x150>
 800048e:	2901      	cmp	r1, #1
 8000490:	d12c      	bne.n	80004ec <__aeabi_fmul+0xd0>
 8000492:	2000      	movs	r0, #0
 8000494:	2200      	movs	r2, #0
 8000496:	05c0      	lsls	r0, r0, #23
 8000498:	07f6      	lsls	r6, r6, #31
 800049a:	4310      	orrs	r0, r2
 800049c:	4330      	orrs	r0, r6
 800049e:	bce0      	pop	{r5, r6, r7}
 80004a0:	46ba      	mov	sl, r7
 80004a2:	46b1      	mov	r9, r6
 80004a4:	46a8      	mov	r8, r5
 80004a6:	bdf0      	pop	{r4, r5, r6, r7, pc}
 80004a8:	002b      	movs	r3, r5
 80004aa:	33ff      	adds	r3, #255	@ 0xff
 80004ac:	2c00      	cmp	r4, #0
 80004ae:	d065      	beq.n	800057c <__aeabi_fmul+0x160>
 80004b0:	2203      	movs	r2, #3
 80004b2:	4641      	mov	r1, r8
 80004b4:	4311      	orrs	r1, r2
 80004b6:	0032      	movs	r2, r6
 80004b8:	3501      	adds	r5, #1
 80004ba:	4688      	mov	r8, r1
 80004bc:	407a      	eors	r2, r7
 80004be:	35ff      	adds	r5, #255	@ 0xff
 80004c0:	290a      	cmp	r1, #10
 80004c2:	dd00      	ble.n	80004c6 <__aeabi_fmul+0xaa>
 80004c4:	e0d8      	b.n	8000678 <__aeabi_fmul+0x25c>
 80004c6:	0016      	movs	r6, r2
 80004c8:	2103      	movs	r1, #3
 80004ca:	4640      	mov	r0, r8
 80004cc:	2201      	movs	r2, #1
 80004ce:	4082      	lsls	r2, r0
 80004d0:	20a6      	movs	r0, #166	@ 0xa6
 80004d2:	00c0      	lsls	r0, r0, #3
 80004d4:	4202      	tst	r2, r0
 80004d6:	d020      	beq.n	800051a <__aeabi_fmul+0xfe>
 80004d8:	4653      	mov	r3, sl
 80004da:	2b02      	cmp	r3, #2
 80004dc:	d046      	beq.n	800056c <__aeabi_fmul+0x150>
 80004de:	2b03      	cmp	r3, #3
 80004e0:	d100      	bne.n	80004e4 <__aeabi_fmul+0xc8>
 80004e2:	e0bb      	b.n	800065c <__aeabi_fmul+0x240>
 80004e4:	4651      	mov	r1, sl
 80004e6:	464c      	mov	r4, r9
 80004e8:	2901      	cmp	r1, #1
 80004ea:	d0d2      	beq.n	8000492 <__aeabi_fmul+0x76>
 80004ec:	002b      	movs	r3, r5
 80004ee:	337f      	adds	r3, #127	@ 0x7f
 80004f0:	2b00      	cmp	r3, #0
 80004f2:	dd70      	ble.n	80005d6 <__aeabi_fmul+0x1ba>
 80004f4:	0762      	lsls	r2, r4, #29
 80004f6:	d004      	beq.n	8000502 <__aeabi_fmul+0xe6>
 80004f8:	220f      	movs	r2, #15
 80004fa:	4022      	ands	r2, r4
 80004fc:	2a04      	cmp	r2, #4
 80004fe:	d000      	beq.n	8000502 <__aeabi_fmul+0xe6>
 8000500:	3404      	adds	r4, #4
 8000502:	0122      	lsls	r2, r4, #4
 8000504:	d503      	bpl.n	800050e <__aeabi_fmul+0xf2>
 8000506:	4b63      	ldr	r3, [pc, #396]	@ (8000694 <__aeabi_fmul+0x278>)
 8000508:	401c      	ands	r4, r3
 800050a:	002b      	movs	r3, r5
 800050c:	3380      	adds	r3, #128	@ 0x80
 800050e:	2bfe      	cmp	r3, #254	@ 0xfe
 8000510:	dc2c      	bgt.n	800056c <__aeabi_fmul+0x150>
 8000512:	01a2      	lsls	r2, r4, #6
 8000514:	0a52      	lsrs	r2, r2, #9
 8000516:	b2d8      	uxtb	r0, r3
 8000518:	e7bd      	b.n	8000496 <__aeabi_fmul+0x7a>
 800051a:	2090      	movs	r0, #144	@ 0x90
 800051c:	0080      	lsls	r0, r0, #2
 800051e:	4202      	tst	r2, r0
 8000520:	d127      	bne.n	8000572 <__aeabi_fmul+0x156>
 8000522:	38b9      	subs	r0, #185	@ 0xb9
 8000524:	38ff      	subs	r0, #255	@ 0xff
 8000526:	4210      	tst	r0, r2
 8000528:	d06d      	beq.n	8000606 <__aeabi_fmul+0x1ea>
 800052a:	003e      	movs	r6, r7
 800052c:	46a1      	mov	r9, r4
 800052e:	468a      	mov	sl, r1
 8000530:	e7d2      	b.n	80004d8 <__aeabi_fmul+0xbc>
 8000532:	2c00      	cmp	r4, #0
 8000534:	d141      	bne.n	80005ba <__aeabi_fmul+0x19e>
 8000536:	2301      	movs	r3, #1
 8000538:	4642      	mov	r2, r8
 800053a:	431a      	orrs	r2, r3
 800053c:	4690      	mov	r8, r2
 800053e:	002b      	movs	r3, r5
 8000540:	4642      	mov	r2, r8
 8000542:	2101      	movs	r1, #1
 8000544:	1c5d      	adds	r5, r3, #1
 8000546:	2a0a      	cmp	r2, #10
 8000548:	dd97      	ble.n	800047a <__aeabi_fmul+0x5e>
 800054a:	e7c5      	b.n	80004d8 <__aeabi_fmul+0xbc>
 800054c:	2b00      	cmp	r3, #0
 800054e:	d126      	bne.n	800059e <__aeabi_fmul+0x182>
 8000550:	2304      	movs	r3, #4
 8000552:	4698      	mov	r8, r3
 8000554:	3b03      	subs	r3, #3
 8000556:	2500      	movs	r5, #0
 8000558:	469a      	mov	sl, r3
 800055a:	e77a      	b.n	8000452 <__aeabi_fmul+0x36>
 800055c:	2b00      	cmp	r3, #0
 800055e:	d118      	bne.n	8000592 <__aeabi_fmul+0x176>
 8000560:	2308      	movs	r3, #8
 8000562:	4698      	mov	r8, r3
 8000564:	3b06      	subs	r3, #6
 8000566:	25ff      	movs	r5, #255	@ 0xff
 8000568:	469a      	mov	sl, r3
 800056a:	e772      	b.n	8000452 <__aeabi_fmul+0x36>
 800056c:	20ff      	movs	r0, #255	@ 0xff
 800056e:	2200      	movs	r2, #0
 8000570:	e791      	b.n	8000496 <__aeabi_fmul+0x7a>
 8000572:	2280      	movs	r2, #128	@ 0x80
 8000574:	2600      	movs	r6, #0
 8000576:	20ff      	movs	r0, #255	@ 0xff
 8000578:	03d2      	lsls	r2, r2, #15
 800057a:	e78c      	b.n	8000496 <__aeabi_fmul+0x7a>
 800057c:	4641      	mov	r1, r8
 800057e:	2202      	movs	r2, #2
 8000580:	3501      	adds	r5, #1
 8000582:	4311      	orrs	r1, r2
 8000584:	4688      	mov	r8, r1
 8000586:	35ff      	adds	r5, #255	@ 0xff
 8000588:	290a      	cmp	r1, #10
 800058a:	dca5      	bgt.n	80004d8 <__aeabi_fmul+0xbc>
 800058c:	2102      	movs	r1, #2
 800058e:	407e      	eors	r6, r7
 8000590:	e774      	b.n	800047c <__aeabi_fmul+0x60>
 8000592:	230c      	movs	r3, #12
 8000594:	4698      	mov	r8, r3
 8000596:	3b09      	subs	r3, #9
 8000598:	25ff      	movs	r5, #255	@ 0xff
 800059a:	469a      	mov	sl, r3
 800059c:	e759      	b.n	8000452 <__aeabi_fmul+0x36>
 800059e:	0018      	movs	r0, r3
 80005a0:	f000 f908 	bl	80007b4 <__clzsi2>
 80005a4:	464a      	mov	r2, r9
 80005a6:	1f43      	subs	r3, r0, #5
 80005a8:	2576      	movs	r5, #118	@ 0x76
 80005aa:	409a      	lsls	r2, r3
 80005ac:	2300      	movs	r3, #0
 80005ae:	426d      	negs	r5, r5
 80005b0:	4691      	mov	r9, r2
 80005b2:	4698      	mov	r8, r3
 80005b4:	469a      	mov	sl, r3
 80005b6:	1a2d      	subs	r5, r5, r0
 80005b8:	e74b      	b.n	8000452 <__aeabi_fmul+0x36>
 80005ba:	0020      	movs	r0, r4
 80005bc:	f000 f8fa 	bl	80007b4 <__clzsi2>
 80005c0:	4642      	mov	r2, r8
 80005c2:	1f43      	subs	r3, r0, #5
 80005c4:	409c      	lsls	r4, r3
 80005c6:	1a2b      	subs	r3, r5, r0
 80005c8:	3b76      	subs	r3, #118	@ 0x76
 80005ca:	2100      	movs	r1, #0
 80005cc:	1c5d      	adds	r5, r3, #1
 80005ce:	2a0a      	cmp	r2, #10
 80005d0:	dc00      	bgt.n	80005d4 <__aeabi_fmul+0x1b8>
 80005d2:	e752      	b.n	800047a <__aeabi_fmul+0x5e>
 80005d4:	e780      	b.n	80004d8 <__aeabi_fmul+0xbc>
 80005d6:	2201      	movs	r2, #1
 80005d8:	1ad3      	subs	r3, r2, r3
 80005da:	2b1b      	cmp	r3, #27
 80005dc:	dd00      	ble.n	80005e0 <__aeabi_fmul+0x1c4>
 80005de:	e758      	b.n	8000492 <__aeabi_fmul+0x76>
 80005e0:	359e      	adds	r5, #158	@ 0x9e
 80005e2:	0022      	movs	r2, r4
 80005e4:	40ac      	lsls	r4, r5
 80005e6:	40da      	lsrs	r2, r3
 80005e8:	1e63      	subs	r3, r4, #1
 80005ea:	419c      	sbcs	r4, r3
 80005ec:	4322      	orrs	r2, r4
 80005ee:	0753      	lsls	r3, r2, #29
 80005f0:	d004      	beq.n	80005fc <__aeabi_fmul+0x1e0>
 80005f2:	230f      	movs	r3, #15
 80005f4:	4013      	ands	r3, r2
 80005f6:	2b04      	cmp	r3, #4
 80005f8:	d000      	beq.n	80005fc <__aeabi_fmul+0x1e0>
 80005fa:	3204      	adds	r2, #4
 80005fc:	0153      	lsls	r3, r2, #5
 80005fe:	d537      	bpl.n	8000670 <__aeabi_fmul+0x254>
 8000600:	2001      	movs	r0, #1
 8000602:	2200      	movs	r2, #0
 8000604:	e747      	b.n	8000496 <__aeabi_fmul+0x7a>
 8000606:	0c21      	lsrs	r1, r4, #16
 8000608:	464a      	mov	r2, r9
 800060a:	0424      	lsls	r4, r4, #16
 800060c:	0c24      	lsrs	r4, r4, #16
 800060e:	0027      	movs	r7, r4
 8000610:	0c10      	lsrs	r0, r2, #16
 8000612:	0412      	lsls	r2, r2, #16
 8000614:	0c12      	lsrs	r2, r2, #16
 8000616:	4344      	muls	r4, r0
 8000618:	4357      	muls	r7, r2
 800061a:	4348      	muls	r0, r1
 800061c:	4351      	muls	r1, r2
 800061e:	0c3a      	lsrs	r2, r7, #16
 8000620:	1909      	adds	r1, r1, r4
 8000622:	1852      	adds	r2, r2, r1
 8000624:	4294      	cmp	r4, r2
 8000626:	d903      	bls.n	8000630 <__aeabi_fmul+0x214>
 8000628:	2180      	movs	r1, #128	@ 0x80
 800062a:	0249      	lsls	r1, r1, #9
 800062c:	468c      	mov	ip, r1
 800062e:	4460      	add	r0, ip
 8000630:	043f      	lsls	r7, r7, #16
 8000632:	0411      	lsls	r1, r2, #16
 8000634:	0c3f      	lsrs	r7, r7, #16
 8000636:	19c9      	adds	r1, r1, r7
 8000638:	018c      	lsls	r4, r1, #6
 800063a:	1e67      	subs	r7, r4, #1
 800063c:	41bc      	sbcs	r4, r7
 800063e:	0c12      	lsrs	r2, r2, #16
 8000640:	0e89      	lsrs	r1, r1, #26
 8000642:	1812      	adds	r2, r2, r0
 8000644:	430c      	orrs	r4, r1
 8000646:	0192      	lsls	r2, r2, #6
 8000648:	4314      	orrs	r4, r2
 800064a:	0112      	lsls	r2, r2, #4
 800064c:	d50e      	bpl.n	800066c <__aeabi_fmul+0x250>
 800064e:	2301      	movs	r3, #1
 8000650:	0862      	lsrs	r2, r4, #1
 8000652:	401c      	ands	r4, r3
 8000654:	4314      	orrs	r4, r2
 8000656:	e749      	b.n	80004ec <__aeabi_fmul+0xd0>
 8000658:	003e      	movs	r6, r7
 800065a:	46a1      	mov	r9, r4
 800065c:	2280      	movs	r2, #128	@ 0x80
 800065e:	464b      	mov	r3, r9
 8000660:	03d2      	lsls	r2, r2, #15
 8000662:	431a      	orrs	r2, r3
 8000664:	0252      	lsls	r2, r2, #9
 8000666:	20ff      	movs	r0, #255	@ 0xff
 8000668:	0a52      	lsrs	r2, r2, #9
 800066a:	e714      	b.n	8000496 <__aeabi_fmul+0x7a>
 800066c:	001d      	movs	r5, r3
 800066e:	e73d      	b.n	80004ec <__aeabi_fmul+0xd0>
 8000670:	0192      	lsls	r2, r2, #6
 8000672:	2000      	movs	r0, #0
 8000674:	0a52      	lsrs	r2, r2, #9
 8000676:	e70e      	b.n	8000496 <__aeabi_fmul+0x7a>
 8000678:	290f      	cmp	r1, #15
 800067a:	d1ed      	bne.n	8000658 <__aeabi_fmul+0x23c>
 800067c:	2280      	movs	r2, #128	@ 0x80
 800067e:	464b      	mov	r3, r9
 8000680:	03d2      	lsls	r2, r2, #15
 8000682:	4213      	tst	r3, r2
 8000684:	d0ea      	beq.n	800065c <__aeabi_fmul+0x240>
 8000686:	4214      	tst	r4, r2
 8000688:	d1e8      	bne.n	800065c <__aeabi_fmul+0x240>
 800068a:	003e      	movs	r6, r7
 800068c:	20ff      	movs	r0, #255	@ 0xff
 800068e:	4322      	orrs	r2, r4
 8000690:	e701      	b.n	8000496 <__aeabi_fmul+0x7a>
 8000692:	46c0      	nop			@ (mov r8, r8)
 8000694:	f7ffffff 	.word	0xf7ffffff

08000698 <__aeabi_i2f>:
 8000698:	b570      	push	{r4, r5, r6, lr}
 800069a:	2800      	cmp	r0, #0
 800069c:	d013      	beq.n	80006c6 <__aeabi_i2f+0x2e>
 800069e:	17c3      	asrs	r3, r0, #31
 80006a0:	18c5      	adds	r5, r0, r3
 80006a2:	405d      	eors	r5, r3
 80006a4:	0fc4      	lsrs	r4, r0, #31
 80006a6:	0028      	movs	r0, r5
 80006a8:	f000 f884 	bl	80007b4 <__clzsi2>
 80006ac:	239e      	movs	r3, #158	@ 0x9e
 80006ae:	0001      	movs	r1, r0
 80006b0:	1a1b      	subs	r3, r3, r0
 80006b2:	2b96      	cmp	r3, #150	@ 0x96
 80006b4:	dc0f      	bgt.n	80006d6 <__aeabi_i2f+0x3e>
 80006b6:	2808      	cmp	r0, #8
 80006b8:	d034      	beq.n	8000724 <__aeabi_i2f+0x8c>
 80006ba:	3908      	subs	r1, #8
 80006bc:	408d      	lsls	r5, r1
 80006be:	026d      	lsls	r5, r5, #9
 80006c0:	0a6d      	lsrs	r5, r5, #9
 80006c2:	b2d8      	uxtb	r0, r3
 80006c4:	e002      	b.n	80006cc <__aeabi_i2f+0x34>
 80006c6:	2400      	movs	r4, #0
 80006c8:	2000      	movs	r0, #0
 80006ca:	2500      	movs	r5, #0
 80006cc:	05c0      	lsls	r0, r0, #23
 80006ce:	4328      	orrs	r0, r5
 80006d0:	07e4      	lsls	r4, r4, #31
 80006d2:	4320      	orrs	r0, r4
 80006d4:	bd70      	pop	{r4, r5, r6, pc}
 80006d6:	2b99      	cmp	r3, #153	@ 0x99
 80006d8:	dc16      	bgt.n	8000708 <__aeabi_i2f+0x70>
 80006da:	1f42      	subs	r2, r0, #5
 80006dc:	2805      	cmp	r0, #5
 80006de:	d000      	beq.n	80006e2 <__aeabi_i2f+0x4a>
 80006e0:	4095      	lsls	r5, r2
 80006e2:	002a      	movs	r2, r5
 80006e4:	4811      	ldr	r0, [pc, #68]	@ (800072c <__aeabi_i2f+0x94>)
 80006e6:	4002      	ands	r2, r0
 80006e8:	076e      	lsls	r6, r5, #29
 80006ea:	d009      	beq.n	8000700 <__aeabi_i2f+0x68>
 80006ec:	260f      	movs	r6, #15
 80006ee:	4035      	ands	r5, r6
 80006f0:	2d04      	cmp	r5, #4
 80006f2:	d005      	beq.n	8000700 <__aeabi_i2f+0x68>
 80006f4:	3204      	adds	r2, #4
 80006f6:	0155      	lsls	r5, r2, #5
 80006f8:	d502      	bpl.n	8000700 <__aeabi_i2f+0x68>
 80006fa:	239f      	movs	r3, #159	@ 0x9f
 80006fc:	4002      	ands	r2, r0
 80006fe:	1a5b      	subs	r3, r3, r1
 8000700:	0192      	lsls	r2, r2, #6
 8000702:	0a55      	lsrs	r5, r2, #9
 8000704:	b2d8      	uxtb	r0, r3
 8000706:	e7e1      	b.n	80006cc <__aeabi_i2f+0x34>
 8000708:	2205      	movs	r2, #5
 800070a:	1a12      	subs	r2, r2, r0
 800070c:	0028      	movs	r0, r5
 800070e:	40d0      	lsrs	r0, r2
 8000710:	0002      	movs	r2, r0
 8000712:	0008      	movs	r0, r1
 8000714:	301b      	adds	r0, #27
 8000716:	4085      	lsls	r5, r0
 8000718:	0028      	movs	r0, r5
 800071a:	1e45      	subs	r5, r0, #1
 800071c:	41a8      	sbcs	r0, r5
 800071e:	4302      	orrs	r2, r0
 8000720:	0015      	movs	r5, r2
 8000722:	e7de      	b.n	80006e2 <__aeabi_i2f+0x4a>
 8000724:	026d      	lsls	r5, r5, #9
 8000726:	2096      	movs	r0, #150	@ 0x96
 8000728:	0a6d      	lsrs	r5, r5, #9
 800072a:	e7cf      	b.n	80006cc <__aeabi_i2f+0x34>
 800072c:	fbffffff 	.word	0xfbffffff

08000730 <__aeabi_ui2f>:
 8000730:	b570      	push	{r4, r5, r6, lr}
 8000732:	1e04      	subs	r4, r0, #0
 8000734:	d00e      	beq.n	8000754 <__aeabi_ui2f+0x24>
 8000736:	f000 f83d 	bl	80007b4 <__clzsi2>
 800073a:	239e      	movs	r3, #158	@ 0x9e
 800073c:	0001      	movs	r1, r0
 800073e:	1a1b      	subs	r3, r3, r0
 8000740:	2b96      	cmp	r3, #150	@ 0x96
 8000742:	dc0c      	bgt.n	800075e <__aeabi_ui2f+0x2e>
 8000744:	2808      	cmp	r0, #8
 8000746:	d02f      	beq.n	80007a8 <__aeabi_ui2f+0x78>
 8000748:	3908      	subs	r1, #8
 800074a:	408c      	lsls	r4, r1
 800074c:	0264      	lsls	r4, r4, #9
 800074e:	0a64      	lsrs	r4, r4, #9
 8000750:	b2d8      	uxtb	r0, r3
 8000752:	e001      	b.n	8000758 <__aeabi_ui2f+0x28>
 8000754:	2000      	movs	r0, #0
 8000756:	2400      	movs	r4, #0
 8000758:	05c0      	lsls	r0, r0, #23
 800075a:	4320      	orrs	r0, r4
 800075c:	bd70      	pop	{r4, r5, r6, pc}
 800075e:	2b99      	cmp	r3, #153	@ 0x99
 8000760:	dc16      	bgt.n	8000790 <__aeabi_ui2f+0x60>
 8000762:	1f42      	subs	r2, r0, #5
 8000764:	2805      	cmp	r0, #5
 8000766:	d000      	beq.n	800076a <__aeabi_ui2f+0x3a>
 8000768:	4094      	lsls	r4, r2
 800076a:	0022      	movs	r2, r4
 800076c:	4810      	ldr	r0, [pc, #64]	@ (80007b0 <__aeabi_ui2f+0x80>)
 800076e:	4002      	ands	r2, r0
 8000770:	0765      	lsls	r5, r4, #29
 8000772:	d009      	beq.n	8000788 <__aeabi_ui2f+0x58>
 8000774:	250f      	movs	r5, #15
 8000776:	402c      	ands	r4, r5
 8000778:	2c04      	cmp	r4, #4
 800077a:	d005      	beq.n	8000788 <__aeabi_ui2f+0x58>
 800077c:	3204      	adds	r2, #4
 800077e:	0154      	lsls	r4, r2, #5
 8000780:	d502      	bpl.n	8000788 <__aeabi_ui2f+0x58>
 8000782:	239f      	movs	r3, #159	@ 0x9f
 8000784:	4002      	ands	r2, r0
 8000786:	1a5b      	subs	r3, r3, r1
 8000788:	0192      	lsls	r2, r2, #6
 800078a:	0a54      	lsrs	r4, r2, #9
 800078c:	b2d8      	uxtb	r0, r3
 800078e:	e7e3      	b.n	8000758 <__aeabi_ui2f+0x28>
 8000790:	0002      	movs	r2, r0
 8000792:	0020      	movs	r0, r4
 8000794:	321b      	adds	r2, #27
 8000796:	4090      	lsls	r0, r2
 8000798:	0002      	movs	r2, r0
 800079a:	1e50      	subs	r0, r2, #1
 800079c:	4182      	sbcs	r2, r0
 800079e:	2005      	movs	r0, #5
 80007a0:	1a40      	subs	r0, r0, r1
 80007a2:	40c4      	lsrs	r4, r0
 80007a4:	4314      	orrs	r4, r2
 80007a6:	e7e0      	b.n	800076a <__aeabi_ui2f+0x3a>
 80007a8:	0264      	lsls	r4, r4, #9
 80007aa:	2096      	movs	r0, #150	@ 0x96
 80007ac:	0a64      	lsrs	r4, r4, #9
 80007ae:	e7d3      	b.n	8000758 <__aeabi_ui2f+0x28>
 80007b0:	fbffffff 	.word	0xfbffffff

080007b4 <__clzsi2>:
 80007b4:	211c      	movs	r1, #28
 80007b6:	2301      	movs	r3, #1
 80007b8:	041b      	lsls	r3, r3, #16
 80007ba:	4298      	cmp	r0, r3
 80007bc:	d301      	bcc.n	80007c2 <__clzsi2+0xe>
 80007be:	0c00      	lsrs	r0, r0, #16
 80007c0:	3910      	subs	r1, #16
 80007c2:	0a1b      	lsrs	r3, r3, #8
 80007c4:	4298      	cmp	r0, r3
 80007c6:	d301      	bcc.n	80007cc <__clzsi2+0x18>
 80007c8:	0a00      	lsrs	r0, r0, #8
 80007ca:	3908      	subs	r1, #8
 80007cc:	091b      	lsrs	r3, r3, #4
 80007ce:	4298      	cmp	r0, r3
 80007d0:	d301      	bcc.n	80007d6 <__clzsi2+0x22>
 80007d2:	0900      	lsrs	r0, r0, #4
 80007d4:	3904      	subs	r1, #4
 80007d6:	a202      	add	r2, pc, #8	@ (adr r2, 80007e0 <__clzsi2+0x2c>)
 80007d8:	5c10      	ldrb	r0, [r2, r0]
 80007da:	1840      	adds	r0, r0, r1
 80007dc:	4770      	bx	lr
 80007de:	46c0      	nop			@ (mov r8, r8)
 80007e0:	02020304 	.word	0x02020304
 80007e4:	01010101 	.word	0x01010101
	...

080007f0 <Reset_Handler>:
 80007f0:	480d      	ldr	r0, [pc, #52]	@ (8000828 <LoopForever+0x2>)
 80007f2:	4685      	mov	sp, r0
 80007f4:	f003 fee4 	bl	80045c0 <SystemInit>
 80007f8:	480c      	ldr	r0, [pc, #48]	@ (800082c <LoopForever+0x6>)
 80007fa:	490d      	ldr	r1, [pc, #52]	@ (8000830 <LoopForever+0xa>)
 80007fc:	4a0d      	ldr	r2, [pc, #52]	@ (8000834 <LoopForever+0xe>)
 80007fe:	2300      	movs	r3, #0
 8000800:	e002      	b.n	8000808 <LoopCopyDataInit>

08000802 <CopyDataInit>:
 8000802:	58d4      	ldr	r4, [r2, r3]
 8000804:	50c4      	str	r4, [r0, r3]
 8000806:	3304      	adds	r3, #4

08000808 <LoopCopyDataInit>:
 8000808:	18c4      	adds	r4, r0, r3
 800080a:	428c      	cmp	r4, r1
 800080c:	d3f9      	bcc.n	8000802 <CopyDataInit>
 800080e:	4a0a      	ldr	r2, [pc, #40]	@ (8000838 <LoopForever+0x12>)
 8000810:	4c0a      	ldr	r4, [pc, #40]	@ (800083c <LoopForever+0x16>)
 8000812:	2300      	movs	r3, #0
 8000814:	e001      	b.n	800081a <LoopFillZerobss>

08000816 <FillZerobss>:
 8000816:	6013      	str	r3, [r2, #0]
 8000818:	3204      	adds	r2, #4

0800081a <LoopFillZerobss>:
 800081a:	42a2      	cmp	r2, r4
 800081c:	d3fb      	bcc.n	8000816 <FillZerobss>
 800081e:	f005 fead 	bl	800657c <__libc_init_array>
 8000822:	f000 fad9 	bl	8000dd8 <main>

08000826 <LoopForever>:
 8000826:	e7fe      	b.n	8000826 <LoopForever>
 8000828:	20001000 	.word	0x20001000
 800082c:	20000000 	.word	0x20000000
 8000830:	200003d4 	.word	0x200003d4
 8000834:	08007238 	.word	0x08007238
 8000838:	200003d4 	.word	0x200003d4
 800083c:	200009fc 	.word	0x200009fc

08000840 <ADC1_IRQHandler>:
 8000840:	e7fe      	b.n	8000840 <ADC1_IRQHandler>
	...

08000844 <ASPEP_TXframeProcess>:
 8000844:	b5f8      	push	{r3, r4, r5, r6, r7, lr}
 8000846:	0004      	movs	r4, r0
 8000848:	0008      	movs	r0, r1
 800084a:	0011      	movs	r1, r2
 800084c:	680d      	ldr	r5, [r1, #0]
 800084e:	001a      	movs	r2, r3
 8000850:	b2ef      	uxtb	r7, r5
 8000852:	46bc      	mov	ip, r7
 8000854:	012b      	lsls	r3, r5, #4
 8000856:	0b1f      	lsrs	r7, r3, #12
 8000858:	4663      	mov	r3, ip
 800085a:	4e2a      	ldr	r6, [pc, #168]	@ (8000904 <ASPEP_TXframeProcess+0xc0>)
 800085c:	5cf3      	ldrb	r3, [r6, r3]
 800085e:	405f      	eors	r7, r3
 8000860:	b2ff      	uxtb	r7, r7
 8000862:	5df7      	ldrb	r7, [r6, r7]
 8000864:	012b      	lsls	r3, r5, #4
 8000866:	0d1b      	lsrs	r3, r3, #20
 8000868:	405f      	eors	r7, r3
 800086a:	b2ff      	uxtb	r7, r7
 800086c:	5df6      	ldrb	r6, [r6, r7]
 800086e:	012b      	lsls	r3, r5, #4
 8000870:	0f1b      	lsrs	r3, r3, #28
 8000872:	4073      	eors	r3, r6
 8000874:	4e24      	ldr	r6, [pc, #144]	@ (8000908 <ASPEP_TXframeProcess+0xc4>)
 8000876:	5cf3      	ldrb	r3, [r6, r3]
 8000878:	071b      	lsls	r3, r3, #28
 800087a:	432b      	orrs	r3, r5
 800087c:	600b      	str	r3, [r1, #0]
 800087e:	b672      	cpsid	i
 8000880:	6ca3      	ldr	r3, [r4, #72]	@ 0x48
 8000882:	2b00      	cmp	r3, #0
 8000884:	d116      	bne.n	80008b4 <ASPEP_TXframeProcess+0x70>
 8000886:	2503      	movs	r5, #3
 8000888:	2809      	cmp	r0, #9
 800088a:	d108      	bne.n	800089e <ASPEP_TXframeProcess+0x5a>
 800088c:	6c23      	ldr	r3, [r4, #64]	@ 0x40
 800088e:	719d      	strb	r5, [r3, #6]
 8000890:	64a3      	str	r3, [r4, #72]	@ 0x48
 8000892:	b662      	cpsie	i
 8000894:	6da3      	ldr	r3, [r4, #88]	@ 0x58
 8000896:	6960      	ldr	r0, [r4, #20]
 8000898:	4798      	blx	r3
 800089a:	2000      	movs	r0, #0
 800089c:	e01a      	b.n	80008d4 <ASPEP_TXframeProcess+0x90>
 800089e:	280a      	cmp	r0, #10
 80008a0:	d104      	bne.n	80008ac <ASPEP_TXframeProcess+0x68>
 80008a2:	0023      	movs	r3, r4
 80008a4:	332e      	adds	r3, #46	@ 0x2e
 80008a6:	701d      	strb	r5, [r3, #0]
 80008a8:	3b06      	subs	r3, #6
 80008aa:	e7f1      	b.n	8000890 <ASPEP_TXframeProcess+0x4c>
 80008ac:	1d63      	adds	r3, r4, #5
 80008ae:	77dd      	strb	r5, [r3, #31]
 80008b0:	331b      	adds	r3, #27
 80008b2:	e7ed      	b.n	8000890 <ASPEP_TXframeProcess+0x4c>
 80008b4:	b662      	cpsie	i
 80008b6:	2809      	cmp	r0, #9
 80008b8:	d10d      	bne.n	80008d6 <ASPEP_TXframeProcess+0x92>
 80008ba:	6c23      	ldr	r3, [r4, #64]	@ 0x40
 80008bc:	3806      	subs	r0, #6
 80008be:	681d      	ldr	r5, [r3, #0]
 80008c0:	428d      	cmp	r5, r1
 80008c2:	d100      	bne.n	80008c6 <ASPEP_TXframeProcess+0x82>
 80008c4:	2000      	movs	r0, #0
 80008c6:	6c61      	ldr	r1, [r4, #68]	@ 0x44
 80008c8:	2900      	cmp	r1, #0
 80008ca:	d100      	bne.n	80008ce <ASPEP_TXframeProcess+0x8a>
 80008cc:	6463      	str	r3, [r4, #68]	@ 0x44
 80008ce:	2102      	movs	r1, #2
 80008d0:	809a      	strh	r2, [r3, #4]
 80008d2:	7199      	strb	r1, [r3, #6]
 80008d4:	bdf8      	pop	{r3, r4, r5, r6, r7, pc}
 80008d6:	280a      	cmp	r0, #10
 80008d8:	d109      	bne.n	80008ee <ASPEP_TXframeProcess+0xaa>
 80008da:	0023      	movs	r3, r4
 80008dc:	332e      	adds	r3, #46	@ 0x2e
 80008de:	7819      	ldrb	r1, [r3, #0]
 80008e0:	3807      	subs	r0, #7
 80008e2:	2901      	cmp	r1, #1
 80008e4:	d1f6      	bne.n	80008d4 <ASPEP_TXframeProcess+0x90>
 80008e6:	3101      	adds	r1, #1
 80008e8:	7019      	strb	r1, [r3, #0]
 80008ea:	85a2      	strh	r2, [r4, #44]	@ 0x2c
 80008ec:	e7d5      	b.n	800089a <ASPEP_TXframeProcess+0x56>
 80008ee:	2800      	cmp	r0, #0
 80008f0:	d1d3      	bne.n	800089a <ASPEP_TXframeProcess+0x56>
 80008f2:	3405      	adds	r4, #5
 80008f4:	7fe3      	ldrb	r3, [r4, #31]
 80008f6:	3003      	adds	r0, #3
 80008f8:	2b00      	cmp	r3, #0
 80008fa:	d1eb      	bne.n	80008d4 <ASPEP_TXframeProcess+0x90>
 80008fc:	3302      	adds	r3, #2
 80008fe:	77e3      	strb	r3, [r4, #31]
 8000900:	e7cb      	b.n	800089a <ASPEP_TXframeProcess+0x56>
 8000902:	46c0      	nop			@ (mov r8, r8)
 8000904:	08006600 	.word	0x08006600
 8000908:	080065f0 	.word	0x080065f0

0800090c <ASPEP_CheckBeacon.constprop.0>:
 800090c:	69c2      	ldr	r2, [r0, #28]
 800090e:	b5f0      	push	{r4, r5, r6, r7, lr}
 8000910:	4694      	mov	ip, r2
 8000912:	223f      	movs	r2, #63	@ 0x3f
 8000914:	7f41      	ldrb	r1, [r0, #29]
 8000916:	4665      	mov	r5, ip
 8000918:	4011      	ands	r1, r2
 800091a:	4662      	mov	r2, ip
 800091c:	7f04      	ldrb	r4, [r0, #28]
 800091e:	0003      	movs	r3, r0
 8000920:	207f      	movs	r0, #127	@ 0x7f
 8000922:	0b92      	lsrs	r2, r2, #14
 8000924:	0d6d      	lsrs	r5, r5, #21
 8000926:	4005      	ands	r5, r0
 8000928:	4002      	ands	r2, r0
 800092a:	0018      	movs	r0, r3
 800092c:	b087      	sub	sp, #28
 800092e:	9503      	str	r5, [sp, #12]
 8000930:	9202      	str	r2, [sp, #8]
 8000932:	306c      	adds	r0, #108	@ 0x6c
 8000934:	7807      	ldrb	r7, [r0, #0]
 8000936:	09e4      	lsrs	r4, r4, #7
 8000938:	1c25      	adds	r5, r4, #0
 800093a:	42bc      	cmp	r4, r7
 800093c:	d900      	bls.n	8000940 <ASPEP_CheckBeacon.constprop.0+0x34>
 800093e:	1c3d      	adds	r5, r7, #0
 8000940:	7005      	strb	r5, [r0, #0]
 8000942:	001d      	movs	r5, r3
 8000944:	356d      	adds	r5, #109	@ 0x6d
 8000946:	782e      	ldrb	r6, [r5, #0]
 8000948:	1c30      	adds	r0, r6, #0
 800094a:	428e      	cmp	r6, r1
 800094c:	d900      	bls.n	8000950 <ASPEP_CheckBeacon.constprop.0+0x44>
 800094e:	1c08      	adds	r0, r1, #0
 8000950:	b2c6      	uxtb	r6, r0
 8000952:	7028      	strb	r0, [r5, #0]
 8000954:	0018      	movs	r0, r3
 8000956:	aa02      	add	r2, sp, #8
 8000958:	9605      	str	r6, [sp, #20]
 800095a:	306e      	adds	r0, #110	@ 0x6e
 800095c:	7815      	ldrb	r5, [r2, #0]
 800095e:	7806      	ldrb	r6, [r0, #0]
 8000960:	9a02      	ldr	r2, [sp, #8]
 8000962:	42b2      	cmp	r2, r6
 8000964:	d900      	bls.n	8000968 <ASPEP_CheckBeacon.constprop.0+0x5c>
 8000966:	1c35      	adds	r5, r6, #0
 8000968:	7005      	strb	r5, [r0, #0]
 800096a:	0018      	movs	r0, r3
 800096c:	306f      	adds	r0, #111	@ 0x6f
 800096e:	9001      	str	r0, [sp, #4]
 8000970:	7805      	ldrb	r5, [r0, #0]
 8000972:	9803      	ldr	r0, [sp, #12]
 8000974:	aa02      	add	r2, sp, #8
 8000976:	72d0      	strb	r0, [r2, #11]
 8000978:	42a8      	cmp	r0, r5
 800097a:	d900      	bls.n	800097e <ASPEP_CheckBeacon.constprop.0+0x72>
 800097c:	72d5      	strb	r5, [r2, #11]
 800097e:	a802      	add	r0, sp, #8
 8000980:	7ac0      	ldrb	r0, [r0, #11]
 8000982:	9a01      	ldr	r2, [sp, #4]
 8000984:	7010      	strb	r0, [r2, #0]
 8000986:	2000      	movs	r0, #0
 8000988:	42bc      	cmp	r4, r7
 800098a:	d811      	bhi.n	80009b0 <ASPEP_CheckBeacon.constprop.0+0xa4>
 800098c:	9c05      	ldr	r4, [sp, #20]
 800098e:	42a1      	cmp	r1, r4
 8000990:	d80e      	bhi.n	80009b0 <ASPEP_CheckBeacon.constprop.0+0xa4>
 8000992:	9a02      	ldr	r2, [sp, #8]
 8000994:	42b2      	cmp	r2, r6
 8000996:	d80b      	bhi.n	80009b0 <ASPEP_CheckBeacon.constprop.0+0xa4>
 8000998:	9a03      	ldr	r2, [sp, #12]
 800099a:	42aa      	cmp	r2, r5
 800099c:	d808      	bhi.n	80009b0 <ASPEP_CheckBeacon.constprop.0+0xa4>
 800099e:	4662      	mov	r2, ip
 80009a0:	3370      	adds	r3, #112	@ 0x70
 80009a2:	7818      	ldrb	r0, [r3, #0]
 80009a4:	0652      	lsls	r2, r2, #25
 80009a6:	0f52      	lsrs	r2, r2, #29
 80009a8:	1a80      	subs	r0, r0, r2
 80009aa:	4243      	negs	r3, r0
 80009ac:	4158      	adcs	r0, r3
 80009ae:	b2c0      	uxtb	r0, r0
 80009b0:	b007      	add	sp, #28
 80009b2:	bdf0      	pop	{r4, r5, r6, r7, pc}

080009b4 <ASPEP_start>:
 80009b4:	b510      	push	{r4, lr}
 80009b6:	0004      	movs	r4, r0
 80009b8:	6cc3      	ldr	r3, [r0, #76]	@ 0x4c
 80009ba:	6940      	ldr	r0, [r0, #20]
 80009bc:	4798      	blx	r3
 80009be:	0022      	movs	r2, r4
 80009c0:	2300      	movs	r3, #0
 80009c2:	0021      	movs	r1, r4
 80009c4:	3264      	adds	r2, #100	@ 0x64
 80009c6:	8013      	strh	r3, [r2, #0]
 80009c8:	3a04      	subs	r2, #4
 80009ca:	7013      	strb	r3, [r2, #0]
 80009cc:	6d63      	ldr	r3, [r4, #84]	@ 0x54
 80009ce:	2204      	movs	r2, #4
 80009d0:	6960      	ldr	r0, [r4, #20]
 80009d2:	311c      	adds	r1, #28
 80009d4:	4798      	blx	r3
 80009d6:	bd10      	pop	{r4, pc}

080009d8 <ASPEP_sendBeacon>:
 80009d8:	b510      	push	{r4, lr}
 80009da:	790b      	ldrb	r3, [r1, #4]
 80009dc:	78ca      	ldrb	r2, [r1, #3]
 80009de:	011b      	lsls	r3, r3, #4
 80009e0:	0552      	lsls	r2, r2, #21
 80009e2:	4313      	orrs	r3, r2
 80009e4:	780a      	ldrb	r2, [r1, #0]
 80009e6:	01d2      	lsls	r2, r2, #7
 80009e8:	4313      	orrs	r3, r2
 80009ea:	784a      	ldrb	r2, [r1, #1]
 80009ec:	0212      	lsls	r2, r2, #8
 80009ee:	4313      	orrs	r3, r2
 80009f0:	788a      	ldrb	r2, [r1, #2]
 80009f2:	2100      	movs	r1, #0
 80009f4:	0392      	lsls	r2, r2, #14
 80009f6:	4313      	orrs	r3, r2
 80009f8:	2205      	movs	r2, #5
 80009fa:	4313      	orrs	r3, r2
 80009fc:	0002      	movs	r2, r0
 80009fe:	6203      	str	r3, [r0, #32]
 8000a00:	3220      	adds	r2, #32
 8000a02:	2304      	movs	r3, #4
 8000a04:	f7ff ff1e 	bl	8000844 <ASPEP_TXframeProcess>
 8000a08:	bd10      	pop	{r4, pc}

08000a0a <ASPEP_sendPing>:
 8000a0a:	0003      	movs	r3, r0
 8000a0c:	b570      	push	{r4, r5, r6, lr}
 8000a0e:	3360      	adds	r3, #96	@ 0x60
 8000a10:	781c      	ldrb	r4, [r3, #0]
 8000a12:	2301      	movs	r3, #1
 8000a14:	401c      	ands	r4, r3
 8000a16:	0003      	movs	r3, r0
 8000a18:	250f      	movs	r5, #15
 8000a1a:	3363      	adds	r3, #99	@ 0x63
 8000a1c:	781b      	ldrb	r3, [r3, #0]
 8000a1e:	0312      	lsls	r2, r2, #12
 8000a20:	402b      	ands	r3, r5
 8000a22:	021b      	lsls	r3, r3, #8
 8000a24:	4313      	orrs	r3, r2
 8000a26:	010a      	lsls	r2, r1, #4
 8000a28:	4313      	orrs	r3, r2
 8000a2a:	0149      	lsls	r1, r1, #5
 8000a2c:	01a2      	lsls	r2, r4, #6
 8000a2e:	430b      	orrs	r3, r1
 8000a30:	4313      	orrs	r3, r2
 8000a32:	2206      	movs	r2, #6
 8000a34:	01e4      	lsls	r4, r4, #7
 8000a36:	4323      	orrs	r3, r4
 8000a38:	4313      	orrs	r3, r2
 8000a3a:	0002      	movs	r2, r0
 8000a3c:	2100      	movs	r1, #0
 8000a3e:	6203      	str	r3, [r0, #32]
 8000a40:	3220      	adds	r2, #32
 8000a42:	2304      	movs	r3, #4
 8000a44:	f7ff fefe 	bl	8000844 <ASPEP_TXframeProcess>
 8000a48:	bd70      	pop	{r4, r5, r6, pc}

08000a4a <ASPEP_getBuffer>:
 8000a4a:	0003      	movs	r3, r0
 8000a4c:	b510      	push	{r4, lr}
 8000a4e:	2a0a      	cmp	r2, #10
 8000a50:	d10c      	bne.n	8000a6c <ASPEP_getBuffer+0x22>
 8000a52:	0002      	movs	r2, r0
 8000a54:	322e      	adds	r2, #46	@ 0x2e
 8000a56:	7814      	ldrb	r4, [r2, #0]
 8000a58:	2000      	movs	r0, #0
 8000a5a:	2c01      	cmp	r4, #1
 8000a5c:	d805      	bhi.n	8000a6a <ASPEP_getBuffer+0x20>
 8000a5e:	6a9b      	ldr	r3, [r3, #40]	@ 0x28
 8000a60:	3304      	adds	r3, #4
 8000a62:	600b      	str	r3, [r1, #0]
 8000a64:	2301      	movs	r3, #1
 8000a66:	7013      	strb	r3, [r2, #0]
 8000a68:	2001      	movs	r0, #1
 8000a6a:	bd10      	pop	{r4, pc}
 8000a6c:	0002      	movs	r2, r0
 8000a6e:	3236      	adds	r2, #54	@ 0x36
 8000a70:	7810      	ldrb	r0, [r2, #0]
 8000a72:	2801      	cmp	r0, #1
 8000a74:	d90b      	bls.n	8000a8e <ASPEP_getBuffer+0x44>
 8000a76:	7a14      	ldrb	r4, [r2, #8]
 8000a78:	3208      	adds	r2, #8
 8000a7a:	2000      	movs	r0, #0
 8000a7c:	2c01      	cmp	r4, #1
 8000a7e:	d8f4      	bhi.n	8000a6a <ASPEP_getBuffer+0x20>
 8000a80:	2001      	movs	r0, #1
 8000a82:	7010      	strb	r0, [r2, #0]
 8000a84:	001a      	movs	r2, r3
 8000a86:	3238      	adds	r2, #56	@ 0x38
 8000a88:	641a      	str	r2, [r3, #64]	@ 0x40
 8000a8a:	6b9b      	ldr	r3, [r3, #56]	@ 0x38
 8000a8c:	e005      	b.n	8000a9a <ASPEP_getBuffer+0x50>
 8000a8e:	2001      	movs	r0, #1
 8000a90:	7010      	strb	r0, [r2, #0]
 8000a92:	001a      	movs	r2, r3
 8000a94:	3230      	adds	r2, #48	@ 0x30
 8000a96:	641a      	str	r2, [r3, #64]	@ 0x40
 8000a98:	6b1b      	ldr	r3, [r3, #48]	@ 0x30
 8000a9a:	3304      	adds	r3, #4
 8000a9c:	600b      	str	r3, [r1, #0]
 8000a9e:	e7e3      	b.n	8000a68 <ASPEP_getBuffer+0x1e>

08000aa0 <ASPEP_sendPacket>:
 8000aa0:	b570      	push	{r4, r5, r6, lr}
 8000aa2:	000e      	movs	r6, r1
 8000aa4:	0019      	movs	r1, r3
 8000aa6:	0003      	movs	r3, r0
 8000aa8:	0005      	movs	r5, r0
 8000aaa:	2002      	movs	r0, #2
 8000aac:	3364      	adds	r3, #100	@ 0x64
 8000aae:	781b      	ldrb	r3, [r3, #0]
 8000ab0:	0014      	movs	r4, r2
 8000ab2:	4283      	cmp	r3, r0
 8000ab4:	d11c      	bne.n	8000af0 <ASPEP_sendPacket+0x50>
 8000ab6:	0123      	lsls	r3, r4, #4
 8000ab8:	430b      	orrs	r3, r1
 8000aba:	1f32      	subs	r2, r6, #4
 8000abc:	6013      	str	r3, [r2, #0]
 8000abe:	002b      	movs	r3, r5
 8000ac0:	336c      	adds	r3, #108	@ 0x6c
 8000ac2:	781b      	ldrb	r3, [r3, #0]
 8000ac4:	2b01      	cmp	r3, #1
 8000ac6:	d106      	bne.n	8000ad6 <ASPEP_sendPacket+0x36>
 8000ac8:	33c9      	adds	r3, #201	@ 0xc9
 8000aca:	5533      	strb	r3, [r6, r4]
 8000acc:	1936      	adds	r6, r6, r4
 8000ace:	3334      	adds	r3, #52	@ 0x34
 8000ad0:	1824      	adds	r4, r4, r0
 8000ad2:	7073      	strb	r3, [r6, #1]
 8000ad4:	b2a4      	uxth	r4, r4
 8000ad6:	290a      	cmp	r1, #10
 8000ad8:	d105      	bne.n	8000ae6 <ASPEP_sendPacket+0x46>
 8000ada:	7c2b      	ldrb	r3, [r5, #16]
 8000adc:	2001      	movs	r0, #1
 8000ade:	2b00      	cmp	r3, #0
 8000ae0:	d006      	beq.n	8000af0 <ASPEP_sendPacket+0x50>
 8000ae2:	2300      	movs	r3, #0
 8000ae4:	742b      	strb	r3, [r5, #16]
 8000ae6:	3404      	adds	r4, #4
 8000ae8:	0028      	movs	r0, r5
 8000aea:	b2a3      	uxth	r3, r4
 8000aec:	f7ff feaa 	bl	8000844 <ASPEP_TXframeProcess>
 8000af0:	bd70      	pop	{r4, r5, r6, pc}

08000af2 <ASPEP_HWDataTransmittedIT>:
 8000af2:	b570      	push	{r4, r5, r6, lr}
 8000af4:	1d45      	adds	r5, r0, #5
 8000af6:	7fea      	ldrb	r2, [r5, #31]
 8000af8:	0004      	movs	r4, r0
 8000afa:	2300      	movs	r3, #0
 8000afc:	2a03      	cmp	r2, #3
 8000afe:	d110      	bne.n	8000b22 <ASPEP_HWDataTransmittedIT+0x30>
 8000b00:	77eb      	strb	r3, [r5, #31]
 8000b02:	0026      	movs	r6, r4
 8000b04:	362e      	adds	r6, #46	@ 0x2e
 8000b06:	7833      	ldrb	r3, [r6, #0]
 8000b08:	2b02      	cmp	r3, #2
 8000b0a:	d10d      	bne.n	8000b28 <ASPEP_HWDataTransmittedIT+0x36>
 8000b0c:	0023      	movs	r3, r4
 8000b0e:	3328      	adds	r3, #40	@ 0x28
 8000b10:	64a3      	str	r3, [r4, #72]	@ 0x48
 8000b12:	8da2      	ldrh	r2, [r4, #44]	@ 0x2c
 8000b14:	6da3      	ldr	r3, [r4, #88]	@ 0x58
 8000b16:	6aa1      	ldr	r1, [r4, #40]	@ 0x28
 8000b18:	6960      	ldr	r0, [r4, #20]
 8000b1a:	4798      	blx	r3
 8000b1c:	2303      	movs	r3, #3
 8000b1e:	7033      	strb	r3, [r6, #0]
 8000b20:	bd70      	pop	{r4, r5, r6, pc}
 8000b22:	6c82      	ldr	r2, [r0, #72]	@ 0x48
 8000b24:	7193      	strb	r3, [r2, #6]
 8000b26:	e7ec      	b.n	8000b02 <ASPEP_HWDataTransmittedIT+0x10>
 8000b28:	7feb      	ldrb	r3, [r5, #31]
 8000b2a:	2b02      	cmp	r3, #2
 8000b2c:	d109      	bne.n	8000b42 <ASPEP_HWDataTransmittedIT+0x50>
 8000b2e:	0021      	movs	r1, r4
 8000b30:	3120      	adds	r1, #32
 8000b32:	6da3      	ldr	r3, [r4, #88]	@ 0x58
 8000b34:	2204      	movs	r2, #4
 8000b36:	6960      	ldr	r0, [r4, #20]
 8000b38:	64a1      	str	r1, [r4, #72]	@ 0x48
 8000b3a:	4798      	blx	r3
 8000b3c:	2303      	movs	r3, #3
 8000b3e:	77eb      	strb	r3, [r5, #31]
 8000b40:	e7ee      	b.n	8000b20 <ASPEP_HWDataTransmittedIT+0x2e>
 8000b42:	b672      	cpsid	i
 8000b44:	6c63      	ldr	r3, [r4, #68]	@ 0x44
 8000b46:	64a3      	str	r3, [r4, #72]	@ 0x48
 8000b48:	2b00      	cmp	r3, #0
 8000b4a:	d015      	beq.n	8000b78 <ASPEP_HWDataTransmittedIT+0x86>
 8000b4c:	2203      	movs	r2, #3
 8000b4e:	719a      	strb	r2, [r3, #6]
 8000b50:	6819      	ldr	r1, [r3, #0]
 8000b52:	889a      	ldrh	r2, [r3, #4]
 8000b54:	6da5      	ldr	r5, [r4, #88]	@ 0x58
 8000b56:	6960      	ldr	r0, [r4, #20]
 8000b58:	47a8      	blx	r5
 8000b5a:	0023      	movs	r3, r4
 8000b5c:	3336      	adds	r3, #54	@ 0x36
 8000b5e:	781b      	ldrb	r3, [r3, #0]
 8000b60:	2b02      	cmp	r3, #2
 8000b62:	d004      	beq.n	8000b6e <ASPEP_HWDataTransmittedIT+0x7c>
 8000b64:	0023      	movs	r3, r4
 8000b66:	333e      	adds	r3, #62	@ 0x3e
 8000b68:	781b      	ldrb	r3, [r3, #0]
 8000b6a:	2b02      	cmp	r3, #2
 8000b6c:	d106      	bne.n	8000b7c <ASPEP_HWDataTransmittedIT+0x8a>
 8000b6e:	6c62      	ldr	r2, [r4, #68]	@ 0x44
 8000b70:	0063      	lsls	r3, r4, #1
 8000b72:	3368      	adds	r3, #104	@ 0x68
 8000b74:	1a9b      	subs	r3, r3, r2
 8000b76:	6463      	str	r3, [r4, #68]	@ 0x44
 8000b78:	b662      	cpsie	i
 8000b7a:	e7d1      	b.n	8000b20 <ASPEP_HWDataTransmittedIT+0x2e>
 8000b7c:	2300      	movs	r3, #0
 8000b7e:	e7fa      	b.n	8000b76 <ASPEP_HWDataTransmittedIT+0x84>

08000b80 <ASPEP_RXframeProcess>:
 8000b80:	b570      	push	{r4, r5, r6, lr}
 8000b82:	0004      	movs	r4, r0
 8000b84:	0008      	movs	r0, r1
 8000b86:	0023      	movs	r3, r4
 8000b88:	2100      	movs	r1, #0
 8000b8a:	69e2      	ldr	r2, [r4, #28]
 8000b8c:	3361      	adds	r3, #97	@ 0x61
 8000b8e:	8001      	strh	r1, [r0, #0]
 8000b90:	781d      	ldrb	r5, [r3, #0]
 8000b92:	428d      	cmp	r5, r1
 8000b94:	d100      	bne.n	8000b98 <ASPEP_RXframeProcess+0x18>
 8000b96:	e06b      	b.n	8000c70 <ASPEP_RXframeProcess+0xf0>
 8000b98:	0025      	movs	r5, r4
 8000b9a:	7019      	strb	r1, [r3, #0]
 8000b9c:	3564      	adds	r5, #100	@ 0x64
 8000b9e:	7829      	ldrb	r1, [r5, #0]
 8000ba0:	2901      	cmp	r1, #1
 8000ba2:	d02e      	beq.n	8000c02 <ASPEP_RXframeProcess+0x82>
 8000ba4:	2902      	cmp	r1, #2
 8000ba6:	d048      	beq.n	8000c3a <ASPEP_RXframeProcess+0xba>
 8000ba8:	2900      	cmp	r1, #0
 8000baa:	d13d      	bne.n	8000c28 <ASPEP_RXframeProcess+0xa8>
 8000bac:	6ea3      	ldr	r3, [r4, #104]	@ 0x68
 8000bae:	2b05      	cmp	r3, #5
 8000bb0:	d11f      	bne.n	8000bf2 <ASPEP_RXframeProcess+0x72>
 8000bb2:	0020      	movs	r0, r4
 8000bb4:	f7ff feaa 	bl	800090c <ASPEP_CheckBeacon.constprop.0>
 8000bb8:	2800      	cmp	r0, #0
 8000bba:	d014      	beq.n	8000be6 <ASPEP_RXframeProcess+0x66>
 8000bbc:	0023      	movs	r3, r4
 8000bbe:	336e      	adds	r3, #110	@ 0x6e
 8000bc0:	781b      	ldrb	r3, [r3, #0]
 8000bc2:	0022      	movs	r2, r4
 8000bc4:	3301      	adds	r3, #1
 8000bc6:	015b      	lsls	r3, r3, #5
 8000bc8:	81a3      	strh	r3, [r4, #12]
 8000bca:	0023      	movs	r3, r4
 8000bcc:	336f      	adds	r3, #111	@ 0x6f
 8000bce:	781b      	ldrb	r3, [r3, #0]
 8000bd0:	325e      	adds	r2, #94	@ 0x5e
 8000bd2:	019b      	lsls	r3, r3, #6
 8000bd4:	81e3      	strh	r3, [r4, #14]
 8000bd6:	0023      	movs	r3, r4
 8000bd8:	336d      	adds	r3, #109	@ 0x6d
 8000bda:	781b      	ldrb	r3, [r3, #0]
 8000bdc:	3301      	adds	r3, #1
 8000bde:	015b      	lsls	r3, r3, #5
 8000be0:	8013      	strh	r3, [r2, #0]
 8000be2:	2301      	movs	r3, #1
 8000be4:	702b      	strb	r3, [r5, #0]
 8000be6:	0021      	movs	r1, r4
 8000be8:	0020      	movs	r0, r4
 8000bea:	316c      	adds	r1, #108	@ 0x6c
 8000bec:	f7ff fef4 	bl	80009d8 <ASPEP_sendBeacon>
 8000bf0:	e01a      	b.n	8000c28 <ASPEP_RXframeProcess+0xa8>
 8000bf2:	2b06      	cmp	r3, #6
 8000bf4:	d118      	bne.n	8000c28 <ASPEP_RXframeProcess+0xa8>
 8000bf6:	0b12      	lsrs	r2, r2, #12
 8000bf8:	b292      	uxth	r2, r2
 8000bfa:	0020      	movs	r0, r4
 8000bfc:	f7ff ff05 	bl	8000a0a <ASPEP_sendPing>
 8000c00:	e012      	b.n	8000c28 <ASPEP_RXframeProcess+0xa8>
 8000c02:	6ea3      	ldr	r3, [r4, #104]	@ 0x68
 8000c04:	2b05      	cmp	r3, #5
 8000c06:	d106      	bne.n	8000c16 <ASPEP_RXframeProcess+0x96>
 8000c08:	0020      	movs	r0, r4
 8000c0a:	f7ff fe7f 	bl	800090c <ASPEP_CheckBeacon.constprop.0>
 8000c0e:	2800      	cmp	r0, #0
 8000c10:	d1e9      	bne.n	8000be6 <ASPEP_RXframeProcess+0x66>
 8000c12:	7028      	strb	r0, [r5, #0]
 8000c14:	e7e7      	b.n	8000be6 <ASPEP_RXframeProcess+0x66>
 8000c16:	2b06      	cmp	r3, #6
 8000c18:	d106      	bne.n	8000c28 <ASPEP_RXframeProcess+0xa8>
 8000c1a:	0b12      	lsrs	r2, r2, #12
 8000c1c:	0020      	movs	r0, r4
 8000c1e:	b292      	uxth	r2, r2
 8000c20:	f7ff fef3 	bl	8000a0a <ASPEP_sendPing>
 8000c24:	2302      	movs	r3, #2
 8000c26:	702b      	strb	r3, [r5, #0]
 8000c28:	2500      	movs	r5, #0
 8000c2a:	0021      	movs	r1, r4
 8000c2c:	2204      	movs	r2, #4
 8000c2e:	6d63      	ldr	r3, [r4, #84]	@ 0x54
 8000c30:	6960      	ldr	r0, [r4, #20]
 8000c32:	311c      	adds	r1, #28
 8000c34:	4798      	blx	r3
 8000c36:	0028      	movs	r0, r5
 8000c38:	bd70      	pop	{r4, r5, r6, pc}
 8000c3a:	6ea3      	ldr	r3, [r4, #104]	@ 0x68
 8000c3c:	2b05      	cmp	r3, #5
 8000c3e:	d103      	bne.n	8000c48 <ASPEP_RXframeProcess+0xc8>
 8000c40:	0020      	movs	r0, r4
 8000c42:	f7ff fe63 	bl	800090c <ASPEP_CheckBeacon.constprop.0>
 8000c46:	e7e4      	b.n	8000c12 <ASPEP_RXframeProcess+0x92>
 8000c48:	2b06      	cmp	r3, #6
 8000c4a:	d102      	bne.n	8000c52 <ASPEP_RXframeProcess+0xd2>
 8000c4c:	2101      	movs	r1, #1
 8000c4e:	7f62      	ldrb	r2, [r4, #29]
 8000c50:	e7d3      	b.n	8000bfa <ASPEP_RXframeProcess+0x7a>
 8000c52:	2b09      	cmp	r3, #9
 8000c54:	d1e8      	bne.n	8000c28 <ASPEP_RXframeProcess+0xa8>
 8000c56:	0022      	movs	r2, r4
 8000c58:	3260      	adds	r2, #96	@ 0x60
 8000c5a:	7813      	ldrb	r3, [r2, #0]
 8000c5c:	3301      	adds	r3, #1
 8000c5e:	7013      	strb	r3, [r2, #0]
 8000c60:	2301      	movs	r3, #1
 8000c62:	7423      	strb	r3, [r4, #16]
 8000c64:	0023      	movs	r3, r4
 8000c66:	335c      	adds	r3, #92	@ 0x5c
 8000c68:	881b      	ldrh	r3, [r3, #0]
 8000c6a:	69a5      	ldr	r5, [r4, #24]
 8000c6c:	8003      	strh	r3, [r0, #0]
 8000c6e:	e7dc      	b.n	8000c2a <ASPEP_RXframeProcess+0xaa>
 8000c70:	0026      	movs	r6, r4
 8000c72:	3662      	adds	r6, #98	@ 0x62
 8000c74:	7832      	ldrb	r2, [r6, #0]
 8000c76:	2a00      	cmp	r2, #0
 8000c78:	d010      	beq.n	8000c9c <ASPEP_RXframeProcess+0x11c>
 8000c7a:	0213      	lsls	r3, r2, #8
 8000c7c:	189b      	adds	r3, r3, r2
 8000c7e:	220f      	movs	r2, #15
 8000c80:	021b      	lsls	r3, r3, #8
 8000c82:	4313      	orrs	r3, r2
 8000c84:	0022      	movs	r2, r4
 8000c86:	6223      	str	r3, [r4, #32]
 8000c88:	0029      	movs	r1, r5
 8000c8a:	2304      	movs	r3, #4
 8000c8c:	0020      	movs	r0, r4
 8000c8e:	3220      	adds	r2, #32
 8000c90:	f7ff fdd8 	bl	8000844 <ASPEP_TXframeProcess>
 8000c94:	7035      	strb	r5, [r6, #0]
 8000c96:	6d23      	ldr	r3, [r4, #80]	@ 0x50
 8000c98:	6960      	ldr	r0, [r4, #20]
 8000c9a:	4798      	blx	r3
 8000c9c:	2500      	movs	r5, #0
 8000c9e:	e7ca      	b.n	8000c36 <ASPEP_RXframeProcess+0xb6>

08000ca0 <ASPEP_HWDataReceivedIT>:
 8000ca0:	b570      	push	{r4, r5, r6, lr}
 8000ca2:	0004      	movs	r4, r0
 8000ca4:	3465      	adds	r4, #101	@ 0x65
 8000ca6:	7823      	ldrb	r3, [r4, #0]
 8000ca8:	2b00      	cmp	r3, #0
 8000caa:	d002      	beq.n	8000cb2 <ASPEP_HWDataReceivedIT+0x12>
 8000cac:	2b01      	cmp	r3, #1
 8000cae:	d03e      	beq.n	8000d2e <ASPEP_HWDataReceivedIT+0x8e>
 8000cb0:	bd70      	pop	{r4, r5, r6, pc}
 8000cb2:	69c2      	ldr	r2, [r0, #28]
 8000cb4:	4b20      	ldr	r3, [pc, #128]	@ (8000d38 <ASPEP_HWDataReceivedIT+0x98>)
 8000cb6:	b2d1      	uxtb	r1, r2
 8000cb8:	5c59      	ldrb	r1, [r3, r1]
 8000cba:	0a15      	lsrs	r5, r2, #8
 8000cbc:	4069      	eors	r1, r5
 8000cbe:	b2c9      	uxtb	r1, r1
 8000cc0:	5c59      	ldrb	r1, [r3, r1]
 8000cc2:	0c15      	lsrs	r5, r2, #16
 8000cc4:	4069      	eors	r1, r5
 8000cc6:	b2c9      	uxtb	r1, r1
 8000cc8:	5c59      	ldrb	r1, [r3, r1]
 8000cca:	0e12      	lsrs	r2, r2, #24
 8000ccc:	404a      	eors	r2, r1
 8000cce:	5c9b      	ldrb	r3, [r3, r2]
 8000cd0:	2b00      	cmp	r3, #0
 8000cd2:	d129      	bne.n	8000d28 <ASPEP_HWDataReceivedIT+0x88>
 8000cd4:	220f      	movs	r2, #15
 8000cd6:	7f03      	ldrb	r3, [r0, #28]
 8000cd8:	4013      	ands	r3, r2
 8000cda:	6683      	str	r3, [r0, #104]	@ 0x68
 8000cdc:	2b06      	cmp	r3, #6
 8000cde:	d804      	bhi.n	8000cea <ASPEP_HWDataReceivedIT+0x4a>
 8000ce0:	2b04      	cmp	r3, #4
 8000ce2:	d91f      	bls.n	8000d24 <ASPEP_HWDataReceivedIT+0x84>
 8000ce4:	3061      	adds	r0, #97	@ 0x61
 8000ce6:	2301      	movs	r3, #1
 8000ce8:	e01a      	b.n	8000d20 <ASPEP_HWDataReceivedIT+0x80>
 8000cea:	2b09      	cmp	r3, #9
 8000cec:	d11a      	bne.n	8000d24 <ASPEP_HWDataReceivedIT+0x84>
 8000cee:	0003      	movs	r3, r0
 8000cf0:	8b82      	ldrh	r2, [r0, #28]
 8000cf2:	335c      	adds	r3, #92	@ 0x5c
 8000cf4:	0912      	lsrs	r2, r2, #4
 8000cf6:	801a      	strh	r2, [r3, #0]
 8000cf8:	d0f4      	beq.n	8000ce4 <ASPEP_HWDataReceivedIT+0x44>
 8000cfa:	0003      	movs	r3, r0
 8000cfc:	335e      	adds	r3, #94	@ 0x5e
 8000cfe:	881b      	ldrh	r3, [r3, #0]
 8000d00:	4293      	cmp	r3, r2
 8000d02:	d30b      	bcc.n	8000d1c <ASPEP_HWDataReceivedIT+0x7c>
 8000d04:	0003      	movs	r3, r0
 8000d06:	336c      	adds	r3, #108	@ 0x6c
 8000d08:	781b      	ldrb	r3, [r3, #0]
 8000d0a:	6981      	ldr	r1, [r0, #24]
 8000d0c:	005b      	lsls	r3, r3, #1
 8000d0e:	18d2      	adds	r2, r2, r3
 8000d10:	6d43      	ldr	r3, [r0, #84]	@ 0x54
 8000d12:	6940      	ldr	r0, [r0, #20]
 8000d14:	4798      	blx	r3
 8000d16:	2301      	movs	r3, #1
 8000d18:	7023      	strb	r3, [r4, #0]
 8000d1a:	e7c9      	b.n	8000cb0 <ASPEP_HWDataReceivedIT+0x10>
 8000d1c:	2302      	movs	r3, #2
 8000d1e:	3062      	adds	r0, #98	@ 0x62
 8000d20:	7003      	strb	r3, [r0, #0]
 8000d22:	e7c5      	b.n	8000cb0 <ASPEP_HWDataReceivedIT+0x10>
 8000d24:	3062      	adds	r0, #98	@ 0x62
 8000d26:	e7de      	b.n	8000ce6 <ASPEP_HWDataReceivedIT+0x46>
 8000d28:	2304      	movs	r3, #4
 8000d2a:	3062      	adds	r0, #98	@ 0x62
 8000d2c:	e7f8      	b.n	8000d20 <ASPEP_HWDataReceivedIT+0x80>
 8000d2e:	2200      	movs	r2, #0
 8000d30:	3061      	adds	r0, #97	@ 0x61
 8000d32:	7022      	strb	r2, [r4, #0]
 8000d34:	e7f4      	b.n	8000d20 <ASPEP_HWDataReceivedIT+0x80>
 8000d36:	46c0      	nop			@ (mov r8, r8)
 8000d38:	08006600 	.word	0x08006600

08000d3c <ASPEP_HWDMAReset>:
 8000d3c:	0003      	movs	r3, r0
 8000d3e:	2200      	movs	r2, #0
 8000d40:	0001      	movs	r1, r0
 8000d42:	b510      	push	{r4, lr}
 8000d44:	3365      	adds	r3, #101	@ 0x65
 8000d46:	701a      	strb	r2, [r3, #0]
 8000d48:	6d43      	ldr	r3, [r0, #84]	@ 0x54
 8000d4a:	311c      	adds	r1, #28
 8000d4c:	6940      	ldr	r0, [r0, #20]
 8000d4e:	3204      	adds	r2, #4
 8000d50:	4798      	blx	r3
 8000d52:	bd10      	pop	{r4, pc}

08000d54 <SystemClock_Config>:
 8000d54:	b530      	push	{r4, r5, lr}
 8000d56:	2510      	movs	r5, #16
 8000d58:	b095      	sub	sp, #84	@ 0x54
 8000d5a:	2228      	movs	r2, #40	@ 0x28
 8000d5c:	2100      	movs	r1, #0
 8000d5e:	a80a      	add	r0, sp, #40	@ 0x28
 8000d60:	f005 fc03 	bl	800656a <memset>
 8000d64:	002a      	movs	r2, r5
 8000d66:	2100      	movs	r1, #0
 8000d68:	4668      	mov	r0, sp
 8000d6a:	f005 fbfe 	bl	800656a <memset>
 8000d6e:	002a      	movs	r2, r5
 8000d70:	2100      	movs	r1, #0
 8000d72:	a804      	add	r0, sp, #16
 8000d74:	f005 fbf9 	bl	800656a <memset>
 8000d78:	2311      	movs	r3, #17
 8000d7a:	9308      	str	r3, [sp, #32]
 8000d7c:	2380      	movs	r3, #128	@ 0x80
 8000d7e:	025b      	lsls	r3, r3, #9
 8000d80:	9311      	str	r3, [sp, #68]	@ 0x44
 8000d82:	2380      	movs	r3, #128	@ 0x80
 8000d84:	2401      	movs	r4, #1
 8000d86:	950e      	str	r5, [sp, #56]	@ 0x38
 8000d88:	035b      	lsls	r3, r3, #13
 8000d8a:	3d0e      	subs	r5, #14
 8000d8c:	a808      	add	r0, sp, #32
 8000d8e:	9409      	str	r4, [sp, #36]	@ 0x24
 8000d90:	940d      	str	r4, [sp, #52]	@ 0x34
 8000d92:	9510      	str	r5, [sp, #64]	@ 0x40
 8000d94:	9312      	str	r3, [sp, #72]	@ 0x48
 8000d96:	f003 fec1 	bl	8004b1c <HAL_RCC_OscConfig>
 8000d9a:	2800      	cmp	r0, #0
 8000d9c:	d001      	beq.n	8000da2 <SystemClock_Config+0x4e>
 8000d9e:	b672      	cpsid	i
 8000da0:	e7fe      	b.n	8000da0 <SystemClock_Config+0x4c>
 8000da2:	2307      	movs	r3, #7
 8000da4:	9002      	str	r0, [sp, #8]
 8000da6:	9003      	str	r0, [sp, #12]
 8000da8:	0021      	movs	r1, r4
 8000daa:	4668      	mov	r0, sp
 8000dac:	9300      	str	r3, [sp, #0]
 8000dae:	9501      	str	r5, [sp, #4]
 8000db0:	f004 f8e2 	bl	8004f78 <HAL_RCC_ClockConfig>
 8000db4:	2800      	cmp	r0, #0
 8000db6:	d001      	beq.n	8000dbc <SystemClock_Config+0x68>
 8000db8:	b672      	cpsid	i
 8000dba:	e7fe      	b.n	8000dba <SystemClock_Config+0x66>
 8000dbc:	9006      	str	r0, [sp, #24]
 8000dbe:	a804      	add	r0, sp, #16
 8000dc0:	9404      	str	r4, [sp, #16]
 8000dc2:	f004 f973 	bl	80050ac <HAL_RCCEx_PeriphCLKConfig>
 8000dc6:	2800      	cmp	r0, #0
 8000dc8:	d001      	beq.n	8000dce <SystemClock_Config+0x7a>
 8000dca:	b672      	cpsid	i
 8000dcc:	e7fe      	b.n	8000dcc <SystemClock_Config+0x78>
 8000dce:	f004 f8a3 	bl	8004f18 <HAL_RCC_EnableCSS>
 8000dd2:	b015      	add	sp, #84	@ 0x54
 8000dd4:	bd30      	pop	{r4, r5, pc}
	...

08000dd8 <main>:
 8000dd8:	b5f0      	push	{r4, r5, r6, r7, lr}
 8000dda:	b099      	sub	sp, #100	@ 0x64
 8000ddc:	f003 fc16 	bl	800460c <HAL_Init>
 8000de0:	f7ff ffb8 	bl	8000d54 <SystemClock_Config>
 8000de4:	2214      	movs	r2, #20
 8000de6:	2100      	movs	r1, #0
 8000de8:	a80f      	add	r0, sp, #60	@ 0x3c
 8000dea:	f005 fbbe 	bl	800656a <memset>
 8000dee:	2280      	movs	r2, #128	@ 0x80
 8000df0:	4cbe      	ldr	r4, [pc, #760]	@ (80010ec <main+0x314>)
 8000df2:	0312      	lsls	r2, r2, #12
 8000df4:	6963      	ldr	r3, [r4, #20]
 8000df6:	2780      	movs	r7, #128	@ 0x80
 8000df8:	4313      	orrs	r3, r2
 8000dfa:	6163      	str	r3, [r4, #20]
 8000dfc:	6963      	ldr	r3, [r4, #20]
 8000dfe:	2090      	movs	r0, #144	@ 0x90
 8000e00:	4013      	ands	r3, r2
 8000e02:	2280      	movs	r2, #128	@ 0x80
 8000e04:	9302      	str	r3, [sp, #8]
 8000e06:	9b02      	ldr	r3, [sp, #8]
 8000e08:	6963      	ldr	r3, [r4, #20]
 8000e0a:	03d2      	lsls	r2, r2, #15
 8000e0c:	4313      	orrs	r3, r2
 8000e0e:	6163      	str	r3, [r4, #20]
 8000e10:	6963      	ldr	r3, [r4, #20]
 8000e12:	013f      	lsls	r7, r7, #4
 8000e14:	4013      	ands	r3, r2
 8000e16:	2280      	movs	r2, #128	@ 0x80
 8000e18:	9303      	str	r3, [sp, #12]
 8000e1a:	9b03      	ldr	r3, [sp, #12]
 8000e1c:	6963      	ldr	r3, [r4, #20]
 8000e1e:	0292      	lsls	r2, r2, #10
 8000e20:	4313      	orrs	r3, r2
 8000e22:	6163      	str	r3, [r4, #20]
 8000e24:	6963      	ldr	r3, [r4, #20]
 8000e26:	0039      	movs	r1, r7
 8000e28:	4013      	ands	r3, r2
 8000e2a:	2280      	movs	r2, #128	@ 0x80
 8000e2c:	9304      	str	r3, [sp, #16]
 8000e2e:	9b04      	ldr	r3, [sp, #16]
 8000e30:	6963      	ldr	r3, [r4, #20]
 8000e32:	02d2      	lsls	r2, r2, #11
 8000e34:	4313      	orrs	r3, r2
 8000e36:	6163      	str	r3, [r4, #20]
 8000e38:	6963      	ldr	r3, [r4, #20]
 8000e3a:	05c0      	lsls	r0, r0, #23
 8000e3c:	4013      	ands	r3, r2
 8000e3e:	9305      	str	r3, [sp, #20]
 8000e40:	2201      	movs	r2, #1
 8000e42:	9b05      	ldr	r3, [sp, #20]
 8000e44:	f003 fe64 	bl	8004b10 <HAL_GPIO_WritePin>
 8000e48:	2380      	movs	r3, #128	@ 0x80
 8000e4a:	021b      	lsls	r3, r3, #8
 8000e4c:	930f      	str	r3, [sp, #60]	@ 0x3c
 8000e4e:	2384      	movs	r3, #132	@ 0x84
 8000e50:	2501      	movs	r5, #1
 8000e52:	039b      	lsls	r3, r3, #14
 8000e54:	48a6      	ldr	r0, [pc, #664]	@ (80010f0 <main+0x318>)
 8000e56:	a90f      	add	r1, sp, #60	@ 0x3c
 8000e58:	9310      	str	r3, [sp, #64]	@ 0x40
 8000e5a:	9511      	str	r5, [sp, #68]	@ 0x44
 8000e5c:	f003 fda6 	bl	80049ac <HAL_GPIO_Init>
 8000e60:	2090      	movs	r0, #144	@ 0x90
 8000e62:	2600      	movs	r6, #0
 8000e64:	2302      	movs	r3, #2
 8000e66:	a90f      	add	r1, sp, #60	@ 0x3c
 8000e68:	05c0      	lsls	r0, r0, #23
 8000e6a:	9311      	str	r3, [sp, #68]	@ 0x44
 8000e6c:	970f      	str	r7, [sp, #60]	@ 0x3c
 8000e6e:	9510      	str	r5, [sp, #64]	@ 0x40
 8000e70:	9612      	str	r6, [sp, #72]	@ 0x48
 8000e72:	f003 fd9b 	bl	80049ac <HAL_GPIO_Init>
 8000e76:	6963      	ldr	r3, [r4, #20]
 8000e78:	220c      	movs	r2, #12
 8000e7a:	432b      	orrs	r3, r5
 8000e7c:	6163      	str	r3, [r4, #20]
 8000e7e:	6963      	ldr	r3, [r4, #20]
 8000e80:	0031      	movs	r1, r6
 8000e82:	402b      	ands	r3, r5
 8000e84:	9301      	str	r3, [sp, #4]
 8000e86:	a80f      	add	r0, sp, #60	@ 0x3c
 8000e88:	9b01      	ldr	r3, [sp, #4]
 8000e8a:	f005 fb6e 	bl	800656a <memset>
 8000e8e:	4c99      	ldr	r4, [pc, #612]	@ (80010f4 <main+0x31c>)
 8000e90:	4b99      	ldr	r3, [pc, #612]	@ (80010f8 <main+0x320>)
 8000e92:	0020      	movs	r0, r4
 8000e94:	6023      	str	r3, [r4, #0]
 8000e96:	2320      	movs	r3, #32
 8000e98:	60e3      	str	r3, [r4, #12]
 8000e9a:	3b1c      	subs	r3, #28
 8000e9c:	6163      	str	r3, [r4, #20]
 8000e9e:	2380      	movs	r3, #128	@ 0x80
 8000ea0:	00db      	lsls	r3, r3, #3
 8000ea2:	6223      	str	r3, [r4, #32]
 8000ea4:	1d63      	adds	r3, r4, #5
 8000ea6:	6066      	str	r6, [r4, #4]
 8000ea8:	60a6      	str	r6, [r4, #8]
 8000eaa:	6125      	str	r5, [r4, #16]
 8000eac:	61a6      	str	r6, [r4, #24]
 8000eae:	61e6      	str	r6, [r4, #28]
 8000eb0:	77dd      	strb	r5, [r3, #31]
 8000eb2:	62a5      	str	r5, [r4, #40]	@ 0x28
 8000eb4:	f003 fbcc 	bl	8004650 <HAL_ADC_Init>
 8000eb8:	42b0      	cmp	r0, r6
 8000eba:	d001      	beq.n	8000ec0 <main+0xe8>
 8000ebc:	b672      	cpsid	i
 8000ebe:	e7fe      	b.n	8000ebe <main+0xe6>
 8000ec0:	2305      	movs	r3, #5
 8000ec2:	930f      	str	r3, [sp, #60]	@ 0x3c
 8000ec4:	2380      	movs	r3, #128	@ 0x80
 8000ec6:	0020      	movs	r0, r4
 8000ec8:	015b      	lsls	r3, r3, #5
 8000eca:	a90f      	add	r1, sp, #60	@ 0x3c
 8000ecc:	9310      	str	r3, [sp, #64]	@ 0x40
 8000ece:	9511      	str	r5, [sp, #68]	@ 0x44
 8000ed0:	f003 fc60 	bl	8004794 <HAL_ADC_ConfigChannel>
 8000ed4:	2800      	cmp	r0, #0
 8000ed6:	d001      	beq.n	8000edc <main+0x104>
 8000ed8:	b672      	cpsid	i
 8000eda:	e7fe      	b.n	8000eda <main+0x102>
 8000edc:	2309      	movs	r3, #9
 8000ede:	0020      	movs	r0, r4
 8000ee0:	a90f      	add	r1, sp, #60	@ 0x3c
 8000ee2:	930f      	str	r3, [sp, #60]	@ 0x3c
 8000ee4:	f003 fc56 	bl	8004794 <HAL_ADC_ConfigChannel>
 8000ee8:	1e06      	subs	r6, r0, #0
 8000eea:	d001      	beq.n	8000ef0 <main+0x118>
 8000eec:	b672      	cpsid	i
 8000eee:	e7fe      	b.n	8000eee <main+0x116>
 8000ef0:	0001      	movs	r1, r0
 8000ef2:	2208      	movs	r2, #8
 8000ef4:	a806      	add	r0, sp, #24
 8000ef6:	f005 fb38 	bl	800656a <memset>
 8000efa:	221c      	movs	r2, #28
 8000efc:	0031      	movs	r1, r6
 8000efe:	a808      	add	r0, sp, #32
 8000f00:	f005 fb33 	bl	800656a <memset>
 8000f04:	2220      	movs	r2, #32
 8000f06:	0031      	movs	r1, r6
 8000f08:	a80f      	add	r0, sp, #60	@ 0x3c
 8000f0a:	f005 fb2e 	bl	800656a <memset>
 8000f0e:	4c7b      	ldr	r4, [pc, #492]	@ (80010fc <main+0x324>)
 8000f10:	4b7b      	ldr	r3, [pc, #492]	@ (8001100 <main+0x328>)
 8000f12:	0020      	movs	r0, r4
 8000f14:	6023      	str	r3, [r4, #0]
 8000f16:	2340      	movs	r3, #64	@ 0x40
 8000f18:	60a3      	str	r3, [r4, #8]
 8000f1a:	23e5      	movs	r3, #229	@ 0xe5
 8000f1c:	00db      	lsls	r3, r3, #3
 8000f1e:	60e3      	str	r3, [r4, #12]
 8000f20:	2380      	movs	r3, #128	@ 0x80
 8000f22:	005b      	lsls	r3, r3, #1
 8000f24:	6066      	str	r6, [r4, #4]
 8000f26:	6123      	str	r3, [r4, #16]
 8000f28:	6165      	str	r5, [r4, #20]
 8000f2a:	61a6      	str	r6, [r4, #24]
 8000f2c:	f004 fa3c 	bl	80053a8 <HAL_TIM_PWM_Init>
 8000f30:	2800      	cmp	r0, #0
 8000f32:	d001      	beq.n	8000f38 <main+0x160>
 8000f34:	b672      	cpsid	i
 8000f36:	e7fe      	b.n	8000f36 <main+0x15e>
 8000f38:	2320      	movs	r3, #32
 8000f3a:	9007      	str	r0, [sp, #28]
 8000f3c:	a906      	add	r1, sp, #24
 8000f3e:	0020      	movs	r0, r4
 8000f40:	9306      	str	r3, [sp, #24]
 8000f42:	f004 fb4b 	bl	80055dc <HAL_TIMEx_MasterConfigSynchronization>
 8000f46:	1e02      	subs	r2, r0, #0
 8000f48:	d001      	beq.n	8000f4e <main+0x176>
 8000f4a:	b672      	cpsid	i
 8000f4c:	e7fe      	b.n	8000f4c <main+0x174>
 8000f4e:	2360      	movs	r3, #96	@ 0x60
 8000f50:	9308      	str	r3, [sp, #32]
 8000f52:	23e5      	movs	r3, #229	@ 0xe5
 8000f54:	009b      	lsls	r3, r3, #2
 8000f56:	9309      	str	r3, [sp, #36]	@ 0x24
 8000f58:	2302      	movs	r3, #2
 8000f5a:	930a      	str	r3, [sp, #40]	@ 0x28
 8000f5c:	3306      	adds	r3, #6
 8000f5e:	930b      	str	r3, [sp, #44]	@ 0x2c
 8000f60:	33f8      	adds	r3, #248	@ 0xf8
 8000f62:	930d      	str	r3, [sp, #52]	@ 0x34
 8000f64:	3301      	adds	r3, #1
 8000f66:	900c      	str	r0, [sp, #48]	@ 0x30
 8000f68:	33ff      	adds	r3, #255	@ 0xff
 8000f6a:	0020      	movs	r0, r4
 8000f6c:	a908      	add	r1, sp, #32
 8000f6e:	930e      	str	r3, [sp, #56]	@ 0x38
 8000f70:	f004 fad4 	bl	800551c <HAL_TIM_PWM_ConfigChannel>
 8000f74:	2800      	cmp	r0, #0
 8000f76:	d001      	beq.n	8000f7c <main+0x1a4>
 8000f78:	b672      	cpsid	i
 8000f7a:	e7fe      	b.n	8000f7a <main+0x1a2>
 8000f7c:	2204      	movs	r2, #4
 8000f7e:	0020      	movs	r0, r4
 8000f80:	a908      	add	r1, sp, #32
 8000f82:	f004 facb 	bl	800551c <HAL_TIM_PWM_ConfigChannel>
 8000f86:	2800      	cmp	r0, #0
 8000f88:	d001      	beq.n	8000f8e <main+0x1b6>
 8000f8a:	b672      	cpsid	i
 8000f8c:	e7fe      	b.n	8000f8c <main+0x1b4>
 8000f8e:	2208      	movs	r2, #8
 8000f90:	0020      	movs	r0, r4
 8000f92:	a908      	add	r1, sp, #32
 8000f94:	f004 fac2 	bl	800551c <HAL_TIM_PWM_ConfigChannel>
 8000f98:	2800      	cmp	r0, #0
 8000f9a:	d001      	beq.n	8000fa0 <main+0x1c8>
 8000f9c:	b672      	cpsid	i
 8000f9e:	e7fe      	b.n	8000f9e <main+0x1c6>
 8000fa0:	2370      	movs	r3, #112	@ 0x70
 8000fa2:	9308      	str	r3, [sp, #32]
 8000fa4:	4b57      	ldr	r3, [pc, #348]	@ (8001104 <main+0x32c>)
 8000fa6:	900a      	str	r0, [sp, #40]	@ 0x28
 8000fa8:	900d      	str	r0, [sp, #52]	@ 0x34
 8000faa:	900e      	str	r0, [sp, #56]	@ 0x38
 8000fac:	220c      	movs	r2, #12
 8000fae:	0020      	movs	r0, r4
 8000fb0:	a908      	add	r1, sp, #32
 8000fb2:	9309      	str	r3, [sp, #36]	@ 0x24
 8000fb4:	f004 fab2 	bl	800551c <HAL_TIM_PWM_ConfigChannel>
 8000fb8:	2800      	cmp	r0, #0
 8000fba:	d001      	beq.n	8000fc0 <main+0x1e8>
 8000fbc:	b672      	cpsid	i
 8000fbe:	e7fe      	b.n	8000fbe <main+0x1e6>
 8000fc0:	2380      	movs	r3, #128	@ 0x80
 8000fc2:	00db      	lsls	r3, r3, #3
 8000fc4:	9310      	str	r3, [sp, #64]	@ 0x40
 8000fc6:	230e      	movs	r3, #14
 8000fc8:	9312      	str	r3, [sp, #72]	@ 0x48
 8000fca:	2380      	movs	r3, #128	@ 0x80
 8000fcc:	9011      	str	r0, [sp, #68]	@ 0x44
 8000fce:	015b      	lsls	r3, r3, #5
 8000fd0:	9014      	str	r0, [sp, #80]	@ 0x50
 8000fd2:	9016      	str	r0, [sp, #88]	@ 0x58
 8000fd4:	a90f      	add	r1, sp, #60	@ 0x3c
 8000fd6:	0020      	movs	r0, r4
 8000fd8:	970f      	str	r7, [sp, #60]	@ 0x3c
 8000fda:	9313      	str	r3, [sp, #76]	@ 0x4c
 8000fdc:	f004 fb2a 	bl	8005634 <HAL_TIMEx_ConfigBreakDeadTime>
 8000fe0:	2800      	cmp	r0, #0
 8000fe2:	d001      	beq.n	8000fe8 <main+0x210>
 8000fe4:	b672      	cpsid	i
 8000fe6:	e7fe      	b.n	8000fe6 <main+0x20e>
 8000fe8:	2708      	movs	r7, #8
 8000fea:	0020      	movs	r0, r4
 8000fec:	f003 f8d2 	bl	8004194 <HAL_TIM_MspPostInit>
 8000ff0:	221c      	movs	r2, #28
 8000ff2:	2100      	movs	r1, #0
 8000ff4:	a810      	add	r0, sp, #64	@ 0x40
 8000ff6:	f005 fab8 	bl	800656a <memset>
 8000ffa:	003a      	movs	r2, r7
 8000ffc:	2100      	movs	r1, #0
 8000ffe:	a808      	add	r0, sp, #32
 8001000:	f005 fab3 	bl	800656a <memset>
 8001004:	2380      	movs	r3, #128	@ 0x80
 8001006:	4e40      	ldr	r6, [pc, #256]	@ (8001108 <main+0x330>)
 8001008:	05db      	lsls	r3, r3, #23
 800100a:	2501      	movs	r5, #1
 800100c:	2403      	movs	r4, #3
 800100e:	6033      	str	r3, [r6, #0]
 8001010:	2300      	movs	r3, #0
 8001012:	4a3e      	ldr	r2, [pc, #248]	@ (800110c <main+0x334>)
 8001014:	0030      	movs	r0, r6
 8001016:	a90f      	add	r1, sp, #60	@ 0x3c
 8001018:	6073      	str	r3, [r6, #4]
 800101a:	60b3      	str	r3, [r6, #8]
 800101c:	60f2      	str	r2, [r6, #12]
 800101e:	6133      	str	r3, [r6, #16]
 8001020:	61b3      	str	r3, [r6, #24]
 8001022:	940f      	str	r4, [sp, #60]	@ 0x3c
 8001024:	9511      	str	r5, [sp, #68]	@ 0x44
 8001026:	9713      	str	r7, [sp, #76]	@ 0x4c
 8001028:	9515      	str	r5, [sp, #84]	@ 0x54
 800102a:	9717      	str	r7, [sp, #92]	@ 0x5c
 800102c:	f004 f9e4 	bl	80053f8 <HAL_TIM_Encoder_Init>
 8001030:	2800      	cmp	r0, #0
 8001032:	d001      	beq.n	8001038 <main+0x260>
 8001034:	b672      	cpsid	i
 8001036:	e7fe      	b.n	8001036 <main+0x25e>
 8001038:	9008      	str	r0, [sp, #32]
 800103a:	9009      	str	r0, [sp, #36]	@ 0x24
 800103c:	a908      	add	r1, sp, #32
 800103e:	0030      	movs	r0, r6
 8001040:	f004 facc 	bl	80055dc <HAL_TIMEx_MasterConfigSynchronization>
 8001044:	1e03      	subs	r3, r0, #0
 8001046:	d001      	beq.n	800104c <main+0x274>
 8001048:	b672      	cpsid	i
 800104a:	e7fe      	b.n	800104a <main+0x272>
 800104c:	4830      	ldr	r0, [pc, #192]	@ (8001110 <main+0x338>)
 800104e:	4a31      	ldr	r2, [pc, #196]	@ (8001114 <main+0x33c>)
 8001050:	6083      	str	r3, [r0, #8]
 8001052:	6002      	str	r2, [r0, #0]
 8001054:	22e1      	movs	r2, #225	@ 0xe1
 8001056:	0352      	lsls	r2, r2, #13
 8001058:	6042      	str	r2, [r0, #4]
 800105a:	220c      	movs	r2, #12
 800105c:	60c3      	str	r3, [r0, #12]
 800105e:	6103      	str	r3, [r0, #16]
 8001060:	6142      	str	r2, [r0, #20]
 8001062:	6183      	str	r3, [r0, #24]
 8001064:	61c3      	str	r3, [r0, #28]
 8001066:	6203      	str	r3, [r0, #32]
 8001068:	6243      	str	r3, [r0, #36]	@ 0x24
 800106a:	f004 fcd9 	bl	8005a20 <HAL_UART_Init>
 800106e:	1e06      	subs	r6, r0, #0
 8001070:	d001      	beq.n	8001076 <main+0x29e>
 8001072:	b672      	cpsid	i
 8001074:	e7fe      	b.n	8001074 <main+0x29c>
 8001076:	f000 ffdb 	bl	8002030 <MX_MotorControl_Init>
 800107a:	0032      	movs	r2, r6
 800107c:	0021      	movs	r1, r4
 800107e:	201b      	movs	r0, #27
 8001080:	f003 fc0c 	bl	800489c <HAL_NVIC_SetPriority>
 8001084:	201b      	movs	r0, #27
 8001086:	f003 fc33 	bl	80048f0 <HAL_NVIC_EnableIRQ>
 800108a:	0032      	movs	r2, r6
 800108c:	0029      	movs	r1, r5
 800108e:	2009      	movs	r0, #9
 8001090:	f003 fc04 	bl	800489c <HAL_NVIC_SetPriority>
 8001094:	2009      	movs	r0, #9
 8001096:	f003 fc2b 	bl	80048f0 <HAL_NVIC_EnableIRQ>
 800109a:	0032      	movs	r2, r6
 800109c:	0031      	movs	r1, r6
 800109e:	200b      	movs	r0, #11
 80010a0:	f003 fbfc 	bl	800489c <HAL_NVIC_SetPriority>
 80010a4:	200b      	movs	r0, #11
 80010a6:	f003 fc23 	bl	80048f0 <HAL_NVIC_EnableIRQ>
 80010aa:	0032      	movs	r2, r6
 80010ac:	0021      	movs	r1, r4
 80010ae:	200a      	movs	r0, #10
 80010b0:	f003 fbf4 	bl	800489c <HAL_NVIC_SetPriority>
 80010b4:	200a      	movs	r0, #10
 80010b6:	f003 fc1b 	bl	80048f0 <HAL_NVIC_EnableIRQ>
 80010ba:	0032      	movs	r2, r6
 80010bc:	0031      	movs	r1, r6
 80010be:	200d      	movs	r0, #13
 80010c0:	f003 fbec 	bl	800489c <HAL_NVIC_SetPriority>
 80010c4:	200d      	movs	r0, #13
 80010c6:	f003 fc13 	bl	80048f0 <HAL_NVIC_EnableIRQ>
 80010ca:	0032      	movs	r2, r6
 80010cc:	0021      	movs	r1, r4
 80010ce:	200f      	movs	r0, #15
 80010d0:	f003 fbe4 	bl	800489c <HAL_NVIC_SetPriority>
 80010d4:	200f      	movs	r0, #15
 80010d6:	f003 fc0b 	bl	80048f0 <HAL_NVIC_EnableIRQ>
 80010da:	2007      	movs	r0, #7
 80010dc:	0032      	movs	r2, r6
 80010de:	0021      	movs	r1, r4
 80010e0:	f003 fbdc 	bl	800489c <HAL_NVIC_SetPriority>
 80010e4:	2007      	movs	r0, #7
 80010e6:	f003 fc03 	bl	80048f0 <HAL_NVIC_EnableIRQ>
 80010ea:	e7fe      	b.n	80010ea <main+0x312>
 80010ec:	40021000 	.word	0x40021000
 80010f0:	48000800 	.word	0x48000800
 80010f4:	2000065c 	.word	0x2000065c
 80010f8:	40012400 	.word	0x40012400
 80010fc:	200005d0 	.word	0x200005d0
 8001100:	40012c00 	.word	0x40012c00
 8001104:	000006ea 	.word	0x000006ea
 8001108:	20000588 	.word	0x20000588
 800110c:	00000fff 	.word	0x00000fff
 8001110:	20000478 	.word	0x20000478
 8001114:	40013800 	.word	0x40013800

08001118 <Error_Handler>:
 8001118:	b672      	cpsid	i
 800111a:	e7fe      	b.n	800111a <Error_Handler+0x2>

0800111c <MC_StartMotor1>:
 800111c:	b510      	push	{r4, lr}
 800111e:	4b02      	ldr	r3, [pc, #8]	@ (8001128 <MC_StartMotor1+0xc>)
 8001120:	6818      	ldr	r0, [r3, #0]
 8001122:	f000 f889 	bl	8001238 <MCI_StartMotor>
 8001126:	bd10      	pop	{r4, pc}
 8001128:	20000998 	.word	0x20000998

0800112c <MC_StopMotor1>:
 800112c:	b510      	push	{r4, lr}
 800112e:	4b02      	ldr	r3, [pc, #8]	@ (8001138 <MC_StopMotor1+0xc>)
 8001130:	6818      	ldr	r0, [r3, #0]
 8001132:	f000 f8b2 	bl	800129a <MCI_StopMotor>
 8001136:	bd10      	pop	{r4, pc}
 8001138:	20000998 	.word	0x20000998

0800113c <MC_GetSTMStateMotor1>:
 800113c:	b510      	push	{r4, lr}
 800113e:	4b02      	ldr	r3, [pc, #8]	@ (8001148 <MC_GetSTMStateMotor1+0xc>)
 8001140:	6818      	ldr	r0, [r3, #0]
 8001142:	f000 f873 	bl	800122c <MCI_GetSTMState>
 8001146:	bd10      	pop	{r4, pc}
 8001148:	20000998 	.word	0x20000998

0800114c <MC_ProfilerCommand>:
 800114c:	2002      	movs	r0, #2
 800114e:	4770      	bx	lr

08001150 <MC_APP_BootHook>:
 8001150:	4770      	bx	lr

08001152 <MC_APP_PostMediumFrequencyHook_M1>:
 8001152:	4770      	bx	lr

08001154 <MCI_Init>:
 8001154:	6083      	str	r3, [r0, #8]
 8001156:	2300      	movs	r3, #0
 8001158:	7303      	strb	r3, [r0, #12]
 800115a:	61c3      	str	r3, [r0, #28]
 800115c:	6001      	str	r1, [r0, #0]
 800115e:	6042      	str	r2, [r0, #4]
 8001160:	81c3      	strh	r3, [r0, #14]
 8001162:	8203      	strh	r3, [r0, #16]
 8001164:	6203      	str	r3, [r0, #32]
 8001166:	3005      	adds	r0, #5
 8001168:	77c3      	strb	r3, [r0, #31]
 800116a:	4770      	bx	lr

0800116c <MCI_ExecSpeedRamp>:
 800116c:	2301      	movs	r3, #1
 800116e:	7303      	strb	r3, [r0, #12]
 8001170:	4b02      	ldr	r3, [pc, #8]	@ (800117c <MCI_ExecSpeedRamp+0x10>)
 8001172:	81c1      	strh	r1, [r0, #14]
 8001174:	8382      	strh	r2, [r0, #28]
 8001176:	8483      	strh	r3, [r0, #36]	@ 0x24
 8001178:	4770      	bx	lr
 800117a:	46c0      	nop			@ (mov r8, r8)
 800117c:	00000301 	.word	0x00000301

08001180 <MCI_ExecTorqueRamp>:
 8001180:	2302      	movs	r3, #2
 8001182:	7303      	strb	r3, [r0, #12]
 8001184:	4b02      	ldr	r3, [pc, #8]	@ (8001190 <MCI_ExecTorqueRamp+0x10>)
 8001186:	8201      	strh	r1, [r0, #16]
 8001188:	8382      	strh	r2, [r0, #28]
 800118a:	8483      	strh	r3, [r0, #36]	@ 0x24
 800118c:	4770      	bx	lr
 800118e:	46c0      	nop			@ (mov r8, r8)
 8001190:	00000401 	.word	0x00000401

08001194 <MCI_SetCurrentReferences>:
 8001194:	2203      	movs	r2, #3
 8001196:	4b04      	ldr	r3, [pc, #16]	@ (80011a8 <MCI_SetCurrentReferences+0x14>)
 8001198:	b082      	sub	sp, #8
 800119a:	8241      	strh	r1, [r0, #18]
 800119c:	0c09      	lsrs	r1, r1, #16
 800119e:	7302      	strb	r2, [r0, #12]
 80011a0:	8281      	strh	r1, [r0, #20]
 80011a2:	8483      	strh	r3, [r0, #36]	@ 0x24
 80011a4:	b002      	add	sp, #8
 80011a6:	4770      	bx	lr
 80011a8:	00000401 	.word	0x00000401

080011ac <MCI_FaultProcessing>:
 80011ac:	8c03      	ldrh	r3, [r0, #32]
 80011ae:	430b      	orrs	r3, r1
 80011b0:	4393      	bics	r3, r2
 80011b2:	8403      	strh	r3, [r0, #32]
 80011b4:	8c43      	ldrh	r3, [r0, #34]	@ 0x22
 80011b6:	4319      	orrs	r1, r3
 80011b8:	8441      	strh	r1, [r0, #34]	@ 0x22
 80011ba:	4770      	bx	lr

080011bc <MCI_ExecBufferedCommands>:
 80011bc:	b570      	push	{r4, r5, r6, lr}
 80011be:	1d45      	adds	r5, r0, #5
 80011c0:	7fea      	ldrb	r2, [r5, #31]
 80011c2:	0004      	movs	r4, r0
 80011c4:	2a01      	cmp	r2, #1
 80011c6:	d118      	bne.n	80011fa <MCI_ExecBufferedCommands+0x3e>
 80011c8:	7b03      	ldrb	r3, [r0, #12]
 80011ca:	2b02      	cmp	r3, #2
 80011cc:	d016      	beq.n	80011fc <MCI_ExecBufferedCommands+0x40>
 80011ce:	2b03      	cmp	r3, #3
 80011d0:	d020      	beq.n	8001214 <MCI_ExecBufferedCommands+0x58>
 80011d2:	2b01      	cmp	r3, #1
 80011d4:	d128      	bne.n	8001228 <MCI_ExecBufferedCommands+0x6c>
 80011d6:	2200      	movs	r2, #0
 80011d8:	6843      	ldr	r3, [r0, #4]
 80011da:	2103      	movs	r1, #3
 80011dc:	3305      	adds	r3, #5
 80011de:	77da      	strb	r2, [r3, #31]
 80011e0:	6800      	ldr	r0, [r0, #0]
 80011e2:	f005 f8e8 	bl	80063b6 <STC_SetControlMode>
 80011e6:	8ba2      	ldrh	r2, [r4, #28]
 80011e8:	230e      	movs	r3, #14
 80011ea:	5ee1      	ldrsh	r1, [r4, r3]
 80011ec:	6820      	ldr	r0, [r4, #0]
 80011ee:	f005 f8e6 	bl	80063be <STC_ExecRamp>
 80011f2:	2800      	cmp	r0, #0
 80011f4:	d018      	beq.n	8001228 <MCI_ExecBufferedCommands+0x6c>
 80011f6:	2302      	movs	r3, #2
 80011f8:	77eb      	strb	r3, [r5, #31]
 80011fa:	bd70      	pop	{r4, r5, r6, pc}
 80011fc:	2200      	movs	r2, #0
 80011fe:	6843      	ldr	r3, [r0, #4]
 8001200:	2104      	movs	r1, #4
 8001202:	3305      	adds	r3, #5
 8001204:	77da      	strb	r2, [r3, #31]
 8001206:	6800      	ldr	r0, [r0, #0]
 8001208:	f005 f8d5 	bl	80063b6 <STC_SetControlMode>
 800120c:	8ba2      	ldrh	r2, [r4, #28]
 800120e:	2310      	movs	r3, #16
 8001210:	5ee1      	ldrsh	r1, [r4, r3]
 8001212:	e7eb      	b.n	80011ec <MCI_ExecBufferedCommands+0x30>
 8001214:	0021      	movs	r1, r4
 8001216:	6840      	ldr	r0, [r0, #4]
 8001218:	3112      	adds	r1, #18
 800121a:	1d43      	adds	r3, r0, #5
 800121c:	77da      	strb	r2, [r3, #31]
 800121e:	3010      	adds	r0, #16
 8001220:	2204      	movs	r2, #4
 8001222:	f005 f9cf 	bl	80065c4 <memcpy>
 8001226:	e7e6      	b.n	80011f6 <MCI_ExecBufferedCommands+0x3a>
 8001228:	2303      	movs	r3, #3
 800122a:	e7e5      	b.n	80011f8 <MCI_ExecBufferedCommands+0x3c>

0800122c <MCI_GetSTMState>:
 800122c:	7fc0      	ldrb	r0, [r0, #31]
 800122e:	4770      	bx	lr

08001230 <MCI_GetOccurredFaults>:
 8001230:	8c40      	ldrh	r0, [r0, #34]	@ 0x22
 8001232:	4770      	bx	lr

08001234 <MCI_GetCurrentFaults>:
 8001234:	8c00      	ldrh	r0, [r0, #32]
 8001236:	4770      	bx	lr

08001238 <MCI_StartMotor>:
 8001238:	b510      	push	{r4, lr}
 800123a:	0004      	movs	r4, r0
 800123c:	f7ff fff6 	bl	800122c <MCI_GetSTMState>
 8001240:	2800      	cmp	r0, #0
 8001242:	d001      	beq.n	8001248 <MCI_StartMotor+0x10>
 8001244:	2000      	movs	r0, #0
 8001246:	bd10      	pop	{r4, pc}
 8001248:	0020      	movs	r0, r4
 800124a:	f7ff fff1 	bl	8001230 <MCI_GetOccurredFaults>
 800124e:	2800      	cmp	r0, #0
 8001250:	d1f8      	bne.n	8001244 <MCI_StartMotor+0xc>
 8001252:	0020      	movs	r0, r4
 8001254:	f7ff ffee 	bl	8001234 <MCI_GetCurrentFaults>
 8001258:	2800      	cmp	r0, #0
 800125a:	d1f3      	bne.n	8001244 <MCI_StartMotor+0xc>
 800125c:	3001      	adds	r0, #1
 800125e:	77a0      	strb	r0, [r4, #30]
 8001260:	3405      	adds	r4, #5
 8001262:	77e0      	strb	r0, [r4, #31]
 8001264:	e7ef      	b.n	8001246 <MCI_StartMotor+0xe>

08001266 <MCI_StartWithPolarizationMotor>:
 8001266:	b510      	push	{r4, lr}
 8001268:	0004      	movs	r4, r0
 800126a:	f7ff ffdf 	bl	800122c <MCI_GetSTMState>
 800126e:	2800      	cmp	r0, #0
 8001270:	d001      	beq.n	8001276 <MCI_StartWithPolarizationMotor+0x10>
 8001272:	2001      	movs	r0, #1
 8001274:	bd10      	pop	{r4, pc}
 8001276:	0020      	movs	r0, r4
 8001278:	f7ff ffda 	bl	8001230 <MCI_GetOccurredFaults>
 800127c:	2800      	cmp	r0, #0
 800127e:	d1f8      	bne.n	8001272 <MCI_StartWithPolarizationMotor+0xc>
 8001280:	0020      	movs	r0, r4
 8001282:	f7ff ffd7 	bl	8001234 <MCI_GetCurrentFaults>
 8001286:	2800      	cmp	r0, #0
 8001288:	d1f3      	bne.n	8001272 <MCI_StartWithPolarizationMotor+0xc>
 800128a:	2301      	movs	r3, #1
 800128c:	1d62      	adds	r2, r4, #5
 800128e:	77a3      	strb	r3, [r4, #30]
 8001290:	77d3      	strb	r3, [r2, #31]
 8001292:	68a3      	ldr	r3, [r4, #8]
 8001294:	3381      	adds	r3, #129	@ 0x81
 8001296:	7018      	strb	r0, [r3, #0]
 8001298:	e7ec      	b.n	8001274 <MCI_StartWithPolarizationMotor+0xe>

0800129a <MCI_StopMotor>:
 800129a:	b570      	push	{r4, r5, r6, lr}
 800129c:	0004      	movs	r4, r0
 800129e:	2500      	movs	r5, #0
 80012a0:	f7ff ffc4 	bl	800122c <MCI_GetSTMState>
 80012a4:	42a8      	cmp	r0, r5
 80012a6:	d003      	beq.n	80012b0 <MCI_StopMotor+0x16>
 80012a8:	380c      	subs	r0, #12
 80012aa:	1e43      	subs	r3, r0, #1
 80012ac:	4198      	sbcs	r0, r3
 80012ae:	b2c5      	uxtb	r5, r0
 80012b0:	0020      	movs	r0, r4
 80012b2:	f7ff ffbd 	bl	8001230 <MCI_GetOccurredFaults>
 80012b6:	2800      	cmp	r0, #0
 80012b8:	d002      	beq.n	80012c0 <MCI_StopMotor+0x26>
 80012ba:	2500      	movs	r5, #0
 80012bc:	0028      	movs	r0, r5
 80012be:	bd70      	pop	{r4, r5, r6, pc}
 80012c0:	0020      	movs	r0, r4
 80012c2:	f7ff ffb7 	bl	8001234 <MCI_GetCurrentFaults>
 80012c6:	2800      	cmp	r0, #0
 80012c8:	d1f7      	bne.n	80012ba <MCI_StopMotor+0x20>
 80012ca:	2d00      	cmp	r5, #0
 80012cc:	d0f5      	beq.n	80012ba <MCI_StopMotor+0x20>
 80012ce:	2305      	movs	r3, #5
 80012d0:	77a3      	strb	r3, [r4, #30]
 80012d2:	e7f3      	b.n	80012bc <MCI_StopMotor+0x22>

080012d4 <MCI_FaultAcknowledged>:
 80012d4:	b510      	push	{r4, lr}
 80012d6:	0004      	movs	r4, r0
 80012d8:	f7ff ffa8 	bl	800122c <MCI_GetSTMState>
 80012dc:	280b      	cmp	r0, #11
 80012de:	d001      	beq.n	80012e4 <MCI_FaultAcknowledged+0x10>
 80012e0:	2000      	movs	r0, #0
 80012e2:	bd10      	pop	{r4, pc}
 80012e4:	0020      	movs	r0, r4
 80012e6:	f7ff ffa5 	bl	8001234 <MCI_GetCurrentFaults>
 80012ea:	2800      	cmp	r0, #0
 80012ec:	d1f8      	bne.n	80012e0 <MCI_FaultAcknowledged+0xc>
 80012ee:	2302      	movs	r3, #2
 80012f0:	8460      	strh	r0, [r4, #34]	@ 0x22
 80012f2:	77a3      	strb	r3, [r4, #30]
 80012f4:	3001      	adds	r0, #1
 80012f6:	e7f4      	b.n	80012e2 <MCI_FaultAcknowledged+0xe>

080012f8 <MCI_GetFaultState>:
 80012f8:	8c43      	ldrh	r3, [r0, #34]	@ 0x22
 80012fa:	8c00      	ldrh	r0, [r0, #32]
 80012fc:	0400      	lsls	r0, r0, #16
 80012fe:	4318      	orrs	r0, r3
 8001300:	4770      	bx	lr

08001302 <MCI_GetControlMode>:
 8001302:	3006      	adds	r0, #6
 8001304:	7fc0      	ldrb	r0, [r0, #31]
 8001306:	4770      	bx	lr

08001308 <MCI_GetLastRampFinalSpeed>:
 8001308:	230e      	movs	r3, #14
 800130a:	5ec0      	ldrsh	r0, [r0, r3]
 800130c:	4770      	bx	lr

0800130e <MCI_GetLastRampFinalTorque>:
 800130e:	2310      	movs	r3, #16
 8001310:	5ec0      	ldrsh	r0, [r0, r3]
 8001312:	4770      	bx	lr

08001314 <MCI_GetLastRampFinalDuration>:
 8001314:	8b80      	ldrh	r0, [r0, #28]
 8001316:	4770      	bx	lr

08001318 <MCI_StopRamp>:
 8001318:	b510      	push	{r4, lr}
 800131a:	6800      	ldr	r0, [r0, #0]
 800131c:	f005 f88c 	bl	8006438 <STC_StopRamp>
 8001320:	bd10      	pop	{r4, pc}

08001322 <MCI_GetAvrgMecSpeedUnit>:
 8001322:	b510      	push	{r4, lr}
 8001324:	6800      	ldr	r0, [r0, #0]
 8001326:	f005 f835 	bl	8006394 <STC_GetSpeedSensor>
 800132a:	f004 ffde 	bl	80062ea <SPD_GetAvrgMecSpeedUnit>
 800132e:	bd10      	pop	{r4, pc}

08001330 <MCI_GetMecSpeedRefUnit>:
 8001330:	b510      	push	{r4, lr}
 8001332:	6800      	ldr	r0, [r0, #0]
 8001334:	f005 f839 	bl	80063aa <STC_GetMecSpeedRefUnit>
 8001338:	bd10      	pop	{r4, pc}

0800133a <MCI_GetIab>:
 800133a:	b507      	push	{r0, r1, r2, lr}
 800133c:	2204      	movs	r2, #4
 800133e:	6841      	ldr	r1, [r0, #4]
 8001340:	a801      	add	r0, sp, #4
 8001342:	f005 f93f 	bl	80065c4 <memcpy>
 8001346:	466b      	mov	r3, sp
 8001348:	466a      	mov	r2, sp
 800134a:	88db      	ldrh	r3, [r3, #6]
 800134c:	8890      	ldrh	r0, [r2, #4]
 800134e:	041b      	lsls	r3, r3, #16
 8001350:	4318      	orrs	r0, r3
 8001352:	bd0e      	pop	{r1, r2, r3, pc}

08001354 <MCI_GetIalphabeta>:
 8001354:	b507      	push	{r0, r1, r2, lr}
 8001356:	6841      	ldr	r1, [r0, #4]
 8001358:	2204      	movs	r2, #4
 800135a:	3104      	adds	r1, #4
 800135c:	a801      	add	r0, sp, #4
 800135e:	f005 f931 	bl	80065c4 <memcpy>
 8001362:	466b      	mov	r3, sp
 8001364:	466a      	mov	r2, sp
 8001366:	88db      	ldrh	r3, [r3, #6]
 8001368:	8890      	ldrh	r0, [r2, #4]
 800136a:	041b      	lsls	r3, r3, #16
 800136c:	4318      	orrs	r0, r3
 800136e:	bd0e      	pop	{r1, r2, r3, pc}

08001370 <MCI_GetIqd>:
 8001370:	b507      	push	{r0, r1, r2, lr}
 8001372:	6841      	ldr	r1, [r0, #4]
 8001374:	2204      	movs	r2, #4
 8001376:	310c      	adds	r1, #12
 8001378:	a801      	add	r0, sp, #4
 800137a:	f005 f923 	bl	80065c4 <memcpy>
 800137e:	466b      	mov	r3, sp
 8001380:	466a      	mov	r2, sp
 8001382:	88db      	ldrh	r3, [r3, #6]
 8001384:	8890      	ldrh	r0, [r2, #4]
 8001386:	041b      	lsls	r3, r3, #16
 8001388:	4318      	orrs	r0, r3
 800138a:	bd0e      	pop	{r1, r2, r3, pc}

0800138c <MCI_GetIqdref>:
 800138c:	b507      	push	{r0, r1, r2, lr}
 800138e:	6841      	ldr	r1, [r0, #4]
 8001390:	2204      	movs	r2, #4
 8001392:	3110      	adds	r1, #16
 8001394:	a801      	add	r0, sp, #4
 8001396:	f005 f915 	bl	80065c4 <memcpy>
 800139a:	466b      	mov	r3, sp
 800139c:	466a      	mov	r2, sp
 800139e:	88db      	ldrh	r3, [r3, #6]
 80013a0:	8890      	ldrh	r0, [r2, #4]
 80013a2:	041b      	lsls	r3, r3, #16
 80013a4:	4318      	orrs	r0, r3
 80013a6:	bd0e      	pop	{r1, r2, r3, pc}

080013a8 <MCI_GetVqd>:
 80013a8:	b507      	push	{r0, r1, r2, lr}
 80013aa:	6841      	ldr	r1, [r0, #4]
 80013ac:	2204      	movs	r2, #4
 80013ae:	3116      	adds	r1, #22
 80013b0:	a801      	add	r0, sp, #4
 80013b2:	f005 f907 	bl	80065c4 <memcpy>
 80013b6:	466b      	mov	r3, sp
 80013b8:	466a      	mov	r2, sp
 80013ba:	88db      	ldrh	r3, [r3, #6]
 80013bc:	8890      	ldrh	r0, [r2, #4]
 80013be:	041b      	lsls	r3, r3, #16
 80013c0:	4318      	orrs	r0, r3
 80013c2:	bd0e      	pop	{r1, r2, r3, pc}

080013c4 <MCI_GetValphabeta>:
 80013c4:	b507      	push	{r0, r1, r2, lr}
 80013c6:	6841      	ldr	r1, [r0, #4]
 80013c8:	2204      	movs	r2, #4
 80013ca:	311a      	adds	r1, #26
 80013cc:	a801      	add	r0, sp, #4
 80013ce:	f005 f8f9 	bl	80065c4 <memcpy>
 80013d2:	466b      	mov	r3, sp
 80013d4:	466a      	mov	r2, sp
 80013d6:	88db      	ldrh	r3, [r3, #6]
 80013d8:	8890      	ldrh	r0, [r2, #4]
 80013da:	041b      	lsls	r3, r3, #16
 80013dc:	4318      	orrs	r0, r3
 80013de:	bd0e      	pop	{r1, r2, r3, pc}

080013e0 <MCI_GetTeref>:
 80013e0:	6843      	ldr	r3, [r0, #4]
 80013e2:	201e      	movs	r0, #30
 80013e4:	5e18      	ldrsh	r0, [r3, r0]
 80013e6:	4770      	bx	lr

080013e8 <MCI_Clear_Iqdref>:
 80013e8:	b510      	push	{r4, lr}
 80013ea:	c811      	ldmia	r0, {r0, r4}
 80013ec:	f005 f852 	bl	8006494 <STC_GetDefaultIqdref>
 80013f0:	8220      	strh	r0, [r4, #16]
 80013f2:	0c00      	lsrs	r0, r0, #16
 80013f4:	8260      	strh	r0, [r4, #18]
 80013f6:	bd10      	pop	{r4, pc}

080013f8 <MCM_Clarke>:
 80013f8:	b51f      	push	{r0, r1, r2, r3, r4, lr}
 80013fa:	2280      	movs	r2, #128	@ 0x80
 80013fc:	1403      	asrs	r3, r0, #16
 80013fe:	b201      	sxth	r1, r0
 8001400:	480e      	ldr	r0, [pc, #56]	@ (800143c <MCM_Clarke+0x44>)
 8001402:	0212      	lsls	r2, r2, #8
 8001404:	4358      	muls	r0, r3
 8001406:	4b0e      	ldr	r3, [pc, #56]	@ (8001440 <MCM_Clarke+0x48>)
 8001408:	434b      	muls	r3, r1
 800140a:	1a1b      	subs	r3, r3, r0
 800140c:	1a1b      	subs	r3, r3, r0
 800140e:	13db      	asrs	r3, r3, #15
 8001410:	4293      	cmp	r3, r2
 8001412:	da10      	bge.n	8001436 <MCM_Clarke+0x3e>
 8001414:	480b      	ldr	r0, [pc, #44]	@ (8001444 <MCM_Clarke+0x4c>)
 8001416:	0002      	movs	r2, r0
 8001418:	4283      	cmp	r3, r0
 800141a:	db00      	blt.n	800141e <MCM_Clarke+0x26>
 800141c:	b21a      	sxth	r2, r3
 800141e:	4b0a      	ldr	r3, [pc, #40]	@ (8001448 <MCM_Clarke+0x50>)
 8001420:	ac03      	add	r4, sp, #12
 8001422:	8021      	strh	r1, [r4, #0]
 8001424:	1c10      	adds	r0, r2, #0
 8001426:	429a      	cmp	r2, r3
 8001428:	da00      	bge.n	800142c <MCM_Clarke+0x34>
 800142a:	1c18      	adds	r0, r3, #0
 800142c:	0403      	lsls	r3, r0, #16
 800142e:	8820      	ldrh	r0, [r4, #0]
 8001430:	4318      	orrs	r0, r3
 8001432:	b004      	add	sp, #16
 8001434:	bd10      	pop	{r4, pc}
 8001436:	4a05      	ldr	r2, [pc, #20]	@ (800144c <MCM_Clarke+0x54>)
 8001438:	e7f1      	b.n	800141e <MCM_Clarke+0x26>
 800143a:	46c0      	nop			@ (mov r8, r8)
 800143c:	000049e6 	.word	0x000049e6
 8001440:	ffffb61a 	.word	0xffffb61a
 8001444:	ffff8000 	.word	0xffff8000
 8001448:	ffff8001 	.word	0xffff8001
 800144c:	00007fff 	.word	0x00007fff

08001450 <MCM_Trig_Functions>:
 8001450:	2380      	movs	r3, #128	@ 0x80
 8001452:	021b      	lsls	r3, r3, #8
 8001454:	18c3      	adds	r3, r0, r3
 8001456:	b29b      	uxth	r3, r3
 8001458:	b537      	push	{r0, r1, r2, r4, r5, lr}
 800145a:	099b      	lsrs	r3, r3, #6
 800145c:	24c0      	movs	r4, #192	@ 0xc0
 800145e:	2100      	movs	r1, #0
 8001460:	0018      	movs	r0, r3
 8001462:	2580      	movs	r5, #128	@ 0x80
 8001464:	00a4      	lsls	r4, r4, #2
 8001466:	000a      	movs	r2, r1
 8001468:	4020      	ands	r0, r4
 800146a:	00ad      	lsls	r5, r5, #2
 800146c:	42a8      	cmp	r0, r5
 800146e:	d017      	beq.n	80014a0 <MCM_Trig_Functions+0x50>
 8001470:	d809      	bhi.n	8001486 <MCM_Trig_Functions+0x36>
 8001472:	4288      	cmp	r0, r1
 8001474:	d01d      	beq.n	80014b2 <MCM_Trig_Functions+0x62>
 8001476:	2480      	movs	r4, #128	@ 0x80
 8001478:	0064      	lsls	r4, r4, #1
 800147a:	42a0      	cmp	r0, r4
 800147c:	d022      	beq.n	80014c4 <MCM_Trig_Functions+0x74>
 800147e:	0412      	lsls	r2, r2, #16
 8001480:	b288      	uxth	r0, r1
 8001482:	4310      	orrs	r0, r2
 8001484:	bd3e      	pop	{r1, r2, r3, r4, r5, pc}
 8001486:	42a0      	cmp	r0, r4
 8001488:	d1f9      	bne.n	800147e <MCM_Trig_Functions+0x2e>
 800148a:	b2db      	uxtb	r3, r3
 800148c:	43da      	mvns	r2, r3
 800148e:	4912      	ldr	r1, [pc, #72]	@ (80014d8 <MCM_Trig_Functions+0x88>)
 8001490:	b2d2      	uxtb	r2, r2
 8001492:	0052      	lsls	r2, r2, #1
 8001494:	5e52      	ldrsh	r2, [r2, r1]
 8001496:	005b      	lsls	r3, r3, #1
 8001498:	5a59      	ldrh	r1, [r3, r1]
 800149a:	4249      	negs	r1, r1
 800149c:	b209      	sxth	r1, r1
 800149e:	e7ee      	b.n	800147e <MCM_Trig_Functions+0x2e>
 80014a0:	b2db      	uxtb	r3, r3
 80014a2:	005a      	lsls	r2, r3, #1
 80014a4:	43db      	mvns	r3, r3
 80014a6:	490c      	ldr	r1, [pc, #48]	@ (80014d8 <MCM_Trig_Functions+0x88>)
 80014a8:	b2db      	uxtb	r3, r3
 80014aa:	5e52      	ldrsh	r2, [r2, r1]
 80014ac:	005b      	lsls	r3, r3, #1
 80014ae:	5e59      	ldrsh	r1, [r3, r1]
 80014b0:	e7e5      	b.n	800147e <MCM_Trig_Functions+0x2e>
 80014b2:	b2db      	uxtb	r3, r3
 80014b4:	005a      	lsls	r2, r3, #1
 80014b6:	43db      	mvns	r3, r3
 80014b8:	4907      	ldr	r1, [pc, #28]	@ (80014d8 <MCM_Trig_Functions+0x88>)
 80014ba:	b2db      	uxtb	r3, r3
 80014bc:	5a52      	ldrh	r2, [r2, r1]
 80014be:	4252      	negs	r2, r2
 80014c0:	b212      	sxth	r2, r2
 80014c2:	e7e8      	b.n	8001496 <MCM_Trig_Functions+0x46>
 80014c4:	b2db      	uxtb	r3, r3
 80014c6:	43da      	mvns	r2, r3
 80014c8:	4903      	ldr	r1, [pc, #12]	@ (80014d8 <MCM_Trig_Functions+0x88>)
 80014ca:	b2d2      	uxtb	r2, r2
 80014cc:	0052      	lsls	r2, r2, #1
 80014ce:	5a52      	ldrh	r2, [r2, r1]
 80014d0:	4252      	negs	r2, r2
 80014d2:	b212      	sxth	r2, r2
 80014d4:	e7ea      	b.n	80014ac <MCM_Trig_Functions+0x5c>
 80014d6:	46c0      	nop			@ (mov r8, r8)
 80014d8:	0800679a 	.word	0x0800679a

080014dc <MCM_Park>:
 80014dc:	b57f      	push	{r0, r1, r2, r3, r4, r5, r6, lr}
 80014de:	b205      	sxth	r5, r0
 80014e0:	1404      	asrs	r4, r0, #16
 80014e2:	0008      	movs	r0, r1
 80014e4:	f7ff ffb4 	bl	8001450 <MCM_Trig_Functions>
 80014e8:	b202      	sxth	r2, r0
 80014ea:	1400      	asrs	r0, r0, #16
 80014ec:	0013      	movs	r3, r2
 80014ee:	0001      	movs	r1, r0
 80014f0:	436b      	muls	r3, r5
 80014f2:	4361      	muls	r1, r4
 80014f4:	1a5b      	subs	r3, r3, r1
 80014f6:	2180      	movs	r1, #128	@ 0x80
 80014f8:	13db      	asrs	r3, r3, #15
 80014fa:	0209      	lsls	r1, r1, #8
 80014fc:	428b      	cmp	r3, r1
 80014fe:	da23      	bge.n	8001548 <MCM_Park+0x6c>
 8001500:	4913      	ldr	r1, [pc, #76]	@ (8001550 <MCM_Park+0x74>)
 8001502:	000e      	movs	r6, r1
 8001504:	428b      	cmp	r3, r1
 8001506:	db00      	blt.n	800150a <MCM_Park+0x2e>
 8001508:	b21e      	sxth	r6, r3
 800150a:	4b12      	ldr	r3, [pc, #72]	@ (8001554 <MCM_Park+0x78>)
 800150c:	1c31      	adds	r1, r6, #0
 800150e:	429e      	cmp	r6, r3
 8001510:	da00      	bge.n	8001514 <MCM_Park+0x38>
 8001512:	1c19      	adds	r1, r3, #0
 8001514:	4354      	muls	r4, r2
 8001516:	2280      	movs	r2, #128	@ 0x80
 8001518:	4368      	muls	r0, r5
 800151a:	1900      	adds	r0, r0, r4
 800151c:	b209      	sxth	r1, r1
 800151e:	13c0      	asrs	r0, r0, #15
 8001520:	0212      	lsls	r2, r2, #8
 8001522:	4290      	cmp	r0, r2
 8001524:	da12      	bge.n	800154c <MCM_Park+0x70>
 8001526:	4c0a      	ldr	r4, [pc, #40]	@ (8001550 <MCM_Park+0x74>)
 8001528:	0022      	movs	r2, r4
 800152a:	42a0      	cmp	r0, r4
 800152c:	db00      	blt.n	8001530 <MCM_Park+0x54>
 800152e:	b202      	sxth	r2, r0
 8001530:	ac03      	add	r4, sp, #12
 8001532:	8021      	strh	r1, [r4, #0]
 8001534:	1c10      	adds	r0, r2, #0
 8001536:	429a      	cmp	r2, r3
 8001538:	da01      	bge.n	800153e <MCM_Park+0x62>
 800153a:	4b07      	ldr	r3, [pc, #28]	@ (8001558 <MCM_Park+0x7c>)
 800153c:	8818      	ldrh	r0, [r3, #0]
 800153e:	0403      	lsls	r3, r0, #16
 8001540:	8820      	ldrh	r0, [r4, #0]
 8001542:	4318      	orrs	r0, r3
 8001544:	b004      	add	sp, #16
 8001546:	bd70      	pop	{r4, r5, r6, pc}
 8001548:	4e04      	ldr	r6, [pc, #16]	@ (800155c <MCM_Park+0x80>)
 800154a:	e7de      	b.n	800150a <MCM_Park+0x2e>
 800154c:	4a03      	ldr	r2, [pc, #12]	@ (800155c <MCM_Park+0x80>)
 800154e:	e7ef      	b.n	8001530 <MCM_Park+0x54>
 8001550:	ffff8000 	.word	0xffff8000
 8001554:	ffff8001 	.word	0xffff8001
 8001558:	08006798 	.word	0x08006798
 800155c:	00007fff 	.word	0x00007fff

08001560 <MCM_Rev_Park>:
 8001560:	b530      	push	{r4, r5, lr}
 8001562:	b205      	sxth	r5, r0
 8001564:	b085      	sub	sp, #20
 8001566:	1404      	asrs	r4, r0, #16
 8001568:	0008      	movs	r0, r1
 800156a:	f7ff ff71 	bl	8001450 <MCM_Trig_Functions>
 800156e:	b202      	sxth	r2, r0
 8001570:	1403      	asrs	r3, r0, #16
 8001572:	0019      	movs	r1, r3
 8001574:	0010      	movs	r0, r2
 8001576:	4361      	muls	r1, r4
 8001578:	4368      	muls	r0, r5
 800157a:	4354      	muls	r4, r2
 800157c:	436b      	muls	r3, r5
 800157e:	1840      	adds	r0, r0, r1
 8001580:	1ae4      	subs	r4, r4, r3
 8001582:	13c0      	asrs	r0, r0, #15
 8001584:	13e4      	asrs	r4, r4, #15
 8001586:	0424      	lsls	r4, r4, #16
 8001588:	b280      	uxth	r0, r0
 800158a:	4320      	orrs	r0, r4
 800158c:	b005      	add	sp, #20
 800158e:	bd30      	pop	{r4, r5, pc}

08001590 <LL_GPIO_LockPin>:
 8001590:	2380      	movs	r3, #128	@ 0x80
 8001592:	025b      	lsls	r3, r3, #9
 8001594:	430b      	orrs	r3, r1
 8001596:	61c3      	str	r3, [r0, #28]
 8001598:	61c1      	str	r1, [r0, #28]
 800159a:	61c3      	str	r3, [r0, #28]
 800159c:	69c3      	ldr	r3, [r0, #28]
 800159e:	b082      	sub	sp, #8
 80015a0:	9301      	str	r3, [sp, #4]
 80015a2:	9b01      	ldr	r3, [sp, #4]
 80015a4:	b002      	add	sp, #8
 80015a6:	4770      	bx	lr

080015a8 <FOC_Clear>:
 80015a8:	2226      	movs	r2, #38	@ 0x26
 80015aa:	b570      	push	{r4, r5, r6, lr}
 80015ac:	2400      	movs	r4, #0
 80015ae:	4342      	muls	r2, r0
 80015b0:	4b11      	ldr	r3, [pc, #68]	@ (80015f8 <FOC_Clear+0x50>)
 80015b2:	0085      	lsls	r5, r0, #2
 80015b4:	52d4      	strh	r4, [r2, r3]
 80015b6:	189b      	adds	r3, r3, r2
 80015b8:	805c      	strh	r4, [r3, #2]
 80015ba:	809c      	strh	r4, [r3, #4]
 80015bc:	80dc      	strh	r4, [r3, #6]
 80015be:	819c      	strh	r4, [r3, #12]
 80015c0:	81dc      	strh	r4, [r3, #14]
 80015c2:	821c      	strh	r4, [r3, #16]
 80015c4:	825c      	strh	r4, [r3, #18]
 80015c6:	83dc      	strh	r4, [r3, #30]
 80015c8:	82dc      	strh	r4, [r3, #22]
 80015ca:	831c      	strh	r4, [r3, #24]
 80015cc:	835c      	strh	r4, [r3, #26]
 80015ce:	839c      	strh	r4, [r3, #28]
 80015d0:	841c      	strh	r4, [r3, #32]
 80015d2:	4b0a      	ldr	r3, [pc, #40]	@ (80015fc <FOC_Clear+0x54>)
 80015d4:	0021      	movs	r1, r4
 80015d6:	58e8      	ldr	r0, [r5, r3]
 80015d8:	f004 fd5c 	bl	8006094 <PID_SetIntegralTerm>
 80015dc:	4b08      	ldr	r3, [pc, #32]	@ (8001600 <FOC_Clear+0x58>)
 80015de:	0021      	movs	r1, r4
 80015e0:	58e8      	ldr	r0, [r5, r3]
 80015e2:	f004 fd57 	bl	8006094 <PID_SetIntegralTerm>
 80015e6:	4b07      	ldr	r3, [pc, #28]	@ (8001604 <FOC_Clear+0x5c>)
 80015e8:	58e8      	ldr	r0, [r5, r3]
 80015ea:	f004 fed5 	bl	8006398 <STC_Clear>
 80015ee:	4b06      	ldr	r3, [pc, #24]	@ (8001608 <FOC_Clear+0x60>)
 80015f0:	58e8      	ldr	r0, [r5, r3]
 80015f2:	f000 fe75 	bl	80022e0 <PWMC_SwitchOffPWM>
 80015f6:	bd70      	pop	{r4, r5, r6, pc}
 80015f8:	200006e8 	.word	0x200006e8
 80015fc:	20000008 	.word	0x20000008
 8001600:	20000004 	.word	0x20000004
 8001604:	2000000c 	.word	0x2000000c
 8001608:	200006e0 	.word	0x200006e0

0800160c <MCboot>:
 800160c:	b5f0      	push	{r4, r5, r6, r7, lr}
 800160e:	b087      	sub	sp, #28
 8001610:	9000      	str	r0, [sp, #0]
 8001612:	2800      	cmp	r0, #0
 8001614:	d067      	beq.n	80016e6 <MCboot+0xda>
 8001616:	2200      	movs	r2, #0
 8001618:	4b34      	ldr	r3, [pc, #208]	@ (80016ec <MCboot+0xe0>)
 800161a:	4e35      	ldr	r6, [pc, #212]	@ (80016f0 <MCboot+0xe4>)
 800161c:	4835      	ldr	r0, [pc, #212]	@ (80016f4 <MCboot+0xe8>)
 800161e:	701a      	strb	r2, [r3, #0]
 8001620:	9301      	str	r3, [sp, #4]
 8001622:	6030      	str	r0, [r6, #0]
 8001624:	f001 fa82 	bl	8002b2c <R1_Init>
 8001628:	4833      	ldr	r0, [pc, #204]	@ (80016f8 <MCboot+0xec>)
 800162a:	f7ff f9c3 	bl	80009b4 <ASPEP_start>
 800162e:	4b33      	ldr	r3, [pc, #204]	@ (80016fc <MCboot+0xf0>)
 8001630:	0018      	movs	r0, r3
 8001632:	9302      	str	r3, [sp, #8]
 8001634:	f004 fd1c 	bl	8006070 <PID_HandleInit>
 8001638:	4f31      	ldr	r7, [pc, #196]	@ (8001700 <MCboot+0xf4>)
 800163a:	0038      	movs	r0, r7
 800163c:	f004 faa2 	bl	8005b84 <ENC_Init>
 8001640:	4c30      	ldr	r4, [pc, #192]	@ (8001704 <MCboot+0xf8>)
 8001642:	4d31      	ldr	r5, [pc, #196]	@ (8001708 <MCboot+0xfc>)
 8001644:	4a31      	ldr	r2, [pc, #196]	@ (800170c <MCboot+0x100>)
 8001646:	003b      	movs	r3, r7
 8001648:	0028      	movs	r0, r5
 800164a:	6821      	ldr	r1, [r4, #0]
 800164c:	9203      	str	r2, [sp, #12]
 800164e:	f004 fa51 	bl	8005af4 <EAC_Init>
 8001652:	003a      	movs	r2, r7
 8001654:	2701      	movs	r7, #1
 8001656:	4b2e      	ldr	r3, [pc, #184]	@ (8001710 <MCboot+0x104>)
 8001658:	9902      	ldr	r1, [sp, #8]
 800165a:	6820      	ldr	r0, [r4, #0]
 800165c:	601d      	str	r5, [r3, #0]
 800165e:	f004 fe84 	bl	800636a <STC_Init>
 8001662:	9803      	ldr	r0, [sp, #12]
 8001664:	f004 ff33 	bl	80064ce <VSS_Init>
 8001668:	482a      	ldr	r0, [pc, #168]	@ (8001714 <MCboot+0x108>)
 800166a:	f004 fd01 	bl	8006070 <PID_HandleInit>
 800166e:	482a      	ldr	r0, [pc, #168]	@ (8001718 <MCboot+0x10c>)
 8001670:	f004 fcfe 	bl	8006070 <PID_HandleInit>
 8001674:	4829      	ldr	r0, [pc, #164]	@ (800171c <MCboot+0x110>)
 8001676:	f002 fb0b 	bl	8003c90 <RCM_RegisterRegConv>
 800167a:	4d29      	ldr	r5, [pc, #164]	@ (8001720 <MCboot+0x114>)
 800167c:	0028      	movs	r0, r5
 800167e:	f004 fdd7 	bl	8006230 <RVBS_Init>
 8001682:	4b28      	ldr	r3, [pc, #160]	@ (8001724 <MCboot+0x118>)
 8001684:	4828      	ldr	r0, [pc, #160]	@ (8001728 <MCboot+0x11c>)
 8001686:	681b      	ldr	r3, [r3, #0]
 8001688:	60dd      	str	r5, [r3, #12]
 800168a:	4d28      	ldr	r5, [pc, #160]	@ (800172c <MCboot+0x120>)
 800168c:	609d      	str	r5, [r3, #8]
 800168e:	f004 fcd3 	bl	8006038 <NTC_Init>
 8001692:	4827      	ldr	r0, [pc, #156]	@ (8001730 <MCboot+0x124>)
 8001694:	f004 fe1e 	bl	80062d4 <REMNG_Init>
 8001698:	2000      	movs	r0, #0
 800169a:	f7ff ff85 	bl	80015a8 <FOC_Clear>
 800169e:	1d6b      	adds	r3, r5, #5
 80016a0:	6820      	ldr	r0, [r4, #0]
 80016a2:	77df      	strb	r7, [r3, #31]
 80016a4:	f004 fef6 	bl	8006494 <STC_GetDefaultIqdref>
 80016a8:	8228      	strh	r0, [r5, #16]
 80016aa:	0c00      	lsrs	r0, r0, #16
 80016ac:	8268      	strh	r0, [r5, #18]
 80016ae:	6820      	ldr	r0, [r4, #0]
 80016b0:	f004 fef0 	bl	8006494 <STC_GetDefaultIqdref>
 80016b4:	0c00      	lsrs	r0, r0, #16
 80016b6:	82a8      	strh	r0, [r5, #20]
 80016b8:	481e      	ldr	r0, [pc, #120]	@ (8001734 <MCboot+0x128>)
 80016ba:	002a      	movs	r2, r5
 80016bc:	0005      	movs	r5, r0
 80016be:	6821      	ldr	r1, [r4, #0]
 80016c0:	6833      	ldr	r3, [r6, #0]
 80016c2:	f7ff fd47 	bl	8001154 <MCI_Init>
 80016c6:	4b1c      	ldr	r3, [pc, #112]	@ (8001738 <MCboot+0x12c>)
 80016c8:	6820      	ldr	r0, [r4, #0]
 80016ca:	61ab      	str	r3, [r5, #24]
 80016cc:	f004 fedf 	bl	800648e <STC_GetMecSpeedRefUnitDefault>
 80016d0:	2200      	movs	r2, #0
 80016d2:	0001      	movs	r1, r0
 80016d4:	0028      	movs	r0, r5
 80016d6:	f7ff fd49 	bl	800116c <MCI_ExecSpeedRamp>
 80016da:	9b00      	ldr	r3, [sp, #0]
 80016dc:	601d      	str	r5, [r3, #0]
 80016de:	f7ff fd37 	bl	8001150 <MC_APP_BootHook>
 80016e2:	9b01      	ldr	r3, [sp, #4]
 80016e4:	701f      	strb	r7, [r3, #0]
 80016e6:	b007      	add	sp, #28
 80016e8:	bdf0      	pop	{r4, r5, r6, r7, pc}
 80016ea:	46c0      	nop			@ (mov r8, r8)
 80016ec:	200006d8 	.word	0x200006d8
 80016f0:	200006e0 	.word	0x200006e0
 80016f4:	20000148 	.word	0x20000148
 80016f8:	2000033c 	.word	0x2000033c
 80016fc:	200002a4 	.word	0x200002a4
 8001700:	20000090 	.word	0x20000090
 8001704:	2000000c 	.word	0x2000000c
 8001708:	20000074 	.word	0x20000074
 800170c:	20000110 	.word	0x20000110
 8001710:	200006e4 	.word	0x200006e4
 8001714:	20000278 	.word	0x20000278
 8001718:	2000024c 	.word	0x2000024c
 800171c:	20000048 	.word	0x20000048
 8001720:	2000002c 	.word	0x2000002c
 8001724:	20000000 	.word	0x20000000
 8001728:	20000058 	.word	0x20000058
 800172c:	200006e8 	.word	0x200006e8
 8001730:	20000014 	.word	0x20000014
 8001734:	2000069c 	.word	0x2000069c
 8001738:	200002f0 	.word	0x200002f0

0800173c <FOC_InitAdditionalMethods>:
 800173c:	4770      	bx	lr
	...

08001740 <FOC_CalcCurrRef>:
 8001740:	2326      	movs	r3, #38	@ 0x26
 8001742:	4343      	muls	r3, r0
 8001744:	b510      	push	{r4, lr}
 8001746:	4c07      	ldr	r4, [pc, #28]	@ (8001764 <FOC_CalcCurrRef+0x24>)
 8001748:	18e4      	adds	r4, r4, r3
 800174a:	1d63      	adds	r3, r4, #5
 800174c:	7fdb      	ldrb	r3, [r3, #31]
 800174e:	2b00      	cmp	r3, #0
 8001750:	d106      	bne.n	8001760 <FOC_CalcCurrRef+0x20>
 8001752:	4b05      	ldr	r3, [pc, #20]	@ (8001768 <FOC_CalcCurrRef+0x28>)
 8001754:	0080      	lsls	r0, r0, #2
 8001756:	58c0      	ldr	r0, [r0, r3]
 8001758:	f004 fe72 	bl	8006440 <STC_CalcTorqueReference>
 800175c:	83e0      	strh	r0, [r4, #30]
 800175e:	8220      	strh	r0, [r4, #16]
 8001760:	bd10      	pop	{r4, pc}
 8001762:	46c0      	nop			@ (mov r8, r8)
 8001764:	200006e8 	.word	0x200006e8
 8001768:	2000000c 	.word	0x2000000c

0800176c <TSK_SetChargeBootCapDelayM1>:
 800176c:	4b01      	ldr	r3, [pc, #4]	@ (8001774 <TSK_SetChargeBootCapDelayM1+0x8>)
 800176e:	8018      	strh	r0, [r3, #0]
 8001770:	4770      	bx	lr
 8001772:	46c0      	nop			@ (mov r8, r8)
 8001774:	200006dc 	.word	0x200006dc

08001778 <TSK_ChargeBootCapDelayHasElapsedM1>:
 8001778:	4b02      	ldr	r3, [pc, #8]	@ (8001784 <TSK_ChargeBootCapDelayHasElapsedM1+0xc>)
 800177a:	8818      	ldrh	r0, [r3, #0]
 800177c:	4243      	negs	r3, r0
 800177e:	4158      	adcs	r0, r3
 8001780:	b2c0      	uxtb	r0, r0
 8001782:	4770      	bx	lr
 8001784:	200006dc 	.word	0x200006dc

08001788 <TSK_SetStopPermanencyTimeM1>:
 8001788:	4b01      	ldr	r3, [pc, #4]	@ (8001790 <TSK_SetStopPermanencyTimeM1+0x8>)
 800178a:	8018      	strh	r0, [r3, #0]
 800178c:	4770      	bx	lr
 800178e:	46c0      	nop			@ (mov r8, r8)
 8001790:	200006da 	.word	0x200006da

08001794 <TSK_MF_StopProcessing>:
 8001794:	b570      	push	{r4, r5, r6, lr}
 8001796:	0004      	movs	r4, r0
 8001798:	4b0b      	ldr	r3, [pc, #44]	@ (80017c8 <TSK_MF_StopProcessing+0x34>)
 800179a:	0085      	lsls	r5, r0, #2
 800179c:	58e8      	ldr	r0, [r5, r3]
 800179e:	f001 fc03 	bl	8002fa8 <R1_SwitchOffPWM>
 80017a2:	0020      	movs	r0, r4
 80017a4:	f7ff ff00 	bl	80015a8 <FOC_Clear>
 80017a8:	4b08      	ldr	r3, [pc, #32]	@ (80017cc <TSK_MF_StopProcessing+0x38>)
 80017aa:	58e8      	ldr	r0, [r5, r3]
 80017ac:	f004 fcfa 	bl	80061a4 <PQD_Clear>
 80017b0:	20c8      	movs	r0, #200	@ 0xc8
 80017b2:	0080      	lsls	r0, r0, #2
 80017b4:	f7ff ffe8 	bl	8001788 <TSK_SetStopPermanencyTimeM1>
 80017b8:	2228      	movs	r2, #40	@ 0x28
 80017ba:	4362      	muls	r2, r4
 80017bc:	4b04      	ldr	r3, [pc, #16]	@ (80017d0 <TSK_MF_StopProcessing+0x3c>)
 80017be:	189b      	adds	r3, r3, r2
 80017c0:	2208      	movs	r2, #8
 80017c2:	77da      	strb	r2, [r3, #31]
 80017c4:	bd70      	pop	{r4, r5, r6, pc}
 80017c6:	46c0      	nop			@ (mov r8, r8)
 80017c8:	200006e0 	.word	0x200006e0
 80017cc:	20000000 	.word	0x20000000
 80017d0:	2000069c 	.word	0x2000069c

080017d4 <TSK_StopPermanencyTimeHasElapsedM1>:
 80017d4:	4b02      	ldr	r3, [pc, #8]	@ (80017e0 <TSK_StopPermanencyTimeHasElapsedM1+0xc>)
 80017d6:	8818      	ldrh	r0, [r3, #0]
 80017d8:	4243      	negs	r3, r0
 80017da:	4158      	adcs	r0, r3
 80017dc:	b2c0      	uxtb	r0, r0
 80017de:	4770      	bx	lr
 80017e0:	200006da 	.word	0x200006da

080017e4 <TSK_MediumFrequencyTaskM1>:
 80017e4:	b5f0      	push	{r4, r5, r6, r7, lr}
 80017e6:	b085      	sub	sp, #20
 80017e8:	ab02      	add	r3, sp, #8
 80017ea:	1d99      	adds	r1, r3, #6
 80017ec:	2300      	movs	r3, #0
 80017ee:	4d89      	ldr	r5, [pc, #548]	@ (8001a14 <TSK_MediumFrequencyTaskM1+0x230>)
 80017f0:	800b      	strh	r3, [r1, #0]
 80017f2:	0028      	movs	r0, r5
 80017f4:	f004 fa22 	bl	8005c3c <ENC_CalcAvrgMecSpeedUnit>
 80017f8:	4e87      	ldr	r6, [pc, #540]	@ (8001a18 <TSK_MediumFrequencyTaskM1+0x234>)
 80017fa:	6830      	ldr	r0, [r6, #0]
 80017fc:	f004 fcb6 	bl	800616c <PQD_CalcElMotorPower>
 8001800:	4c86      	ldr	r4, [pc, #536]	@ (8001a1c <TSK_MediumFrequencyTaskM1+0x238>)
 8001802:	0020      	movs	r0, r4
 8001804:	f7ff fd16 	bl	8001234 <MCI_GetCurrentFaults>
 8001808:	230a      	movs	r3, #10
 800180a:	2800      	cmp	r0, #0
 800180c:	d12f      	bne.n	800186e <TSK_MediumFrequencyTaskM1+0x8a>
 800180e:	0020      	movs	r0, r4
 8001810:	f7ff fd0e 	bl	8001230 <MCI_GetOccurredFaults>
 8001814:	2800      	cmp	r0, #0
 8001816:	d000      	beq.n	800181a <TSK_MediumFrequencyTaskM1+0x36>
 8001818:	e0fa      	b.n	8001a10 <TSK_MediumFrequencyTaskM1+0x22c>
 800181a:	7fe0      	ldrb	r0, [r4, #31]
 800181c:	2814      	cmp	r0, #20
 800181e:	d83c      	bhi.n	800189a <TSK_MediumFrequencyTaskM1+0xb6>
 8001820:	f7fe fc7c 	bl	800011c <__gnu_thumb1_case_uhi>
 8001824:	003b0015 	.word	0x003b0015
 8001828:	003b008f 	.word	0x003b008f
 800182c:	003b003b 	.word	0x003b003b
 8001830:	003b00c1 	.word	0x003b00c1
 8001834:	003b00cc 	.word	0x003b00cc
 8001838:	00d200f6 	.word	0x00d200f6
 800183c:	003b003b 	.word	0x003b003b
 8001840:	003b003b 	.word	0x003b003b
 8001844:	00350050 	.word	0x00350050
 8001848:	003b003b 	.word	0x003b003b
 800184c:	00d7      	.short	0x00d7
 800184e:	2302      	movs	r3, #2
 8001850:	7fa1      	ldrb	r1, [r4, #30]
 8001852:	4399      	bics	r1, r3
 8001854:	2901      	cmp	r1, #1
 8001856:	d120      	bne.n	800189a <TSK_MediumFrequencyTaskM1+0xb6>
 8001858:	4d71      	ldr	r5, [pc, #452]	@ (8001a20 <TSK_MediumFrequencyTaskM1+0x23c>)
 800185a:	6828      	ldr	r0, [r5, #0]
 800185c:	0003      	movs	r3, r0
 800185e:	3381      	adds	r3, #129	@ 0x81
 8001860:	781b      	ldrb	r3, [r3, #0]
 8001862:	2b00      	cmp	r3, #0
 8001864:	d105      	bne.n	8001872 <TSK_MediumFrequencyTaskM1+0x8e>
 8001866:	0019      	movs	r1, r3
 8001868:	f000 fd42 	bl	80022f0 <PWMC_CurrentReadingCalibr>
 800186c:	2311      	movs	r3, #17
 800186e:	77e3      	strb	r3, [r4, #31]
 8001870:	e013      	b.n	800189a <TSK_MediumFrequencyTaskM1+0xb6>
 8001872:	0003      	movs	r3, r0
 8001874:	3360      	adds	r3, #96	@ 0x60
 8001876:	8019      	strh	r1, [r3, #0]
 8001878:	f000 fd3a 	bl	80022f0 <PWMC_CurrentReadingCalibr>
 800187c:	2100      	movs	r1, #0
 800187e:	6828      	ldr	r0, [r5, #0]
 8001880:	f001 fa56 	bl	8002d30 <R1_TurnOnLowSides>
 8001884:	2014      	movs	r0, #20
 8001886:	f7ff ff71 	bl	800176c <TSK_SetChargeBootCapDelayM1>
 800188a:	2310      	movs	r3, #16
 800188c:	e7ef      	b.n	800186e <TSK_MediumFrequencyTaskM1+0x8a>
 800188e:	7fa3      	ldrb	r3, [r4, #30]
 8001890:	2b05      	cmp	r3, #5
 8001892:	d104      	bne.n	800189e <TSK_MediumFrequencyTaskM1+0xba>
 8001894:	2000      	movs	r0, #0
 8001896:	f7ff ff7d 	bl	8001794 <TSK_MF_StopProcessing>
 800189a:	b005      	add	sp, #20
 800189c:	bdf0      	pop	{r4, r5, r6, r7, pc}
 800189e:	4d60      	ldr	r5, [pc, #384]	@ (8001a20 <TSK_MediumFrequencyTaskM1+0x23c>)
 80018a0:	2101      	movs	r1, #1
 80018a2:	6828      	ldr	r0, [r5, #0]
 80018a4:	f000 fd24 	bl	80022f0 <PWMC_CurrentReadingCalibr>
 80018a8:	2800      	cmp	r0, #0
 80018aa:	d0f6      	beq.n	800189a <TSK_MediumFrequencyTaskM1+0xb6>
 80018ac:	7fa3      	ldrb	r3, [r4, #30]
 80018ae:	2b03      	cmp	r3, #3
 80018b0:	d1e4      	bne.n	800187c <TSK_MediumFrequencyTaskM1+0x98>
 80018b2:	2000      	movs	r0, #0
 80018b4:	f7ff fe78 	bl	80015a8 <FOC_Clear>
 80018b8:	6830      	ldr	r0, [r6, #0]
 80018ba:	f004 fc73 	bl	80061a4 <PQD_Clear>
 80018be:	2300      	movs	r3, #0
 80018c0:	83e3      	strh	r3, [r4, #30]
 80018c2:	e7ea      	b.n	800189a <TSK_MediumFrequencyTaskM1+0xb6>
 80018c4:	7fa3      	ldrb	r3, [r4, #30]
 80018c6:	2b05      	cmp	r3, #5
 80018c8:	d0e4      	beq.n	8001894 <TSK_MediumFrequencyTaskM1+0xb0>
 80018ca:	f7ff ff55 	bl	8001778 <TSK_ChargeBootCapDelayHasElapsedM1>
 80018ce:	2800      	cmp	r0, #0
 80018d0:	d0e3      	beq.n	800189a <TSK_MediumFrequencyTaskM1+0xb6>
 80018d2:	4f53      	ldr	r7, [pc, #332]	@ (8001a20 <TSK_MediumFrequencyTaskM1+0x23c>)
 80018d4:	6838      	ldr	r0, [r7, #0]
 80018d6:	f001 fb67 	bl	8002fa8 <R1_SwitchOffPWM>
 80018da:	2201      	movs	r2, #1
 80018dc:	4e51      	ldr	r6, [pc, #324]	@ (8001a24 <TSK_MediumFrequencyTaskM1+0x240>)
 80018de:	4b52      	ldr	r3, [pc, #328]	@ (8001a28 <TSK_MediumFrequencyTaskM1+0x244>)
 80018e0:	4952      	ldr	r1, [pc, #328]	@ (8001a2c <TSK_MediumFrequencyTaskM1+0x248>)
 80018e2:	6830      	ldr	r0, [r6, #0]
 80018e4:	77da      	strb	r2, [r3, #31]
 80018e6:	f004 fd53 	bl	8006390 <STC_SetSpeedSensor>
 80018ea:	0028      	movs	r0, r5
 80018ec:	f004 f982 	bl	8005bf4 <ENC_Clear>
 80018f0:	2000      	movs	r0, #0
 80018f2:	f7ff fe59 	bl	80015a8 <FOC_Clear>
 80018f6:	4b4e      	ldr	r3, [pc, #312]	@ (8001a30 <TSK_MediumFrequencyTaskM1+0x24c>)
 80018f8:	0018      	movs	r0, r3
 80018fa:	9301      	str	r3, [sp, #4]
 80018fc:	f004 f93d 	bl	8005b7a <EAC_IsAligned>
 8001900:	2800      	cmp	r0, #0
 8001902:	d108      	bne.n	8001916 <TSK_MediumFrequencyTaskM1+0x132>
 8001904:	9801      	ldr	r0, [sp, #4]
 8001906:	f004 f8fb 	bl	8005b00 <EAC_StartAlignment>
 800190a:	2302      	movs	r3, #2
 800190c:	6838      	ldr	r0, [r7, #0]
 800190e:	77e3      	strb	r3, [r4, #31]
 8001910:	f000 fcea 	bl	80022e8 <PWMC_SwitchOnPWM>
 8001914:	e7c1      	b.n	800189a <TSK_MediumFrequencyTaskM1+0xb6>
 8001916:	2103      	movs	r1, #3
 8001918:	6830      	ldr	r0, [r6, #0]
 800191a:	f004 fd4c 	bl	80063b6 <STC_SetControlMode>
 800191e:	0029      	movs	r1, r5
 8001920:	6830      	ldr	r0, [r6, #0]
 8001922:	f004 fd35 	bl	8006390 <STC_SetSpeedSensor>
 8001926:	2000      	movs	r0, #0
 8001928:	f7ff ff08 	bl	800173c <FOC_InitAdditionalMethods>
 800192c:	2000      	movs	r0, #0
 800192e:	f7ff ff07 	bl	8001740 <FOC_CalcCurrRef>
 8001932:	6830      	ldr	r0, [r6, #0]
 8001934:	f004 fdb6 	bl	80064a4 <STC_ForceSpeedReferenceToCurrentSpeed>
 8001938:	0020      	movs	r0, r4
 800193a:	f7ff fc3f 	bl	80011bc <MCI_ExecBufferedCommands>
 800193e:	2306      	movs	r3, #6
 8001940:	e7e4      	b.n	800190c <TSK_MediumFrequencyTaskM1+0x128>
 8001942:	7fa3      	ldrb	r3, [r4, #30]
 8001944:	2b05      	cmp	r3, #5
 8001946:	d0a5      	beq.n	8001894 <TSK_MediumFrequencyTaskM1+0xb0>
 8001948:	4e39      	ldr	r6, [pc, #228]	@ (8001a30 <TSK_MediumFrequencyTaskM1+0x24c>)
 800194a:	0030      	movs	r0, r6
 800194c:	f004 f915 	bl	8005b7a <EAC_IsAligned>
 8001950:	9001      	str	r0, [sp, #4]
 8001952:	0030      	movs	r0, r6
 8001954:	f004 f8f9 	bl	8005b4a <EAC_Exec>
 8001958:	9b01      	ldr	r3, [sp, #4]
 800195a:	0006      	movs	r6, r0
 800195c:	4f31      	ldr	r7, [pc, #196]	@ (8001a24 <TSK_MediumFrequencyTaskM1+0x240>)
 800195e:	2b00      	cmp	r3, #0
 8001960:	d108      	bne.n	8001974 <TSK_MediumFrequencyTaskM1+0x190>
 8001962:	2800      	cmp	r0, #0
 8001964:	d106      	bne.n	8001974 <TSK_MediumFrequencyTaskM1+0x190>
 8001966:	6838      	ldr	r0, [r7, #0]
 8001968:	f004 fd6a 	bl	8006440 <STC_CalcTorqueReference>
 800196c:	4b31      	ldr	r3, [pc, #196]	@ (8001a34 <TSK_MediumFrequencyTaskM1+0x250>)
 800196e:	821e      	strh	r6, [r3, #16]
 8001970:	8258      	strh	r0, [r3, #18]
 8001972:	e792      	b.n	800189a <TSK_MediumFrequencyTaskM1+0xb6>
 8001974:	4e2a      	ldr	r6, [pc, #168]	@ (8001a20 <TSK_MediumFrequencyTaskM1+0x23c>)
 8001976:	6830      	ldr	r0, [r6, #0]
 8001978:	f001 fb16 	bl	8002fa8 <R1_SwitchOffPWM>
 800197c:	2103      	movs	r1, #3
 800197e:	6838      	ldr	r0, [r7, #0]
 8001980:	f004 fd19 	bl	80063b6 <STC_SetControlMode>
 8001984:	0029      	movs	r1, r5
 8001986:	6838      	ldr	r0, [r7, #0]
 8001988:	f004 fd02 	bl	8006390 <STC_SetSpeedSensor>
 800198c:	2000      	movs	r0, #0
 800198e:	f7ff fe0b 	bl	80015a8 <FOC_Clear>
 8001992:	2100      	movs	r1, #0
 8001994:	6830      	ldr	r0, [r6, #0]
 8001996:	f001 f9cb 	bl	8002d30 <R1_TurnOnLowSides>
 800199a:	20c8      	movs	r0, #200	@ 0xc8
 800199c:	0080      	lsls	r0, r0, #2
 800199e:	f7ff fef3 	bl	8001788 <TSK_SetStopPermanencyTimeM1>
 80019a2:	2314      	movs	r3, #20
 80019a4:	e763      	b.n	800186e <TSK_MediumFrequencyTaskM1+0x8a>
 80019a6:	7fa3      	ldrb	r3, [r4, #30]
 80019a8:	2b05      	cmp	r3, #5
 80019aa:	d100      	bne.n	80019ae <TSK_MediumFrequencyTaskM1+0x1ca>
 80019ac:	e772      	b.n	8001894 <TSK_MediumFrequencyTaskM1+0xb0>
 80019ae:	0020      	movs	r0, r4
 80019b0:	f7ff fc04 	bl	80011bc <MCI_ExecBufferedCommands>
 80019b4:	2000      	movs	r0, #0
 80019b6:	f7ff fec3 	bl	8001740 <FOC_CalcCurrRef>
 80019ba:	e76e      	b.n	800189a <TSK_MediumFrequencyTaskM1+0xb6>
 80019bc:	f7ff ff0a 	bl	80017d4 <TSK_StopPermanencyTimeHasElapsedM1>
 80019c0:	2800      	cmp	r0, #0
 80019c2:	d100      	bne.n	80019c6 <TSK_MediumFrequencyTaskM1+0x1e2>
 80019c4:	e769      	b.n	800189a <TSK_MediumFrequencyTaskM1+0xb6>
 80019c6:	e77a      	b.n	80018be <TSK_MediumFrequencyTaskM1+0xda>
 80019c8:	7fa3      	ldrb	r3, [r4, #30]
 80019ca:	2b02      	cmp	r3, #2
 80019cc:	d000      	beq.n	80019d0 <TSK_MediumFrequencyTaskM1+0x1ec>
 80019ce:	e764      	b.n	800189a <TSK_MediumFrequencyTaskM1+0xb6>
 80019d0:	e775      	b.n	80018be <TSK_MediumFrequencyTaskM1+0xda>
 80019d2:	7fa3      	ldrb	r3, [r4, #30]
 80019d4:	2b05      	cmp	r3, #5
 80019d6:	d100      	bne.n	80019da <TSK_MediumFrequencyTaskM1+0x1f6>
 80019d8:	e75c      	b.n	8001894 <TSK_MediumFrequencyTaskM1+0xb0>
 80019da:	f7ff fefb 	bl	80017d4 <TSK_StopPermanencyTimeHasElapsedM1>
 80019de:	2800      	cmp	r0, #0
 80019e0:	d100      	bne.n	80019e4 <TSK_MediumFrequencyTaskM1+0x200>
 80019e2:	e75a      	b.n	800189a <TSK_MediumFrequencyTaskM1+0xb6>
 80019e4:	0028      	movs	r0, r5
 80019e6:	f004 f905 	bl	8005bf4 <ENC_Clear>
 80019ea:	4b0d      	ldr	r3, [pc, #52]	@ (8001a20 <TSK_MediumFrequencyTaskM1+0x23c>)
 80019ec:	6818      	ldr	r0, [r3, #0]
 80019ee:	f001 f9cb 	bl	8002d88 <R1_SwitchOnPWM>
 80019f2:	2000      	movs	r0, #0
 80019f4:	f7ff fea2 	bl	800173c <FOC_InitAdditionalMethods>
 80019f8:	4b0a      	ldr	r3, [pc, #40]	@ (8001a24 <TSK_MediumFrequencyTaskM1+0x240>)
 80019fa:	6818      	ldr	r0, [r3, #0]
 80019fc:	f004 fd52 	bl	80064a4 <STC_ForceSpeedReferenceToCurrentSpeed>
 8001a00:	0020      	movs	r0, r4
 8001a02:	f7ff fbdb 	bl	80011bc <MCI_ExecBufferedCommands>
 8001a06:	2000      	movs	r0, #0
 8001a08:	f7ff fe9a 	bl	8001740 <FOC_CalcCurrRef>
 8001a0c:	2306      	movs	r3, #6
 8001a0e:	e72e      	b.n	800186e <TSK_MediumFrequencyTaskM1+0x8a>
 8001a10:	230b      	movs	r3, #11
 8001a12:	e72c      	b.n	800186e <TSK_MediumFrequencyTaskM1+0x8a>
 8001a14:	20000090 	.word	0x20000090
 8001a18:	20000000 	.word	0x20000000
 8001a1c:	2000069c 	.word	0x2000069c
 8001a20:	200006e0 	.word	0x200006e0
 8001a24:	2000000c 	.word	0x2000000c
 8001a28:	200006ed 	.word	0x200006ed
 8001a2c:	20000110 	.word	0x20000110
 8001a30:	20000074 	.word	0x20000074
 8001a34:	200006e8 	.word	0x200006e8

08001a38 <MC_Scheduler>:
 8001a38:	b570      	push	{r4, r5, r6, lr}
 8001a3a:	4b1d      	ldr	r3, [pc, #116]	@ (8001ab0 <MC_Scheduler+0x78>)
 8001a3c:	781b      	ldrb	r3, [r3, #0]
 8001a3e:	2b01      	cmp	r3, #1
 8001a40:	d116      	bne.n	8001a70 <MC_Scheduler+0x38>
 8001a42:	4c1c      	ldr	r4, [pc, #112]	@ (8001ab4 <MC_Scheduler+0x7c>)
 8001a44:	8823      	ldrh	r3, [r4, #0]
 8001a46:	2b00      	cmp	r3, #0
 8001a48:	d013      	beq.n	8001a72 <MC_Scheduler+0x3a>
 8001a4a:	3b01      	subs	r3, #1
 8001a4c:	b29b      	uxth	r3, r3
 8001a4e:	4a1a      	ldr	r2, [pc, #104]	@ (8001ab8 <MC_Scheduler+0x80>)
 8001a50:	8023      	strh	r3, [r4, #0]
 8001a52:	8813      	ldrh	r3, [r2, #0]
 8001a54:	2b00      	cmp	r3, #0
 8001a56:	d003      	beq.n	8001a60 <MC_Scheduler+0x28>
 8001a58:	8813      	ldrh	r3, [r2, #0]
 8001a5a:	3b01      	subs	r3, #1
 8001a5c:	b29b      	uxth	r3, r3
 8001a5e:	8013      	strh	r3, [r2, #0]
 8001a60:	4a16      	ldr	r2, [pc, #88]	@ (8001abc <MC_Scheduler+0x84>)
 8001a62:	8813      	ldrh	r3, [r2, #0]
 8001a64:	2b00      	cmp	r3, #0
 8001a66:	d003      	beq.n	8001a70 <MC_Scheduler+0x38>
 8001a68:	8813      	ldrh	r3, [r2, #0]
 8001a6a:	3b01      	subs	r3, #1
 8001a6c:	b29b      	uxth	r3, r3
 8001a6e:	8013      	strh	r3, [r2, #0]
 8001a70:	bd70      	pop	{r4, r5, r6, pc}
 8001a72:	f7ff feb7 	bl	80017e4 <TSK_MediumFrequencyTaskM1>
 8001a76:	f7ff fb6c 	bl	8001152 <MC_APP_PostMediumFrequencyHook_M1>
 8001a7a:	4d11      	ldr	r5, [pc, #68]	@ (8001ac0 <MC_Scheduler+0x88>)
 8001a7c:	4911      	ldr	r1, [pc, #68]	@ (8001ac4 <MC_Scheduler+0x8c>)
 8001a7e:	6828      	ldr	r0, [r5, #0]
 8001a80:	6883      	ldr	r3, [r0, #8]
 8001a82:	4798      	blx	r3
 8001a84:	6068      	str	r0, [r5, #4]
 8001a86:	2800      	cmp	r0, #0
 8001a88:	d00f      	beq.n	8001aaa <MC_Scheduler+0x72>
 8001a8a:	6828      	ldr	r0, [r5, #0]
 8001a8c:	220a      	movs	r2, #10
 8001a8e:	490e      	ldr	r1, [pc, #56]	@ (8001ac8 <MC_Scheduler+0x90>)
 8001a90:	6803      	ldr	r3, [r0, #0]
 8001a92:	4798      	blx	r3
 8001a94:	2800      	cmp	r0, #0
 8001a96:	d008      	beq.n	8001aaa <MC_Scheduler+0x72>
 8001a98:	0028      	movs	r0, r5
 8001a9a:	f000 fa29 	bl	8001ef0 <MCP_ReceivedPacket>
 8001a9e:	6828      	ldr	r0, [r5, #0]
 8001aa0:	230a      	movs	r3, #10
 8001aa2:	89ea      	ldrh	r2, [r5, #14]
 8001aa4:	6846      	ldr	r6, [r0, #4]
 8001aa6:	68a9      	ldr	r1, [r5, #8]
 8001aa8:	47b0      	blx	r6
 8001aaa:	2301      	movs	r3, #1
 8001aac:	e7cf      	b.n	8001a4e <MC_Scheduler+0x16>
 8001aae:	46c0      	nop			@ (mov r8, r8)
 8001ab0:	200006d8 	.word	0x200006d8
 8001ab4:	200006de 	.word	0x200006de
 8001ab8:	200006dc 	.word	0x200006dc
 8001abc:	200006da 	.word	0x200006da
 8001ac0:	2000032c 	.word	0x2000032c
 8001ac4:	20000338 	.word	0x20000338
 8001ac8:	20000334 	.word	0x20000334

08001acc <TSK_HighFrequencyTask>:
 8001acc:	b5f0      	push	{r4, r5, r6, r7, lr}
 8001ace:	4840      	ldr	r0, [pc, #256]	@ (8001bd0 <TSK_HighFrequencyTask+0x104>)
 8001ad0:	b089      	sub	sp, #36	@ 0x24
 8001ad2:	f004 f89d 	bl	8005c10 <ENC_CalcAngle>
 8001ad6:	4b3f      	ldr	r3, [pc, #252]	@ (8001bd4 <TSK_HighFrequencyTask+0x108>)
 8001ad8:	6818      	ldr	r0, [r3, #0]
 8001ada:	f004 fc5b 	bl	8006394 <STC_GetSpeedSensor>
 8001ade:	0007      	movs	r7, r0
 8001ae0:	f004 fc00 	bl	80062e4 <SPD_GetElAngle>
 8001ae4:	4e3c      	ldr	r6, [pc, #240]	@ (8001bd8 <TSK_HighFrequencyTask+0x10c>)
 8001ae6:	0005      	movs	r5, r0
 8001ae8:	a905      	add	r1, sp, #20
 8001aea:	6830      	ldr	r0, [r6, #0]
 8001aec:	f000 faba 	bl	8002064 <PWMC_GetPhaseCurrents>
 8001af0:	f002 f9d8 	bl	8003ea4 <RCM_ExecNextConv>
 8001af4:	9805      	ldr	r0, [sp, #20]
 8001af6:	f7ff fc7f 	bl	80013f8 <MCM_Clarke>
 8001afa:	0029      	movs	r1, r5
 8001afc:	9006      	str	r0, [sp, #24]
 8001afe:	f7ff fced 	bl	80014dc <MCM_Park>
 8001b02:	4c36      	ldr	r4, [pc, #216]	@ (8001bdc <TSK_HighFrequencyTask+0x110>)
 8001b04:	9003      	str	r0, [sp, #12]
 8001b06:	2310      	movs	r3, #16
 8001b08:	5ee1      	ldrsh	r1, [r4, r3]
 8001b0a:	4b35      	ldr	r3, [pc, #212]	@ (8001be0 <TSK_HighFrequencyTask+0x114>)
 8001b0c:	b200      	sxth	r0, r0
 8001b0e:	1a09      	subs	r1, r1, r0
 8001b10:	6818      	ldr	r0, [r3, #0]
 8001b12:	f004 faf1 	bl	80060f8 <PI_Controller>
 8001b16:	9000      	str	r0, [sp, #0]
 8001b18:	2312      	movs	r3, #18
 8001b1a:	5ee1      	ldrsh	r1, [r4, r3]
 8001b1c:	ab02      	add	r3, sp, #8
 8001b1e:	2206      	movs	r2, #6
 8001b20:	5e9b      	ldrsh	r3, [r3, r2]
 8001b22:	1ac9      	subs	r1, r1, r3
 8001b24:	4b2f      	ldr	r3, [pc, #188]	@ (8001be4 <TSK_HighFrequencyTask+0x118>)
 8001b26:	6818      	ldr	r0, [r3, #0]
 8001b28:	f004 fae6 	bl	80060f8 <PI_Controller>
 8001b2c:	9a00      	ldr	r2, [sp, #0]
 8001b2e:	ab04      	add	r3, sp, #16
 8001b30:	801a      	strh	r2, [r3, #0]
 8001b32:	8058      	strh	r0, [r3, #2]
 8001b34:	9904      	ldr	r1, [sp, #16]
 8001b36:	482c      	ldr	r0, [pc, #176]	@ (8001be8 <TSK_HighFrequencyTask+0x11c>)
 8001b38:	f003 ffaa 	bl	8005a90 <Circle_Limitation>
 8001b3c:	b203      	sxth	r3, r0
 8001b3e:	9004      	str	r0, [sp, #16]
 8001b40:	9300      	str	r3, [sp, #0]
 8001b42:	1403      	asrs	r3, r0, #16
 8001b44:	0038      	movs	r0, r7
 8001b46:	9301      	str	r3, [sp, #4]
 8001b48:	f004 fbd2 	bl	80062f0 <SPD_GetInstElSpeedDpp>
 8001b4c:	0029      	movs	r1, r5
 8001b4e:	9804      	ldr	r0, [sp, #16]
 8001b50:	f7ff fd06 	bl	8001560 <MCM_Rev_Park>
 8001b54:	9007      	str	r0, [sp, #28]
 8001b56:	f002 f9db 	bl	8003f10 <RCM_ReadOngoingConv>
 8001b5a:	9907      	ldr	r1, [sp, #28]
 8001b5c:	6830      	ldr	r0, [r6, #0]
 8001b5e:	f000 fa85 	bl	800206c <PWMC_SetPhaseVoltage>
 8001b62:	002a      	movs	r2, r5
 8001b64:	9903      	ldr	r1, [sp, #12]
 8001b66:	0007      	movs	r7, r0
 8001b68:	6830      	ldr	r0, [r6, #0]
 8001b6a:	f000 fbdc 	bl	8002326 <PWMC_CalcPhaseCurrentsEst>
 8001b6e:	9b00      	ldr	r3, [sp, #0]
 8001b70:	2204      	movs	r2, #4
 8001b72:	82e3      	strh	r3, [r4, #22]
 8001b74:	9b01      	ldr	r3, [sp, #4]
 8001b76:	a905      	add	r1, sp, #20
 8001b78:	0020      	movs	r0, r4
 8001b7a:	8323      	strh	r3, [r4, #24]
 8001b7c:	f004 fd22 	bl	80065c4 <memcpy>
 8001b80:	2204      	movs	r2, #4
 8001b82:	a906      	add	r1, sp, #24
 8001b84:	1d20      	adds	r0, r4, #4
 8001b86:	f004 fd1d 	bl	80065c4 <memcpy>
 8001b8a:	0020      	movs	r0, r4
 8001b8c:	2204      	movs	r2, #4
 8001b8e:	a903      	add	r1, sp, #12
 8001b90:	300c      	adds	r0, #12
 8001b92:	f004 fd17 	bl	80065c4 <memcpy>
 8001b96:	0020      	movs	r0, r4
 8001b98:	2204      	movs	r2, #4
 8001b9a:	301a      	adds	r0, #26
 8001b9c:	a907      	add	r1, sp, #28
 8001b9e:	f004 fd11 	bl	80065c4 <memcpy>
 8001ba2:	8425      	strh	r5, [r4, #32]
 8001ba4:	2f01      	cmp	r7, #1
 8001ba6:	d104      	bne.n	8001bb2 <TSK_HighFrequencyTask+0xe6>
 8001ba8:	2200      	movs	r2, #0
 8001baa:	0039      	movs	r1, r7
 8001bac:	480f      	ldr	r0, [pc, #60]	@ (8001bec <TSK_HighFrequencyTask+0x120>)
 8001bae:	f7ff fafd 	bl	80011ac <MCI_FaultProcessing>
 8001bb2:	4a0f      	ldr	r2, [pc, #60]	@ (8001bf0 <TSK_HighFrequencyTask+0x124>)
 8001bb4:	480f      	ldr	r0, [pc, #60]	@ (8001bf4 <TSK_HighFrequencyTask+0x128>)
 8001bb6:	6813      	ldr	r3, [r2, #0]
 8001bb8:	3301      	adds	r3, #1
 8001bba:	6013      	str	r3, [r2, #0]
 8001bbc:	4b0e      	ldr	r3, [pc, #56]	@ (8001bf8 <TSK_HighFrequencyTask+0x12c>)
 8001bbe:	781b      	ldrb	r3, [r3, #0]
 8001bc0:	2b00      	cmp	r3, #0
 8001bc2:	d001      	beq.n	8001bc8 <TSK_HighFrequencyTask+0xfc>
 8001bc4:	f004 f8fa 	bl	8005dbc <MCPA_dataLog>
 8001bc8:	2000      	movs	r0, #0
 8001bca:	b009      	add	sp, #36	@ 0x24
 8001bcc:	bdf0      	pop	{r4, r5, r6, r7, pc}
 8001bce:	46c0      	nop			@ (mov r8, r8)
 8001bd0:	20000090 	.word	0x20000090
 8001bd4:	2000000c 	.word	0x2000000c
 8001bd8:	200006e0 	.word	0x200006e0
 8001bdc:	200006e8 	.word	0x200006e8
 8001be0:	20000008 	.word	0x20000008
 8001be4:	20000004 	.word	0x20000004
 8001be8:	20000010 	.word	0x20000010
 8001bec:	2000069c 	.word	0x2000069c
 8001bf0:	200009f8 	.word	0x200009f8
 8001bf4:	20000300 	.word	0x20000300
 8001bf8:	20000329 	.word	0x20000329

08001bfc <TSK_SafetyTask_PWMOFF>:
 8001bfc:	b5f7      	push	{r0, r1, r2, r4, r5, r6, r7, lr}
 8001bfe:	4f1f      	ldr	r7, [pc, #124]	@ (8001c7c <TSK_SafetyTask_PWMOFF+0x80>)
 8001c00:	0086      	lsls	r6, r0, #2
 8001c02:	0004      	movs	r4, r0
 8001c04:	59f0      	ldr	r0, [r6, r7]
 8001c06:	f000 fbe3 	bl	80023d0 <PWMC_IsFaultOccurred>
 8001c0a:	0005      	movs	r5, r0
 8001c0c:	2c00      	cmp	r4, #0
 8001c0e:	d10b      	bne.n	8001c28 <TSK_SafetyTask_PWMOFF+0x2c>
 8001c10:	481b      	ldr	r0, [pc, #108]	@ (8001c80 <TSK_SafetyTask_PWMOFF+0x84>)
 8001c12:	f002 f885 	bl	8003d20 <RCM_ExecRegularConv>
 8001c16:	4b1b      	ldr	r3, [pc, #108]	@ (8001c84 <TSK_SafetyTask_PWMOFF+0x88>)
 8001c18:	0001      	movs	r1, r0
 8001c1a:	0018      	movs	r0, r3
 8001c1c:	f004 fb30 	bl	8006280 <RVBS_CalcAvVbus>
 8001c20:	2308      	movs	r3, #8
 8001c22:	4398      	bics	r0, r3
 8001c24:	4305      	orrs	r5, r0
 8001c26:	b2ad      	uxth	r5, r5
 8001c28:	2328      	movs	r3, #40	@ 0x28
 8001c2a:	4363      	muls	r3, r4
 8001c2c:	4a16      	ldr	r2, [pc, #88]	@ (8001c88 <TSK_SafetyTask_PWMOFF+0x8c>)
 8001c2e:	0029      	movs	r1, r5
 8001c30:	189b      	adds	r3, r3, r2
 8001c32:	43ea      	mvns	r2, r5
 8001c34:	0018      	movs	r0, r3
 8001c36:	b292      	uxth	r2, r2
 8001c38:	9301      	str	r3, [sp, #4]
 8001c3a:	f7ff fab7 	bl	80011ac <MCI_FaultProcessing>
 8001c3e:	9801      	ldr	r0, [sp, #4]
 8001c40:	f7ff fb5a 	bl	80012f8 <MCI_GetFaultState>
 8001c44:	2800      	cmp	r0, #0
 8001c46:	d017      	beq.n	8001c78 <TSK_SafetyTask_PWMOFF+0x7c>
 8001c48:	4b10      	ldr	r3, [pc, #64]	@ (8001c8c <TSK_SafetyTask_PWMOFF+0x90>)
 8001c4a:	5998      	ldr	r0, [r3, r6]
 8001c4c:	2800      	cmp	r0, #0
 8001c4e:	d002      	beq.n	8001c56 <TSK_SafetyTask_PWMOFF+0x5a>
 8001c50:	2100      	movs	r1, #0
 8001c52:	f003 ff94 	bl	8005b7e <EAC_SetRestartState>
 8001c56:	59b8      	ldr	r0, [r7, r6]
 8001c58:	f000 fb42 	bl	80022e0 <PWMC_SwitchOffPWM>
 8001c5c:	4b0c      	ldr	r3, [pc, #48]	@ (8001c90 <TSK_SafetyTask_PWMOFF+0x94>)
 8001c5e:	480d      	ldr	r0, [pc, #52]	@ (8001c94 <TSK_SafetyTask_PWMOFF+0x98>)
 8001c60:	781b      	ldrb	r3, [r3, #0]
 8001c62:	2b00      	cmp	r3, #0
 8001c64:	d001      	beq.n	8001c6a <TSK_SafetyTask_PWMOFF+0x6e>
 8001c66:	f004 f959 	bl	8005f1c <MCPA_flushDataLog>
 8001c6a:	0020      	movs	r0, r4
 8001c6c:	f7ff fc9c 	bl	80015a8 <FOC_Clear>
 8001c70:	4b09      	ldr	r3, [pc, #36]	@ (8001c98 <TSK_SafetyTask_PWMOFF+0x9c>)
 8001c72:	5998      	ldr	r0, [r3, r6]
 8001c74:	f004 fa96 	bl	80061a4 <PQD_Clear>
 8001c78:	bdf7      	pop	{r0, r1, r2, r4, r5, r6, r7, pc}
 8001c7a:	46c0      	nop			@ (mov r8, r8)
 8001c7c:	200006e0 	.word	0x200006e0
 8001c80:	20000048 	.word	0x20000048
 8001c84:	2000002c 	.word	0x2000002c
 8001c88:	2000069c 	.word	0x2000069c
 8001c8c:	200006e4 	.word	0x200006e4
 8001c90:	20000329 	.word	0x20000329
 8001c94:	20000300 	.word	0x20000300
 8001c98:	20000000 	.word	0x20000000

08001c9c <TSK_SafetyTask>:
 8001c9c:	b510      	push	{r4, lr}
 8001c9e:	4b05      	ldr	r3, [pc, #20]	@ (8001cb4 <TSK_SafetyTask+0x18>)
 8001ca0:	781b      	ldrb	r3, [r3, #0]
 8001ca2:	2b01      	cmp	r3, #1
 8001ca4:	d104      	bne.n	8001cb0 <TSK_SafetyTask+0x14>
 8001ca6:	2000      	movs	r0, #0
 8001ca8:	f7ff ffa8 	bl	8001bfc <TSK_SafetyTask_PWMOFF>
 8001cac:	f002 f8ca 	bl	8003e44 <RCM_ExecUserConv>
 8001cb0:	bd10      	pop	{r4, pc}
 8001cb2:	46c0      	nop			@ (mov r8, r8)
 8001cb4:	200006d8 	.word	0x200006d8

08001cb8 <MC_RunMotorControlTasks>:
 8001cb8:	b510      	push	{r4, lr}
 8001cba:	4b04      	ldr	r3, [pc, #16]	@ (8001ccc <MC_RunMotorControlTasks+0x14>)
 8001cbc:	781b      	ldrb	r3, [r3, #0]
 8001cbe:	2b00      	cmp	r3, #0
 8001cc0:	d003      	beq.n	8001cca <MC_RunMotorControlTasks+0x12>
 8001cc2:	f7ff feb9 	bl	8001a38 <MC_Scheduler>
 8001cc6:	f7ff ffe9 	bl	8001c9c <TSK_SafetyTask>
 8001cca:	bd10      	pop	{r4, pc}
 8001ccc:	200006d8 	.word	0x200006d8

08001cd0 <TSK_HardwareFaultTask>:
 8001cd0:	b510      	push	{r4, lr}
 8001cd2:	4b05      	ldr	r3, [pc, #20]	@ (8001ce8 <TSK_HardwareFaultTask+0x18>)
 8001cd4:	6818      	ldr	r0, [r3, #0]
 8001cd6:	f001 f967 	bl	8002fa8 <R1_SwitchOffPWM>
 8001cda:	2200      	movs	r2, #0
 8001cdc:	2180      	movs	r1, #128	@ 0x80
 8001cde:	4803      	ldr	r0, [pc, #12]	@ (8001cec <TSK_HardwareFaultTask+0x1c>)
 8001ce0:	f7ff fa64 	bl	80011ac <MCI_FaultProcessing>
 8001ce4:	bd10      	pop	{r4, pc}
 8001ce6:	46c0      	nop			@ (mov r8, r8)
 8001ce8:	200006e0 	.word	0x200006e0
 8001cec:	2000069c 	.word	0x2000069c

08001cf0 <UI_HandleStartStopButton_cb>:
 8001cf0:	b510      	push	{r4, lr}
 8001cf2:	f7ff fa23 	bl	800113c <MC_GetSTMStateMotor1>
 8001cf6:	2800      	cmp	r0, #0
 8001cf8:	d102      	bne.n	8001d00 <UI_HandleStartStopButton_cb+0x10>
 8001cfa:	f7ff fa0f 	bl	800111c <MC_StartMotor1>
 8001cfe:	bd10      	pop	{r4, pc}
 8001d00:	f7ff fa14 	bl	800112c <MC_StopMotor1>
 8001d04:	e7fb      	b.n	8001cfe <UI_HandleStartStopButton_cb+0xe>
	...

08001d08 <mc_lock_pins>:
 8001d08:	b570      	push	{r4, r5, r6, lr}
 8001d0a:	2490      	movs	r4, #144	@ 0x90
 8001d0c:	05e4      	lsls	r4, r4, #23
 8001d0e:	4d1d      	ldr	r5, [pc, #116]	@ (8001d84 <mc_lock_pins+0x7c>)
 8001d10:	0020      	movs	r0, r4
 8001d12:	2120      	movs	r1, #32
 8001d14:	f7ff fc3c 	bl	8001590 <LL_GPIO_LockPin>
 8001d18:	0028      	movs	r0, r5
 8001d1a:	2102      	movs	r1, #2
 8001d1c:	f7ff fc38 	bl	8001590 <LL_GPIO_LockPin>
 8001d20:	0020      	movs	r0, r4
 8001d22:	2102      	movs	r1, #2
 8001d24:	f7ff fc34 	bl	8001590 <LL_GPIO_LockPin>
 8001d28:	0020      	movs	r0, r4
 8001d2a:	2101      	movs	r1, #1
 8001d2c:	f7ff fc30 	bl	8001590 <LL_GPIO_LockPin>
 8001d30:	2180      	movs	r1, #128	@ 0x80
 8001d32:	0020      	movs	r0, r4
 8001d34:	0049      	lsls	r1, r1, #1
 8001d36:	f7ff fc2b 	bl	8001590 <LL_GPIO_LockPin>
 8001d3a:	2180      	movs	r1, #128	@ 0x80
 8001d3c:	0020      	movs	r0, r4
 8001d3e:	0089      	lsls	r1, r1, #2
 8001d40:	f7ff fc26 	bl	8001590 <LL_GPIO_LockPin>
 8001d44:	2180      	movs	r1, #128	@ 0x80
 8001d46:	0028      	movs	r0, r5
 8001d48:	0149      	lsls	r1, r1, #5
 8001d4a:	f7ff fc21 	bl	8001590 <LL_GPIO_LockPin>
 8001d4e:	2180      	movs	r1, #128	@ 0x80
 8001d50:	0028      	movs	r0, r5
 8001d52:	01c9      	lsls	r1, r1, #7
 8001d54:	f7ff fc1c 	bl	8001590 <LL_GPIO_LockPin>
 8001d58:	2180      	movs	r1, #128	@ 0x80
 8001d5a:	0020      	movs	r0, r4
 8001d5c:	00c9      	lsls	r1, r1, #3
 8001d5e:	f7ff fc17 	bl	8001590 <LL_GPIO_LockPin>
 8001d62:	2180      	movs	r1, #128	@ 0x80
 8001d64:	0028      	movs	r0, r5
 8001d66:	0209      	lsls	r1, r1, #8
 8001d68:	f7ff fc12 	bl	8001590 <LL_GPIO_LockPin>
 8001d6c:	2180      	movs	r1, #128	@ 0x80
 8001d6e:	0028      	movs	r0, r5
 8001d70:	0189      	lsls	r1, r1, #6
 8001d72:	f7ff fc0d 	bl	8001590 <LL_GPIO_LockPin>
 8001d76:	2180      	movs	r1, #128	@ 0x80
 8001d78:	0020      	movs	r0, r4
 8001d7a:	0109      	lsls	r1, r1, #4
 8001d7c:	f7ff fc08 	bl	8001590 <LL_GPIO_LockPin>
 8001d80:	bd70      	pop	{r4, r5, r6, pc}
 8001d82:	46c0      	nop			@ (mov r8, r8)
 8001d84:	48000400 	.word	0x48000400

08001d88 <RI_SetRegCommandParser>:
 8001d88:	b5f0      	push	{r4, r5, r6, r7, lr}
 8001d8a:	2600      	movs	r6, #0
 8001d8c:	6882      	ldr	r2, [r0, #8]
 8001d8e:	b08b      	sub	sp, #44	@ 0x2c
 8001d90:	9103      	str	r1, [sp, #12]
 8001d92:	9204      	str	r2, [sp, #16]
 8001d94:	210c      	movs	r1, #12
 8001d96:	5e42      	ldrsh	r2, [r0, r1]
 8001d98:	0005      	movs	r5, r0
 8001d9a:	6843      	ldr	r3, [r0, #4]
 8001d9c:	200e      	movs	r0, #14
 8001d9e:	0034      	movs	r4, r6
 8001da0:	a904      	add	r1, sp, #16
 8001da2:	1840      	adds	r0, r0, r1
 8001da4:	8006      	strh	r6, [r0, #0]
 8001da6:	482a      	ldr	r0, [pc, #168]	@ (8001e50 <RI_SetRegCommandParser+0xc8>)
 8001da8:	81ee      	strh	r6, [r5, #14]
 8001daa:	9008      	str	r0, [sp, #32]
 8001dac:	4829      	ldr	r0, [pc, #164]	@ (8001e54 <RI_SetRegCommandParser+0xcc>)
 8001dae:	9009      	str	r0, [sp, #36]	@ 0x24
 8001db0:	2a00      	cmp	r2, #0
 8001db2:	dc05      	bgt.n	8001dc0 <RI_SetRegCommandParser+0x38>
 8001db4:	2c00      	cmp	r4, #0
 8001db6:	d100      	bne.n	8001dba <RI_SetRegCommandParser+0x32>
 8001db8:	81ec      	strh	r4, [r5, #14]
 8001dba:	0020      	movs	r0, r4
 8001dbc:	b00b      	add	sp, #44	@ 0x2c
 8001dbe:	bdf0      	pop	{r4, r5, r6, r7, pc}
 8001dc0:	1c99      	adds	r1, r3, #2
 8001dc2:	9102      	str	r1, [sp, #8]
 8001dc4:	2106      	movs	r1, #6
 8001dc6:	8818      	ldrh	r0, [r3, #0]
 8001dc8:	3601      	adds	r6, #1
 8001dca:	b2f6      	uxtb	r6, r6
 8001dcc:	b2c3      	uxtb	r3, r0
 8001dce:	4208      	tst	r0, r1
 8001dd0:	d13a      	bne.n	8001e48 <RI_SetRegCommandParser+0xc0>
 8001dd2:	3a02      	subs	r2, #2
 8001dd4:	b291      	uxth	r1, r2
 8001dd6:	2707      	movs	r7, #7
 8001dd8:	9105      	str	r1, [sp, #20]
 8001dda:	2138      	movs	r1, #56	@ 0x38
 8001ddc:	b212      	sxth	r2, r2
 8001dde:	4019      	ands	r1, r3
 8001de0:	403b      	ands	r3, r7
 8001de2:	9200      	str	r2, [sp, #0]
 8001de4:	009b      	lsls	r3, r3, #2
 8001de6:	aa08      	add	r2, sp, #32
 8001de8:	43b8      	bics	r0, r7
 8001dea:	589f      	ldr	r7, [r3, r2]
 8001dec:	230e      	movs	r3, #14
 8001dee:	aa04      	add	r2, sp, #16
 8001df0:	189b      	adds	r3, r3, r2
 8001df2:	9a02      	ldr	r2, [sp, #8]
 8001df4:	47b8      	blx	r7
 8001df6:	ab04      	add	r3, sp, #16
 8001df8:	89db      	ldrh	r3, [r3, #14]
 8001dfa:	9902      	ldr	r1, [sp, #8]
 8001dfc:	9a05      	ldr	r2, [sp, #20]
 8001dfe:	1ad2      	subs	r2, r2, r3
 8001e00:	18cb      	adds	r3, r1, r3
 8001e02:	b212      	sxth	r2, r2
 8001e04:	9302      	str	r3, [sp, #8]
 8001e06:	2e01      	cmp	r6, #1
 8001e08:	d101      	bne.n	8001e0e <RI_SetRegCommandParser+0x86>
 8001e0a:	2a00      	cmp	r2, #0
 8001e0c:	d017      	beq.n	8001e3e <RI_SetRegCommandParser+0xb6>
 8001e0e:	9b03      	ldr	r3, [sp, #12]
 8001e10:	2b00      	cmp	r3, #0
 8001e12:	d016      	beq.n	8001e42 <RI_SetRegCommandParser+0xba>
 8001e14:	9b04      	ldr	r3, [sp, #16]
 8001e16:	7018      	strb	r0, [r3, #0]
 8001e18:	3301      	adds	r3, #1
 8001e1a:	9304      	str	r3, [sp, #16]
 8001e1c:	89eb      	ldrh	r3, [r5, #14]
 8001e1e:	3301      	adds	r3, #1
 8001e20:	81eb      	strh	r3, [r5, #14]
 8001e22:	9b03      	ldr	r3, [sp, #12]
 8001e24:	3b01      	subs	r3, #1
 8001e26:	b29b      	uxth	r3, r3
 8001e28:	9303      	str	r3, [sp, #12]
 8001e2a:	2800      	cmp	r0, #0
 8001e2c:	d005      	beq.n	8001e3a <RI_SetRegCommandParser+0xb2>
 8001e2e:	2807      	cmp	r0, #7
 8001e30:	d00a      	beq.n	8001e48 <RI_SetRegCommandParser+0xc0>
 8001e32:	2401      	movs	r4, #1
 8001e34:	280a      	cmp	r0, #10
 8001e36:	d100      	bne.n	8001e3a <RI_SetRegCommandParser+0xb2>
 8001e38:	2200      	movs	r2, #0
 8001e3a:	9b02      	ldr	r3, [sp, #8]
 8001e3c:	e7b8      	b.n	8001db0 <RI_SetRegCommandParser+0x28>
 8001e3e:	0004      	movs	r4, r0
 8001e40:	e7fb      	b.n	8001e3a <RI_SetRegCommandParser+0xb2>
 8001e42:	2408      	movs	r4, #8
 8001e44:	9a03      	ldr	r2, [sp, #12]
 8001e46:	e7f8      	b.n	8001e3a <RI_SetRegCommandParser+0xb2>
 8001e48:	2200      	movs	r2, #0
 8001e4a:	2401      	movs	r4, #1
 8001e4c:	e7f5      	b.n	8001e3a <RI_SetRegCommandParser+0xb2>
 8001e4e:	46c0      	nop			@ (mov r8, r8)
 8001e50:	0800325d 	.word	0x0800325d
 8001e54:	08003315 	.word	0x08003315

08001e58 <RI_GetRegCommandParser>:
 8001e58:	220e      	movs	r2, #14
 8001e5a:	b5f0      	push	{r4, r5, r6, r7, lr}
 8001e5c:	6883      	ldr	r3, [r0, #8]
 8001e5e:	b08b      	sub	sp, #44	@ 0x2c
 8001e60:	9303      	str	r3, [sp, #12]
 8001e62:	2300      	movs	r3, #0
 8001e64:	0004      	movs	r4, r0
 8001e66:	a804      	add	r0, sp, #16
 8001e68:	1812      	adds	r2, r2, r0
 8001e6a:	2001      	movs	r0, #1
 8001e6c:	8013      	strh	r3, [r2, #0]
 8001e6e:	4a1e      	ldr	r2, [pc, #120]	@ (8001ee8 <RI_GetRegCommandParser+0x90>)
 8001e70:	89a5      	ldrh	r5, [r4, #12]
 8001e72:	81e3      	strh	r3, [r4, #14]
 8001e74:	9208      	str	r2, [sp, #32]
 8001e76:	6863      	ldr	r3, [r4, #4]
 8001e78:	4a1c      	ldr	r2, [pc, #112]	@ (8001eec <RI_GetRegCommandParser+0x94>)
 8001e7a:	b20f      	sxth	r7, r1
 8001e7c:	9209      	str	r2, [sp, #36]	@ 0x24
 8001e7e:	9304      	str	r3, [sp, #16]
 8001e80:	2d00      	cmp	r5, #0
 8001e82:	d101      	bne.n	8001e88 <RI_GetRegCommandParser+0x30>
 8001e84:	b00b      	add	sp, #44	@ 0x2c
 8001e86:	bdf0      	pop	{r4, r5, r6, r7, pc}
 8001e88:	2206      	movs	r2, #6
 8001e8a:	9b04      	ldr	r3, [sp, #16]
 8001e8c:	8818      	ldrh	r0, [r3, #0]
 8001e8e:	4002      	ands	r2, r0
 8001e90:	9205      	str	r2, [sp, #20]
 8001e92:	2206      	movs	r2, #6
 8001e94:	b2c3      	uxtb	r3, r0
 8001e96:	4210      	tst	r0, r2
 8001e98:	d120      	bne.n	8001edc <RI_GetRegCommandParser+0x84>
 8001e9a:	2138      	movs	r1, #56	@ 0x38
 8001e9c:	3201      	adds	r2, #1
 8001e9e:	4019      	ands	r1, r3
 8001ea0:	4013      	ands	r3, r2
 8001ea2:	4390      	bics	r0, r2
 8001ea4:	009b      	lsls	r3, r3, #2
 8001ea6:	aa08      	add	r2, sp, #32
 8001ea8:	9700      	str	r7, [sp, #0]
 8001eaa:	589b      	ldr	r3, [r3, r2]
 8001eac:	aa04      	add	r2, sp, #16
 8001eae:	001e      	movs	r6, r3
 8001eb0:	230e      	movs	r3, #14
 8001eb2:	189b      	adds	r3, r3, r2
 8001eb4:	9a03      	ldr	r2, [sp, #12]
 8001eb6:	47b0      	blx	r6
 8001eb8:	2800      	cmp	r0, #0
 8001eba:	d112      	bne.n	8001ee2 <RI_GetRegCommandParser+0x8a>
 8001ebc:	ab04      	add	r3, sp, #16
 8001ebe:	89db      	ldrh	r3, [r3, #14]
 8001ec0:	9a03      	ldr	r2, [sp, #12]
 8001ec2:	3d02      	subs	r5, #2
 8001ec4:	18d2      	adds	r2, r2, r3
 8001ec6:	9203      	str	r2, [sp, #12]
 8001ec8:	89e2      	ldrh	r2, [r4, #14]
 8001eca:	1aff      	subs	r7, r7, r3
 8001ecc:	189a      	adds	r2, r3, r2
 8001ece:	b2ad      	uxth	r5, r5
 8001ed0:	81e2      	strh	r2, [r4, #14]
 8001ed2:	b23f      	sxth	r7, r7
 8001ed4:	9b04      	ldr	r3, [sp, #16]
 8001ed6:	3302      	adds	r3, #2
 8001ed8:	9304      	str	r3, [sp, #16]
 8001eda:	e7d1      	b.n	8001e80 <RI_GetRegCommandParser+0x28>
 8001edc:	2500      	movs	r5, #0
 8001ede:	2001      	movs	r0, #1
 8001ee0:	e7f8      	b.n	8001ed4 <RI_GetRegCommandParser+0x7c>
 8001ee2:	9d05      	ldr	r5, [sp, #20]
 8001ee4:	e7f6      	b.n	8001ed4 <RI_GetRegCommandParser+0x7c>
 8001ee6:	46c0      	nop			@ (mov r8, r8)
 8001ee8:	080036a1 	.word	0x080036a1
 8001eec:	0800374d 	.word	0x0800374d

08001ef0 <MCP_ReceivedPacket>:
 8001ef0:	6841      	ldr	r1, [r0, #4]
 8001ef2:	b5f0      	push	{r4, r5, r6, r7, lr}
 8001ef4:	880d      	ldrh	r5, [r1, #0]
 8001ef6:	2307      	movs	r3, #7
 8001ef8:	002a      	movs	r2, r5
 8001efa:	439a      	bics	r2, r3
 8001efc:	0004      	movs	r4, r0
 8001efe:	0013      	movs	r3, r2
 8001f00:	0028      	movs	r0, r5
 8001f02:	22ff      	movs	r2, #255	@ 0xff
 8001f04:	4390      	bics	r0, r2
 8001f06:	0002      	movs	r2, r0
 8001f08:	2080      	movs	r0, #128	@ 0x80
 8001f0a:	2600      	movs	r6, #0
 8001f0c:	b085      	sub	sp, #20
 8001f0e:	0040      	lsls	r0, r0, #1
 8001f10:	4282      	cmp	r2, r0
 8001f12:	d102      	bne.n	8001f1a <MCP_ReceivedPacket+0x2a>
 8001f14:	b2db      	uxtb	r3, r3
 8001f16:	08de      	lsrs	r6, r3, #3
 8001f18:	0013      	movs	r3, r2
 8001f1a:	2207      	movs	r2, #7
 8001f1c:	3d01      	subs	r5, #1
 8001f1e:	4015      	ands	r5, r2
 8001f20:	3221      	adds	r2, #33	@ 0x21
 8001f22:	4355      	muls	r5, r2
 8001f24:	89a0      	ldrh	r0, [r4, #12]
 8001f26:	4a40      	ldr	r2, [pc, #256]	@ (8002028 <MCP_ReceivedPacket+0x138>)
 8001f28:	3802      	subs	r0, #2
 8001f2a:	18ad      	adds	r5, r5, r2
 8001f2c:	b280      	uxth	r0, r0
 8001f2e:	6822      	ldr	r2, [r4, #0]
 8001f30:	3102      	adds	r1, #2
 8001f32:	81a0      	strh	r0, [r4, #12]
 8001f34:	6061      	str	r1, [r4, #4]
 8001f36:	8992      	ldrh	r2, [r2, #12]
 8001f38:	3a01      	subs	r2, #1
 8001f3a:	b297      	uxth	r7, r2
 8001f3c:	b212      	sxth	r2, r2
 8001f3e:	9203      	str	r2, [sp, #12]
 8001f40:	2200      	movs	r2, #0
 8001f42:	81e2      	strh	r2, [r4, #14]
 8001f44:	2b28      	cmp	r3, #40	@ 0x28
 8001f46:	d04e      	beq.n	8001fe6 <MCP_ReceivedPacket+0xf6>
 8001f48:	d817      	bhi.n	8001f7a <MCP_ReceivedPacket+0x8a>
 8001f4a:	2b10      	cmp	r3, #16
 8001f4c:	d042      	beq.n	8001fd4 <MCP_ReceivedPacket+0xe4>
 8001f4e:	d80c      	bhi.n	8001f6a <MCP_ReceivedPacket+0x7a>
 8001f50:	4293      	cmp	r3, r2
 8001f52:	d032      	beq.n	8001fba <MCP_ReceivedPacket+0xca>
 8001f54:	2b08      	cmp	r3, #8
 8001f56:	d037      	beq.n	8001fc8 <MCP_ReceivedPacket+0xd8>
 8001f58:	2302      	movs	r3, #2
 8001f5a:	89e2      	ldrh	r2, [r4, #14]
 8001f5c:	68a1      	ldr	r1, [r4, #8]
 8001f5e:	548b      	strb	r3, [r1, r2]
 8001f60:	89e3      	ldrh	r3, [r4, #14]
 8001f62:	3301      	adds	r3, #1
 8001f64:	81e3      	strh	r3, [r4, #14]
 8001f66:	b005      	add	sp, #20
 8001f68:	bdf0      	pop	{r4, r5, r6, r7, pc}
 8001f6a:	2b18      	cmp	r3, #24
 8001f6c:	d037      	beq.n	8001fde <MCP_ReceivedPacket+0xee>
 8001f6e:	2b20      	cmp	r3, #32
 8001f70:	d1f2      	bne.n	8001f58 <MCP_ReceivedPacket+0x68>
 8001f72:	0028      	movs	r0, r5
 8001f74:	f7ff f991 	bl	800129a <MCI_StopMotor>
 8001f78:	e024      	b.n	8001fc4 <MCP_ReceivedPacket+0xd4>
 8001f7a:	2b48      	cmp	r3, #72	@ 0x48
 8001f7c:	d048      	beq.n	8002010 <MCP_ReceivedPacket+0x120>
 8001f7e:	d807      	bhi.n	8001f90 <MCP_ReceivedPacket+0xa0>
 8001f80:	2b30      	cmp	r3, #48	@ 0x30
 8001f82:	d039      	beq.n	8001ff8 <MCP_ReceivedPacket+0x108>
 8001f84:	2b38      	cmp	r3, #56	@ 0x38
 8001f86:	d1e7      	bne.n	8001f58 <MCP_ReceivedPacket+0x68>
 8001f88:	0028      	movs	r0, r5
 8001f8a:	f7ff f9a3 	bl	80012d4 <MCI_FaultAcknowledged>
 8001f8e:	e019      	b.n	8001fc4 <MCP_ReceivedPacket+0xd4>
 8001f90:	68a7      	ldr	r7, [r4, #8]
 8001f92:	2b68      	cmp	r3, #104	@ 0x68
 8001f94:	d040      	beq.n	8002018 <MCP_ReceivedPacket+0x128>
 8001f96:	2580      	movs	r5, #128	@ 0x80
 8001f98:	006d      	lsls	r5, r5, #1
 8001f9a:	42ab      	cmp	r3, r5
 8001f9c:	d1dc      	bne.n	8001f58 <MCP_ReceivedPacket+0x68>
 8001f9e:	230d      	movs	r3, #13
 8001fa0:	2e01      	cmp	r6, #1
 8001fa2:	d8da      	bhi.n	8001f5a <MCP_ReceivedPacket+0x6a>
 8001fa4:	4d21      	ldr	r5, [pc, #132]	@ (800202c <MCP_ReceivedPacket+0x13c>)
 8001fa6:	00b6      	lsls	r6, r6, #2
 8001fa8:	5975      	ldr	r5, [r6, r5]
 8001faa:	2d00      	cmp	r5, #0
 8001fac:	d0d5      	beq.n	8001f5a <MCP_ReceivedPacket+0x6a>
 8001fae:	0023      	movs	r3, r4
 8001fb0:	9a03      	ldr	r2, [sp, #12]
 8001fb2:	9700      	str	r7, [sp, #0]
 8001fb4:	330e      	adds	r3, #14
 8001fb6:	47a8      	blx	r5
 8001fb8:	e00a      	b.n	8001fd0 <MCP_ReceivedPacket+0xe0>
 8001fba:	2304      	movs	r3, #4
 8001fbc:	2201      	movs	r2, #1
 8001fbe:	81e3      	strh	r3, [r4, #14]
 8001fc0:	68a3      	ldr	r3, [r4, #8]
 8001fc2:	701a      	strb	r2, [r3, #0]
 8001fc4:	2300      	movs	r3, #0
 8001fc6:	e7c8      	b.n	8001f5a <MCP_ReceivedPacket+0x6a>
 8001fc8:	0039      	movs	r1, r7
 8001fca:	0020      	movs	r0, r4
 8001fcc:	f7ff fedc 	bl	8001d88 <RI_SetRegCommandParser>
 8001fd0:	0003      	movs	r3, r0
 8001fd2:	e7c2      	b.n	8001f5a <MCP_ReceivedPacket+0x6a>
 8001fd4:	0039      	movs	r1, r7
 8001fd6:	0020      	movs	r0, r4
 8001fd8:	f7ff ff3e 	bl	8001e58 <RI_GetRegCommandParser>
 8001fdc:	e7f8      	b.n	8001fd0 <MCP_ReceivedPacket+0xe0>
 8001fde:	0028      	movs	r0, r5
 8001fe0:	f7ff f941 	bl	8001266 <MCI_StartWithPolarizationMotor>
 8001fe4:	e7f4      	b.n	8001fd0 <MCP_ReceivedPacket+0xe0>
 8001fe6:	0028      	movs	r0, r5
 8001fe8:	f7ff f920 	bl	800122c <MCI_GetSTMState>
 8001fec:	2806      	cmp	r0, #6
 8001fee:	d1e9      	bne.n	8001fc4 <MCP_ReceivedPacket+0xd4>
 8001ff0:	0028      	movs	r0, r5
 8001ff2:	f7ff f991 	bl	8001318 <MCI_StopRamp>
 8001ff6:	e7e5      	b.n	8001fc4 <MCP_ReceivedPacket+0xd4>
 8001ff8:	0028      	movs	r0, r5
 8001ffa:	f7ff f917 	bl	800122c <MCI_GetSTMState>
 8001ffe:	2800      	cmp	r0, #0
 8002000:	d1b7      	bne.n	8001f72 <MCP_ReceivedPacket+0x82>
 8002002:	0028      	movs	r0, r5
 8002004:	f7ff f92f 	bl	8001266 <MCI_StartWithPolarizationMotor>
 8002008:	2301      	movs	r3, #1
 800200a:	4043      	eors	r3, r0
 800200c:	b2db      	uxtb	r3, r3
 800200e:	e7a4      	b.n	8001f5a <MCP_ReceivedPacket+0x6a>
 8002010:	0028      	movs	r0, r5
 8002012:	f7ff f9e9 	bl	80013e8 <MCI_Clear_Iqdref>
 8002016:	e7d5      	b.n	8001fc4 <MCP_ReceivedPacket+0xd4>
 8002018:	0023      	movs	r3, r4
 800201a:	9a03      	ldr	r2, [sp, #12]
 800201c:	9700      	str	r7, [sp, #0]
 800201e:	330e      	adds	r3, #14
 8002020:	f7ff f894 	bl	800114c <MC_ProfilerCommand>
 8002024:	e7d4      	b.n	8001fd0 <MCP_ReceivedPacket+0xe0>
 8002026:	46c0      	nop			@ (mov r8, r8)
 8002028:	2000069c 	.word	0x2000069c
 800202c:	20000710 	.word	0x20000710

08002030 <MX_MotorControl_Init>:
 8002030:	b510      	push	{r4, lr}
 8002032:	f003 f825 	bl	8005080 <HAL_RCC_GetHCLKFreq>
 8002036:	21fa      	movs	r1, #250	@ 0xfa
 8002038:	00c9      	lsls	r1, r1, #3
 800203a:	f7fe f879 	bl	8000130 <__udivsi3>
 800203e:	f002 fc63 	bl	8004908 <HAL_SYSTICK_Config>
 8002042:	2001      	movs	r0, #1
 8002044:	4b05      	ldr	r3, [pc, #20]	@ (800205c <MX_MotorControl_Init+0x2c>)
 8002046:	2200      	movs	r2, #0
 8002048:	6819      	ldr	r1, [r3, #0]
 800204a:	4240      	negs	r0, r0
 800204c:	f002 fc26 	bl	800489c <HAL_NVIC_SetPriority>
 8002050:	4803      	ldr	r0, [pc, #12]	@ (8002060 <MX_MotorControl_Init+0x30>)
 8002052:	f7ff fadb 	bl	800160c <MCboot>
 8002056:	f7ff fe57 	bl	8001d08 <mc_lock_pins>
 800205a:	bd10      	pop	{r4, pc}
 800205c:	200003d0 	.word	0x200003d0
 8002060:	20000998 	.word	0x20000998

08002064 <PWMC_GetPhaseCurrents>:
 8002064:	b510      	push	{r4, lr}
 8002066:	6803      	ldr	r3, [r0, #0]
 8002068:	4798      	blx	r3
 800206a:	bd10      	pop	{r4, pc}

0800206c <PWMC_SetPhaseVoltage>:
 800206c:	0003      	movs	r3, r0
 800206e:	b5f0      	push	{r4, r5, r6, r7, lr}
 8002070:	267c      	movs	r6, #124	@ 0x7c
 8002072:	334e      	adds	r3, #78	@ 0x4e
 8002074:	881b      	ldrh	r3, [r3, #0]
 8002076:	b20a      	sxth	r2, r1
 8002078:	4353      	muls	r3, r2
 800207a:	0002      	movs	r2, r0
 800207c:	46b4      	mov	ip, r6
 800207e:	3272      	adds	r2, #114	@ 0x72
 8002080:	8817      	ldrh	r7, [r2, #0]
 8002082:	140c      	asrs	r4, r1, #16
 8002084:	437c      	muls	r4, r7
 8002086:	0064      	lsls	r4, r4, #1
 8002088:	4265      	negs	r5, r4
 800208a:	1ae9      	subs	r1, r5, r3
 800208c:	1b1c      	subs	r4, r3, r4
 800208e:	0fe2      	lsrs	r2, r4, #31
 8002090:	0fcb      	lsrs	r3, r1, #31
 8002092:	1912      	adds	r2, r2, r4
 8002094:	185b      	adds	r3, r3, r1
 8002096:	b085      	sub	sp, #20
 8002098:	1052      	asrs	r2, r2, #1
 800209a:	105b      	asrs	r3, r3, #1
 800209c:	08bf      	lsrs	r7, r7, #2
 800209e:	4484      	add	ip, r0
 80020a0:	1c66      	adds	r6, r4, #1
 80020a2:	db00      	blt.n	80020a6 <PWMC_SetPhaseVoltage+0x3a>
 80020a4:	e0a3      	b.n	80021ee <PWMC_SetPhaseVoltage+0x182>
 80020a6:	0006      	movs	r6, r0
 80020a8:	3687      	adds	r6, #135	@ 0x87
 80020aa:	7836      	ldrb	r6, [r6, #0]
 80020ac:	9601      	str	r6, [sp, #4]
 80020ae:	1c4e      	adds	r6, r1, #1
 80020b0:	da1d      	bge.n	80020ee <PWMC_SetPhaseVoltage+0x82>
 80020b2:	2504      	movs	r5, #4
 80020b4:	4666      	mov	r6, ip
 80020b6:	1ad2      	subs	r2, r2, r3
 80020b8:	17d3      	asrs	r3, r2, #31
 80020ba:	039b      	lsls	r3, r3, #14
 80020bc:	0b9b      	lsrs	r3, r3, #14
 80020be:	189b      	adds	r3, r3, r2
 80020c0:	17ca      	asrs	r2, r1, #31
 80020c2:	0392      	lsls	r2, r2, #14
 80020c4:	0b92      	lsrs	r2, r2, #14
 80020c6:	1851      	adds	r1, r2, r1
 80020c8:	17e2      	asrs	r2, r4, #31
 80020ca:	0392      	lsls	r2, r2, #14
 80020cc:	0b92      	lsrs	r2, r2, #14
 80020ce:	1914      	adds	r4, r2, r4
 80020d0:	149b      	asrs	r3, r3, #18
 80020d2:	9a01      	ldr	r2, [sp, #4]
 80020d4:	19db      	adds	r3, r3, r7
 80020d6:	1489      	asrs	r1, r1, #18
 80020d8:	14a4      	asrs	r4, r4, #18
 80020da:	7035      	strb	r5, [r6, #0]
 80020dc:	18c9      	adds	r1, r1, r3
 80020de:	1b1c      	subs	r4, r3, r4
 80020e0:	2a00      	cmp	r2, #0
 80020e2:	d000      	beq.n	80020e6 <PWMC_SetPhaseVoltage+0x7a>
 80020e4:	e0de      	b.n	80022a4 <PWMC_SetPhaseVoltage+0x238>
 80020e6:	b2a7      	uxth	r7, r4
 80020e8:	b29e      	uxth	r6, r3
 80020ea:	b28d      	uxth	r5, r1
 80020ec:	e01e      	b.n	800212c <PWMC_SetPhaseVoltage+0xc0>
 80020ee:	2d00      	cmp	r5, #0
 80020f0:	dc65      	bgt.n	80021be <PWMC_SetPhaseVoltage+0x152>
 80020f2:	2203      	movs	r2, #3
 80020f4:	4664      	mov	r4, ip
 80020f6:	7022      	strb	r2, [r4, #0]
 80020f8:	1aea      	subs	r2, r5, r3
 80020fa:	17d3      	asrs	r3, r2, #31
 80020fc:	039b      	lsls	r3, r3, #14
 80020fe:	0b9b      	lsrs	r3, r3, #14
 8002100:	189b      	adds	r3, r3, r2
 8002102:	17ca      	asrs	r2, r1, #31
 8002104:	0392      	lsls	r2, r2, #14
 8002106:	17ec      	asrs	r4, r5, #31
 8002108:	0b92      	lsrs	r2, r2, #14
 800210a:	03e4      	lsls	r4, r4, #15
 800210c:	1851      	adds	r1, r2, r1
 800210e:	149b      	asrs	r3, r3, #18
 8002110:	0be4      	lsrs	r4, r4, #15
 8002112:	19db      	adds	r3, r3, r7
 8002114:	1489      	asrs	r1, r1, #18
 8002116:	1964      	adds	r4, r4, r5
 8002118:	9a01      	ldr	r2, [sp, #4]
 800211a:	18c9      	adds	r1, r1, r3
 800211c:	1464      	asrs	r4, r4, #17
 800211e:	1b0c      	subs	r4, r1, r4
 8002120:	2a00      	cmp	r2, #0
 8002122:	d000      	beq.n	8002126 <PWMC_SetPhaseVoltage+0xba>
 8002124:	e0c2      	b.n	80022ac <PWMC_SetPhaseVoltage+0x240>
 8002126:	b2a7      	uxth	r7, r4
 8002128:	b28e      	uxth	r6, r1
 800212a:	b29d      	uxth	r5, r3
 800212c:	0002      	movs	r2, r0
 800212e:	3258      	adds	r2, #88	@ 0x58
 8002130:	8017      	strh	r7, [r2, #0]
 8002132:	8056      	strh	r6, [r2, #2]
 8002134:	8095      	strh	r5, [r2, #4]
 8002136:	43da      	mvns	r2, r3
 8002138:	43cd      	mvns	r5, r1
 800213a:	43e6      	mvns	r6, r4
 800213c:	17d2      	asrs	r2, r2, #31
 800213e:	17ed      	asrs	r5, r5, #31
 8002140:	4013      	ands	r3, r2
 8002142:	4029      	ands	r1, r5
 8002144:	17f6      	asrs	r6, r6, #31
 8002146:	0002      	movs	r2, r0
 8002148:	0005      	movs	r5, r0
 800214a:	0007      	movs	r7, r0
 800214c:	4034      	ands	r4, r6
 800214e:	0006      	movs	r6, r0
 8002150:	3250      	adds	r2, #80	@ 0x50
 8002152:	3552      	adds	r5, #82	@ 0x52
 8002154:	b29b      	uxth	r3, r3
 8002156:	b289      	uxth	r1, r1
 8002158:	b2a4      	uxth	r4, r4
 800215a:	3754      	adds	r7, #84	@ 0x54
 800215c:	8013      	strh	r3, [r2, #0]
 800215e:	9201      	str	r2, [sp, #4]
 8002160:	8029      	strh	r1, [r5, #0]
 8002162:	9502      	str	r5, [sp, #8]
 8002164:	803c      	strh	r4, [r7, #0]
 8002166:	3670      	adds	r6, #112	@ 0x70
 8002168:	8836      	ldrh	r6, [r6, #0]
 800216a:	2e01      	cmp	r6, #1
 800216c:	d123      	bne.n	80021b6 <PWMC_SetPhaseVoltage+0x14a>
 800216e:	2262      	movs	r2, #98	@ 0x62
 8002170:	4694      	mov	ip, r2
 8002172:	4484      	add	ip, r0
 8002174:	4662      	mov	r2, ip
 8002176:	0006      	movs	r6, r0
 8002178:	2500      	movs	r5, #0
 800217a:	5f52      	ldrsh	r2, [r2, r5]
 800217c:	3674      	adds	r6, #116	@ 0x74
 800217e:	8836      	ldrh	r6, [r6, #0]
 8002180:	2a00      	cmp	r2, #0
 8002182:	dc00      	bgt.n	8002186 <PWMC_SetPhaseVoltage+0x11a>
 8002184:	e0a5      	b.n	80022d2 <PWMC_SetPhaseVoltage+0x266>
 8002186:	199b      	adds	r3, r3, r6
 8002188:	9a01      	ldr	r2, [sp, #4]
 800218a:	b29b      	uxth	r3, r3
 800218c:	8013      	strh	r3, [r2, #0]
 800218e:	0003      	movs	r3, r0
 8002190:	3364      	adds	r3, #100	@ 0x64
 8002192:	2200      	movs	r2, #0
 8002194:	5e9b      	ldrsh	r3, [r3, r2]
 8002196:	2b00      	cmp	r3, #0
 8002198:	dc00      	bgt.n	800219c <PWMC_SetPhaseVoltage+0x130>
 800219a:	e09c      	b.n	80022d6 <PWMC_SetPhaseVoltage+0x26a>
 800219c:	1989      	adds	r1, r1, r6
 800219e:	9b02      	ldr	r3, [sp, #8]
 80021a0:	b289      	uxth	r1, r1
 80021a2:	8019      	strh	r1, [r3, #0]
 80021a4:	0003      	movs	r3, r0
 80021a6:	3366      	adds	r3, #102	@ 0x66
 80021a8:	2200      	movs	r2, #0
 80021aa:	5e9b      	ldrsh	r3, [r3, r2]
 80021ac:	2b00      	cmp	r3, #0
 80021ae:	dc00      	bgt.n	80021b2 <PWMC_SetPhaseVoltage+0x146>
 80021b0:	e093      	b.n	80022da <PWMC_SetPhaseVoltage+0x26e>
 80021b2:	19a6      	adds	r6, r4, r6
 80021b4:	803e      	strh	r6, [r7, #0]
 80021b6:	6943      	ldr	r3, [r0, #20]
 80021b8:	4798      	blx	r3
 80021ba:	b005      	add	sp, #20
 80021bc:	bdf0      	pop	{r4, r5, r6, r7, pc}
 80021be:	4663      	mov	r3, ip
 80021c0:	2602      	movs	r6, #2
 80021c2:	1b52      	subs	r2, r2, r5
 80021c4:	701e      	strb	r6, [r3, #0]
 80021c6:	17d3      	asrs	r3, r2, #31
 80021c8:	039b      	lsls	r3, r3, #14
 80021ca:	0b9b      	lsrs	r3, r3, #14
 80021cc:	189b      	adds	r3, r3, r2
 80021ce:	17e2      	asrs	r2, r4, #31
 80021d0:	0392      	lsls	r2, r2, #14
 80021d2:	0b92      	lsrs	r2, r2, #14
 80021d4:	1914      	adds	r4, r2, r4
 80021d6:	149b      	asrs	r3, r3, #18
 80021d8:	19db      	adds	r3, r3, r7
 80021da:	14a4      	asrs	r4, r4, #18
 80021dc:	9a01      	ldr	r2, [sp, #4]
 80021de:	1b1c      	subs	r4, r3, r4
 80021e0:	1469      	asrs	r1, r5, #17
 80021e2:	1909      	adds	r1, r1, r4
 80021e4:	2a00      	cmp	r2, #0
 80021e6:	d164      	bne.n	80022b2 <PWMC_SetPhaseVoltage+0x246>
 80021e8:	b28f      	uxth	r7, r1
 80021ea:	b2a6      	uxth	r6, r4
 80021ec:	e79d      	b.n	800212a <PWMC_SetPhaseVoltage+0xbe>
 80021ee:	1c4e      	adds	r6, r1, #1
 80021f0:	db1e      	blt.n	8002230 <PWMC_SetPhaseVoltage+0x1c4>
 80021f2:	1ad2      	subs	r2, r2, r3
 80021f4:	17d3      	asrs	r3, r2, #31
 80021f6:	039b      	lsls	r3, r3, #14
 80021f8:	0b9b      	lsrs	r3, r3, #14
 80021fa:	189b      	adds	r3, r3, r2
 80021fc:	17ca      	asrs	r2, r1, #31
 80021fe:	0392      	lsls	r2, r2, #14
 8002200:	0b92      	lsrs	r2, r2, #14
 8002202:	1851      	adds	r1, r2, r1
 8002204:	17e2      	asrs	r2, r4, #31
 8002206:	0392      	lsls	r2, r2, #14
 8002208:	0b92      	lsrs	r2, r2, #14
 800220a:	1914      	adds	r4, r2, r4
 800220c:	2501      	movs	r5, #1
 800220e:	4666      	mov	r6, ip
 8002210:	0002      	movs	r2, r0
 8002212:	7035      	strb	r5, [r6, #0]
 8002214:	3287      	adds	r2, #135	@ 0x87
 8002216:	149b      	asrs	r3, r3, #18
 8002218:	7812      	ldrb	r2, [r2, #0]
 800221a:	19db      	adds	r3, r3, r7
 800221c:	1489      	asrs	r1, r1, #18
 800221e:	14a4      	asrs	r4, r4, #18
 8002220:	18c9      	adds	r1, r1, r3
 8002222:	1b1c      	subs	r4, r3, r4
 8002224:	2a00      	cmp	r2, #0
 8002226:	d147      	bne.n	80022b8 <PWMC_SetPhaseVoltage+0x24c>
 8002228:	b28f      	uxth	r7, r1
 800222a:	b29e      	uxth	r6, r3
 800222c:	b2a5      	uxth	r5, r4
 800222e:	e77d      	b.n	800212c <PWMC_SetPhaseVoltage+0xc0>
 8002230:	17ee      	asrs	r6, r5, #31
 8002232:	2d00      	cmp	r5, #0
 8002234:	dc18      	bgt.n	8002268 <PWMC_SetPhaseVoltage+0x1fc>
 8002236:	2305      	movs	r3, #5
 8002238:	4661      	mov	r1, ip
 800223a:	1b52      	subs	r2, r2, r5
 800223c:	1492      	asrs	r2, r2, #18
 800223e:	700b      	strb	r3, [r1, #0]
 8002240:	19d3      	adds	r3, r2, r7
 8002242:	17e2      	asrs	r2, r4, #31
 8002244:	0392      	lsls	r2, r2, #14
 8002246:	0b92      	lsrs	r2, r2, #14
 8002248:	1914      	adds	r4, r2, r4
 800224a:	0002      	movs	r2, r0
 800224c:	03f1      	lsls	r1, r6, #15
 800224e:	0bc9      	lsrs	r1, r1, #15
 8002250:	3287      	adds	r2, #135	@ 0x87
 8002252:	14a4      	asrs	r4, r4, #18
 8002254:	1949      	adds	r1, r1, r5
 8002256:	7812      	ldrb	r2, [r2, #0]
 8002258:	1b1c      	subs	r4, r3, r4
 800225a:	1449      	asrs	r1, r1, #17
 800225c:	1909      	adds	r1, r1, r4
 800225e:	2a00      	cmp	r2, #0
 8002260:	d12d      	bne.n	80022be <PWMC_SetPhaseVoltage+0x252>
 8002262:	b29f      	uxth	r7, r3
 8002264:	b2a6      	uxth	r6, r4
 8002266:	e740      	b.n	80020ea <PWMC_SetPhaseVoltage+0x7e>
 8002268:	4664      	mov	r4, ip
 800226a:	2200      	movs	r2, #0
 800226c:	03f6      	lsls	r6, r6, #15
 800226e:	0bf6      	lsrs	r6, r6, #15
 8002270:	1aeb      	subs	r3, r5, r3
 8002272:	1976      	adds	r6, r6, r5
 8002274:	0005      	movs	r5, r0
 8002276:	7022      	strb	r2, [r4, #0]
 8002278:	17cc      	asrs	r4, r1, #31
 800227a:	03a4      	lsls	r4, r4, #14
 800227c:	0ba4      	lsrs	r4, r4, #14
 800227e:	1861      	adds	r1, r4, r1
 8002280:	149b      	asrs	r3, r3, #18
 8002282:	357f      	adds	r5, #127	@ 0x7f
 8002284:	19db      	adds	r3, r3, r7
 8002286:	1489      	asrs	r1, r1, #18
 8002288:	782d      	ldrb	r5, [r5, #0]
 800228a:	18c9      	adds	r1, r1, r3
 800228c:	1476      	asrs	r6, r6, #17
 800228e:	1b8c      	subs	r4, r1, r6
 8002290:	4295      	cmp	r5, r2
 8002292:	d118      	bne.n	80022c6 <PWMC_SetPhaseVoltage+0x25a>
 8002294:	0002      	movs	r2, r0
 8002296:	3287      	adds	r2, #135	@ 0x87
 8002298:	7812      	ldrb	r2, [r2, #0]
 800229a:	2a00      	cmp	r2, #0
 800229c:	d116      	bne.n	80022cc <PWMC_SetPhaseVoltage+0x260>
 800229e:	b29f      	uxth	r7, r3
 80022a0:	b28e      	uxth	r6, r1
 80022a2:	e7c3      	b.n	800222c <PWMC_SetPhaseVoltage+0x1c0>
 80022a4:	2701      	movs	r7, #1
 80022a6:	2600      	movs	r6, #0
 80022a8:	2502      	movs	r5, #2
 80022aa:	e73f      	b.n	800212c <PWMC_SetPhaseVoltage+0xc0>
 80022ac:	2700      	movs	r7, #0
 80022ae:	2601      	movs	r6, #1
 80022b0:	e7fa      	b.n	80022a8 <PWMC_SetPhaseVoltage+0x23c>
 80022b2:	2700      	movs	r7, #0
 80022b4:	2501      	movs	r5, #1
 80022b6:	e739      	b.n	800212c <PWMC_SetPhaseVoltage+0xc0>
 80022b8:	2702      	movs	r7, #2
 80022ba:	2600      	movs	r6, #0
 80022bc:	e736      	b.n	800212c <PWMC_SetPhaseVoltage+0xc0>
 80022be:	2701      	movs	r7, #1
 80022c0:	2602      	movs	r6, #2
 80022c2:	2500      	movs	r5, #0
 80022c4:	e732      	b.n	800212c <PWMC_SetPhaseVoltage+0xc0>
 80022c6:	2702      	movs	r7, #2
 80022c8:	2601      	movs	r6, #1
 80022ca:	e7fa      	b.n	80022c2 <PWMC_SetPhaseVoltage+0x256>
 80022cc:	2702      	movs	r7, #2
 80022ce:	2601      	movs	r6, #1
 80022d0:	e72c      	b.n	800212c <PWMC_SetPhaseVoltage+0xc0>
 80022d2:	1b9b      	subs	r3, r3, r6
 80022d4:	e758      	b.n	8002188 <PWMC_SetPhaseVoltage+0x11c>
 80022d6:	1b89      	subs	r1, r1, r6
 80022d8:	e761      	b.n	800219e <PWMC_SetPhaseVoltage+0x132>
 80022da:	1ba4      	subs	r4, r4, r6
 80022dc:	803c      	strh	r4, [r7, #0]
 80022de:	e76a      	b.n	80021b6 <PWMC_SetPhaseVoltage+0x14a>

080022e0 <PWMC_SwitchOffPWM>:
 80022e0:	b510      	push	{r4, lr}
 80022e2:	6843      	ldr	r3, [r0, #4]
 80022e4:	4798      	blx	r3
 80022e6:	bd10      	pop	{r4, pc}

080022e8 <PWMC_SwitchOnPWM>:
 80022e8:	b510      	push	{r4, lr}
 80022ea:	6883      	ldr	r3, [r0, #8]
 80022ec:	4798      	blx	r3
 80022ee:	bd10      	pop	{r4, pc}

080022f0 <PWMC_CurrentReadingCalibr>:
 80022f0:	b510      	push	{r4, lr}
 80022f2:	0004      	movs	r4, r0
 80022f4:	2900      	cmp	r1, #0
 80022f6:	d105      	bne.n	8002304 <PWMC_CurrentReadingCalibr+0x14>
 80022f8:	f7ff fff2 	bl	80022e0 <PWMC_SwitchOffPWM>
 80022fc:	0020      	movs	r0, r4
 80022fe:	68e3      	ldr	r3, [r4, #12]
 8002300:	4798      	blx	r3
 8002302:	e008      	b.n	8002316 <PWMC_CurrentReadingCalibr+0x26>
 8002304:	2901      	cmp	r1, #1
 8002306:	d001      	beq.n	800230c <PWMC_CurrentReadingCalibr+0x1c>
 8002308:	2000      	movs	r0, #0
 800230a:	bd10      	pop	{r4, pc}
 800230c:	0002      	movs	r2, r0
 800230e:	3260      	adds	r2, #96	@ 0x60
 8002310:	8813      	ldrh	r3, [r2, #0]
 8002312:	2b00      	cmp	r3, #0
 8002314:	d101      	bne.n	800231a <PWMC_CurrentReadingCalibr+0x2a>
 8002316:	2001      	movs	r0, #1
 8002318:	e7f7      	b.n	800230a <PWMC_CurrentReadingCalibr+0x1a>
 800231a:	3b01      	subs	r3, #1
 800231c:	b29b      	uxth	r3, r3
 800231e:	8013      	strh	r3, [r2, #0]
 8002320:	2b00      	cmp	r3, #0
 8002322:	d1f1      	bne.n	8002308 <PWMC_CurrentReadingCalibr+0x18>
 8002324:	e7ea      	b.n	80022fc <PWMC_CurrentReadingCalibr+0xc>

08002326 <PWMC_CalcPhaseCurrentsEst>:
 8002326:	b57f      	push	{r0, r1, r2, r3, r4, r5, r6, lr}
 8002328:	000d      	movs	r5, r1
 800232a:	1c0b      	adds	r3, r1, #0
 800232c:	0011      	movs	r1, r2
 800232e:	0002      	movs	r2, r0
 8002330:	0004      	movs	r4, r0
 8002332:	326e      	adds	r2, #110	@ 0x6e
 8002334:	2000      	movs	r0, #0
 8002336:	5e10      	ldrsh	r0, [r2, r0]
 8002338:	6b62      	ldr	r2, [r4, #52]	@ 0x34
 800233a:	b21b      	sxth	r3, r3
 800233c:	13d6      	asrs	r6, r2, #15
 800233e:	1b9b      	subs	r3, r3, r6
 8002340:	4343      	muls	r3, r0
 8002342:	189b      	adds	r3, r3, r2
 8002344:	6363      	str	r3, [r4, #52]	@ 0x34
 8002346:	aa02      	add	r2, sp, #8
 8002348:	13db      	asrs	r3, r3, #15
 800234a:	8013      	strh	r3, [r2, #0]
 800234c:	6ba3      	ldr	r3, [r4, #56]	@ 0x38
 800234e:	142d      	asrs	r5, r5, #16
 8002350:	13de      	asrs	r6, r3, #15
 8002352:	1bad      	subs	r5, r5, r6
 8002354:	4368      	muls	r0, r5
 8002356:	18c0      	adds	r0, r0, r3
 8002358:	63a0      	str	r0, [r4, #56]	@ 0x38
 800235a:	13c0      	asrs	r0, r0, #15
 800235c:	8050      	strh	r0, [r2, #2]
 800235e:	9802      	ldr	r0, [sp, #8]
 8002360:	f7ff f8fe 	bl	8001560 <MCM_Rev_Park>
 8002364:	0022      	movs	r2, r4
 8002366:	b203      	sxth	r3, r0
 8002368:	3268      	adds	r2, #104	@ 0x68
 800236a:	8013      	strh	r3, [r2, #0]
 800236c:	425b      	negs	r3, r3
 800236e:	0c00      	lsrs	r0, r0, #16
 8002370:	b29b      	uxth	r3, r3
 8002372:	1a19      	subs	r1, r3, r0
 8002374:	b209      	sxth	r1, r1
 8002376:	0fca      	lsrs	r2, r1, #31
 8002378:	1852      	adds	r2, r2, r1
 800237a:	0021      	movs	r1, r4
 800237c:	181b      	adds	r3, r3, r0
 800237e:	1052      	asrs	r2, r2, #1
 8002380:	316a      	adds	r1, #106	@ 0x6a
 8002382:	b21b      	sxth	r3, r3
 8002384:	800a      	strh	r2, [r1, #0]
 8002386:	0fda      	lsrs	r2, r3, #31
 8002388:	18d3      	adds	r3, r2, r3
 800238a:	105b      	asrs	r3, r3, #1
 800238c:	346c      	adds	r4, #108	@ 0x6c
 800238e:	8023      	strh	r3, [r4, #0]
 8002390:	bd7f      	pop	{r0, r1, r2, r3, r4, r5, r6, pc}

08002392 <PWMC_OCP_Handler>:
 8002392:	0003      	movs	r3, r0
 8002394:	3385      	adds	r3, #133	@ 0x85
 8002396:	781b      	ldrb	r3, [r3, #0]
 8002398:	2b00      	cmp	r3, #0
 800239a:	d113      	bne.n	80023c4 <PWMC_OCP_Handler+0x32>
 800239c:	0003      	movs	r3, r0
 800239e:	337d      	adds	r3, #125	@ 0x7d
 80023a0:	781b      	ldrb	r3, [r3, #0]
 80023a2:	2b02      	cmp	r3, #2
 80023a4:	d10e      	bne.n	80023c4 <PWMC_OCP_Handler+0x32>
 80023a6:	0002      	movs	r2, r0
 80023a8:	3248      	adds	r2, #72	@ 0x48
 80023aa:	6bc3      	ldr	r3, [r0, #60]	@ 0x3c
 80023ac:	8812      	ldrh	r2, [r2, #0]
 80023ae:	629a      	str	r2, [r3, #40]	@ 0x28
 80023b0:	0002      	movs	r2, r0
 80023b2:	324a      	adds	r2, #74	@ 0x4a
 80023b4:	6c03      	ldr	r3, [r0, #64]	@ 0x40
 80023b6:	8812      	ldrh	r2, [r2, #0]
 80023b8:	629a      	str	r2, [r3, #40]	@ 0x28
 80023ba:	0002      	movs	r2, r0
 80023bc:	324c      	adds	r2, #76	@ 0x4c
 80023be:	6c43      	ldr	r3, [r0, #68]	@ 0x44
 80023c0:	8812      	ldrh	r2, [r2, #0]
 80023c2:	629a      	str	r2, [r3, #40]	@ 0x28
 80023c4:	0003      	movs	r3, r0
 80023c6:	2201      	movs	r2, #1
 80023c8:	3382      	adds	r3, #130	@ 0x82
 80023ca:	307a      	adds	r0, #122	@ 0x7a
 80023cc:	701a      	strb	r2, [r3, #0]
 80023ce:	4770      	bx	lr

080023d0 <PWMC_IsFaultOccurred>:
 80023d0:	0002      	movs	r2, r0
 80023d2:	0003      	movs	r3, r0
 80023d4:	2000      	movs	r0, #0
 80023d6:	3283      	adds	r2, #131	@ 0x83
 80023d8:	7811      	ldrb	r1, [r2, #0]
 80023da:	4281      	cmp	r1, r0
 80023dc:	d001      	beq.n	80023e2 <PWMC_IsFaultOccurred+0x12>
 80023de:	7010      	strb	r0, [r2, #0]
 80023e0:	3002      	adds	r0, #2
 80023e2:	001a      	movs	r2, r3
 80023e4:	3282      	adds	r2, #130	@ 0x82
 80023e6:	7811      	ldrb	r1, [r2, #0]
 80023e8:	2900      	cmp	r1, #0
 80023ea:	d003      	beq.n	80023f4 <PWMC_IsFaultOccurred+0x24>
 80023ec:	2140      	movs	r1, #64	@ 0x40
 80023ee:	4308      	orrs	r0, r1
 80023f0:	2100      	movs	r1, #0
 80023f2:	7011      	strb	r1, [r2, #0]
 80023f4:	3384      	adds	r3, #132	@ 0x84
 80023f6:	781a      	ldrb	r2, [r3, #0]
 80023f8:	2a00      	cmp	r2, #0
 80023fa:	d004      	beq.n	8002406 <PWMC_IsFaultOccurred+0x36>
 80023fc:	2280      	movs	r2, #128	@ 0x80
 80023fe:	00d2      	lsls	r2, r2, #3
 8002400:	4310      	orrs	r0, r2
 8002402:	2200      	movs	r2, #0
 8002404:	701a      	strb	r2, [r3, #0]
 8002406:	4770      	bx	lr

08002408 <LL_TIM_OC_DisablePreload>:
 8002408:	2940      	cmp	r1, #64	@ 0x40
 800240a:	d812      	bhi.n	8002432 <LL_TIM_OC_DisablePreload+0x2a>
 800240c:	2302      	movs	r3, #2
 800240e:	2910      	cmp	r1, #16
 8002410:	d003      	beq.n	800241a <LL_TIM_OC_DisablePreload+0x12>
 8002412:	2300      	movs	r3, #0
 8002414:	2901      	cmp	r1, #1
 8002416:	d000      	beq.n	800241a <LL_TIM_OC_DisablePreload+0x12>
 8002418:	3306      	adds	r3, #6
 800241a:	4a09      	ldr	r2, [pc, #36]	@ (8002440 <LL_TIM_OC_DisablePreload+0x38>)
 800241c:	3018      	adds	r0, #24
 800241e:	5cd2      	ldrb	r2, [r2, r3]
 8002420:	1812      	adds	r2, r2, r0
 8002422:	4808      	ldr	r0, [pc, #32]	@ (8002444 <LL_TIM_OC_DisablePreload+0x3c>)
 8002424:	6811      	ldr	r1, [r2, #0]
 8002426:	5cc0      	ldrb	r0, [r0, r3]
 8002428:	2308      	movs	r3, #8
 800242a:	4083      	lsls	r3, r0
 800242c:	4399      	bics	r1, r3
 800242e:	6011      	str	r1, [r2, #0]
 8002430:	4770      	bx	lr
 8002432:	2280      	movs	r2, #128	@ 0x80
 8002434:	2304      	movs	r3, #4
 8002436:	0052      	lsls	r2, r2, #1
 8002438:	4291      	cmp	r1, r2
 800243a:	d0ee      	beq.n	800241a <LL_TIM_OC_DisablePreload+0x12>
 800243c:	3302      	adds	r3, #2
 800243e:	e7ec      	b.n	800241a <LL_TIM_OC_DisablePreload+0x12>
 8002440:	080069d3 	.word	0x080069d3
 8002444:	080069cc 	.word	0x080069cc

08002448 <LL_DMA_EnableChannel>:
 8002448:	4b03      	ldr	r3, [pc, #12]	@ (8002458 <LL_DMA_EnableChannel+0x10>)
 800244a:	5ccb      	ldrb	r3, [r1, r3]
 800244c:	18c0      	adds	r0, r0, r3
 800244e:	2301      	movs	r3, #1
 8002450:	6802      	ldr	r2, [r0, #0]
 8002452:	4313      	orrs	r3, r2
 8002454:	6003      	str	r3, [r0, #0]
 8002456:	4770      	bx	lr
 8002458:	080069c6 	.word	0x080069c6

0800245c <LL_DMA_DisableChannel>:
 800245c:	2201      	movs	r2, #1
 800245e:	4b03      	ldr	r3, [pc, #12]	@ (800246c <LL_DMA_DisableChannel+0x10>)
 8002460:	5ccb      	ldrb	r3, [r1, r3]
 8002462:	18c0      	adds	r0, r0, r3
 8002464:	6803      	ldr	r3, [r0, #0]
 8002466:	4393      	bics	r3, r2
 8002468:	6003      	str	r3, [r0, #0]
 800246a:	4770      	bx	lr
 800246c:	080069c6 	.word	0x080069c6

08002470 <LL_DMA_SetDataLength>:
 8002470:	4b04      	ldr	r3, [pc, #16]	@ (8002484 <LL_DMA_SetDataLength+0x14>)
 8002472:	5ccb      	ldrb	r3, [r1, r3]
 8002474:	18c0      	adds	r0, r0, r3
 8002476:	6843      	ldr	r3, [r0, #4]
 8002478:	0c1b      	lsrs	r3, r3, #16
 800247a:	041b      	lsls	r3, r3, #16
 800247c:	4313      	orrs	r3, r2
 800247e:	6043      	str	r3, [r0, #4]
 8002480:	4770      	bx	lr
 8002482:	46c0      	nop			@ (mov r8, r8)
 8002484:	080069c6 	.word	0x080069c6

08002488 <LL_DMA_EnableIT_TC>:
 8002488:	4b03      	ldr	r3, [pc, #12]	@ (8002498 <LL_DMA_EnableIT_TC+0x10>)
 800248a:	5ccb      	ldrb	r3, [r1, r3]
 800248c:	18c0      	adds	r0, r0, r3
 800248e:	2302      	movs	r3, #2
 8002490:	6802      	ldr	r2, [r0, #0]
 8002492:	4313      	orrs	r3, r2
 8002494:	6003      	str	r3, [r0, #0]
 8002496:	4770      	bx	lr
 8002498:	080069c6 	.word	0x080069c6

0800249c <R1_1ShuntMotorVarsInit>:
 800249c:	0003      	movs	r3, r0
 800249e:	2100      	movs	r1, #0
 80024a0:	0002      	movs	r2, r0
 80024a2:	b570      	push	{r4, r5, r6, lr}
 80024a4:	0006      	movs	r6, r0
 80024a6:	33c5      	adds	r3, #197	@ 0xc5
 80024a8:	7019      	strb	r1, [r3, #0]
 80024aa:	70d9      	strb	r1, [r3, #3]
 80024ac:	3b53      	subs	r3, #83	@ 0x53
 80024ae:	881b      	ldrh	r3, [r3, #0]
 80024b0:	32b8      	adds	r2, #184	@ 0xb8
 80024b2:	6955      	ldr	r5, [r2, #20]
 80024b4:	085c      	lsrs	r4, r3, #1
 80024b6:	8014      	strh	r4, [r2, #0]
 80024b8:	8c2a      	ldrh	r2, [r5, #32]
 80024ba:	8bed      	ldrh	r5, [r5, #30]
 80024bc:	089b      	lsrs	r3, r3, #2
 80024be:	1952      	adds	r2, r2, r5
 80024c0:	b292      	uxth	r2, r2
 80024c2:	1a9d      	subs	r5, r3, r2
 80024c4:	189a      	adds	r2, r3, r2
 80024c6:	b2ad      	uxth	r5, r5
 80024c8:	36ba      	adds	r6, #186	@ 0xba
 80024ca:	b292      	uxth	r2, r2
 80024cc:	8035      	strh	r5, [r6, #0]
 80024ce:	8072      	strh	r2, [r6, #2]
 80024d0:	3e6a      	subs	r6, #106	@ 0x6a
 80024d2:	8033      	strh	r3, [r6, #0]
 80024d4:	8733      	strh	r3, [r6, #56]	@ 0x38
 80024d6:	8073      	strh	r3, [r6, #2]
 80024d8:	80b3      	strh	r3, [r6, #4]
 80024da:	3638      	adds	r6, #56	@ 0x38
 80024dc:	81b3      	strh	r3, [r6, #12]
 80024de:	3602      	adds	r6, #2
 80024e0:	8033      	strh	r3, [r6, #0]
 80024e2:	81b3      	strh	r3, [r6, #12]
 80024e4:	3602      	adds	r6, #2
 80024e6:	8033      	strh	r3, [r6, #0]
 80024e8:	81b3      	strh	r3, [r6, #12]
 80024ea:	3602      	adds	r6, #2
 80024ec:	8033      	strh	r3, [r6, #0]
 80024ee:	81b3      	strh	r3, [r6, #12]
 80024f0:	3602      	adds	r6, #2
 80024f2:	8033      	strh	r3, [r6, #0]
 80024f4:	81b3      	strh	r3, [r6, #12]
 80024f6:	8073      	strh	r3, [r6, #2]
 80024f8:	81f3      	strh	r3, [r6, #14]
 80024fa:	0003      	movs	r3, r0
 80024fc:	3c01      	subs	r4, #1
 80024fe:	33ae      	adds	r3, #174	@ 0xae
 8002500:	3085      	adds	r0, #133	@ 0x85
 8002502:	3602      	adds	r6, #2
 8002504:	809d      	strh	r5, [r3, #4]
 8002506:	801a      	strh	r2, [r3, #0]
 8002508:	805c      	strh	r4, [r3, #2]
 800250a:	7001      	strb	r1, [r0, #0]
 800250c:	bd70      	pop	{r4, r5, r6, pc}
	...

08002510 <R1_GetPhaseCurrents>:
 8002510:	0003      	movs	r3, r0
 8002512:	33cc      	adds	r3, #204	@ 0xcc
 8002514:	681b      	ldr	r3, [r3, #0]
 8002516:	b570      	push	{r4, r5, r6, lr}
 8002518:	685a      	ldr	r2, [r3, #4]
 800251a:	0003      	movs	r3, r0
 800251c:	0004      	movs	r4, r0
 800251e:	2000      	movs	r0, #0
 8002520:	33c8      	adds	r3, #200	@ 0xc8
 8002522:	7018      	strb	r0, [r3, #0]
 8002524:	6853      	ldr	r3, [r2, #4]
 8002526:	3070      	adds	r0, #112	@ 0x70
 8002528:	4383      	bics	r3, r0
 800252a:	6053      	str	r3, [r2, #4]
 800252c:	0023      	movs	r3, r4
 800252e:	2280      	movs	r2, #128	@ 0x80
 8002530:	33b4      	adds	r3, #180	@ 0xb4
 8002532:	881d      	ldrh	r5, [r3, #0]
 8002534:	3b14      	subs	r3, #20
 8002536:	6818      	ldr	r0, [r3, #0]
 8002538:	0212      	lsls	r2, r2, #8
 800253a:	1a2d      	subs	r5, r5, r0
 800253c:	4295      	cmp	r5, r2
 800253e:	db00      	blt.n	8002542 <R1_GetPhaseCurrents+0x32>
 8002540:	4d83      	ldr	r5, [pc, #524]	@ (8002750 <R1_GetPhaseCurrents+0x240>)
 8002542:	4b84      	ldr	r3, [pc, #528]	@ (8002754 <R1_GetPhaseCurrents+0x244>)
 8002544:	429d      	cmp	r5, r3
 8002546:	da00      	bge.n	800254a <R1_GetPhaseCurrents+0x3a>
 8002548:	001d      	movs	r5, r3
 800254a:	0026      	movs	r6, r4
 800254c:	36b6      	adds	r6, #182	@ 0xb6
 800254e:	8836      	ldrh	r6, [r6, #0]
 8002550:	1a36      	subs	r6, r6, r0
 8002552:	4296      	cmp	r6, r2
 8002554:	db00      	blt.n	8002558 <R1_GetPhaseCurrents+0x48>
 8002556:	4e7e      	ldr	r6, [pc, #504]	@ (8002750 <R1_GetPhaseCurrents+0x240>)
 8002558:	429e      	cmp	r6, r3
 800255a:	da00      	bge.n	800255e <R1_GetPhaseCurrents+0x4e>
 800255c:	4e7d      	ldr	r6, [pc, #500]	@ (8002754 <R1_GetPhaseCurrents+0x244>)
 800255e:	0023      	movs	r3, r4
 8002560:	2200      	movs	r2, #0
 8002562:	337c      	adds	r3, #124	@ 0x7c
 8002564:	7818      	ldrb	r0, [r3, #0]
 8002566:	0013      	movs	r3, r2
 8002568:	2805      	cmp	r0, #5
 800256a:	d824      	bhi.n	80025b6 <R1_GetPhaseCurrents+0xa6>
 800256c:	0023      	movs	r3, r4
 800256e:	33c5      	adds	r3, #197	@ 0xc5
 8002570:	f7fd fdca 	bl	8000108 <__gnu_thumb1_case_uqi>
 8002574:	7a4e2c03 	.word	0x7a4e2c03
 8002578:	c9a3      	.short	0xc9a3
 800257a:	2205      	movs	r2, #5
 800257c:	781b      	ldrb	r3, [r3, #0]
 800257e:	4013      	ands	r3, r2
 8002580:	4293      	cmp	r3, r2
 8002582:	d102      	bne.n	800258a <R1_GetPhaseCurrents+0x7a>
 8002584:	b233      	sxth	r3, r6
 8002586:	1baa      	subs	r2, r5, r6
 8002588:	e040      	b.n	800260c <R1_GetPhaseCurrents+0xfc>
 800258a:	2b00      	cmp	r3, #0
 800258c:	d100      	bne.n	8002590 <R1_GetPhaseCurrents+0x80>
 800258e:	e08a      	b.n	80026a6 <R1_GetPhaseCurrents+0x196>
 8002590:	0022      	movs	r2, r4
 8002592:	327b      	adds	r2, #123	@ 0x7b
 8002594:	7812      	ldrb	r2, [r2, #0]
 8002596:	2a01      	cmp	r2, #1
 8002598:	d106      	bne.n	80025a8 <R1_GetPhaseCurrents+0x98>
 800259a:	2b01      	cmp	r3, #1
 800259c:	d102      	bne.n	80025a4 <R1_GetPhaseCurrents+0x94>
 800259e:	b233      	sxth	r3, r6
 80025a0:	2200      	movs	r2, #0
 80025a2:	e008      	b.n	80025b6 <R1_GetPhaseCurrents+0xa6>
 80025a4:	b22b      	sxth	r3, r5
 80025a6:	e7fb      	b.n	80025a0 <R1_GetPhaseCurrents+0x90>
 80025a8:	0022      	movs	r2, r4
 80025aa:	326a      	adds	r2, #106	@ 0x6a
 80025ac:	2000      	movs	r0, #0
 80025ae:	5e12      	ldrsh	r2, [r2, r0]
 80025b0:	2b01      	cmp	r3, #1
 80025b2:	d108      	bne.n	80025c6 <R1_GetPhaseCurrents+0xb6>
 80025b4:	b233      	sxth	r3, r6
 80025b6:	0020      	movs	r0, r4
 80025b8:	30c0      	adds	r0, #192	@ 0xc0
 80025ba:	34c2      	adds	r4, #194	@ 0xc2
 80025bc:	8003      	strh	r3, [r0, #0]
 80025be:	8022      	strh	r2, [r4, #0]
 80025c0:	800b      	strh	r3, [r1, #0]
 80025c2:	804a      	strh	r2, [r1, #2]
 80025c4:	bd70      	pop	{r4, r5, r6, pc}
 80025c6:	1aab      	subs	r3, r5, r2
 80025c8:	b21b      	sxth	r3, r3
 80025ca:	e7f4      	b.n	80025b6 <R1_GetPhaseCurrents+0xa6>
 80025cc:	781a      	ldrb	r2, [r3, #0]
 80025ce:	2306      	movs	r3, #6
 80025d0:	401a      	ands	r2, r3
 80025d2:	429a      	cmp	r2, r3
 80025d4:	d102      	bne.n	80025dc <R1_GetPhaseCurrents+0xcc>
 80025d6:	b232      	sxth	r2, r6
 80025d8:	1bab      	subs	r3, r5, r6
 80025da:	e7f5      	b.n	80025c8 <R1_GetPhaseCurrents+0xb8>
 80025dc:	0023      	movs	r3, r4
 80025de:	2a00      	cmp	r2, #0
 80025e0:	d100      	bne.n	80025e4 <R1_GetPhaseCurrents+0xd4>
 80025e2:	e088      	b.n	80026f6 <R1_GetPhaseCurrents+0x1e6>
 80025e4:	337b      	adds	r3, #123	@ 0x7b
 80025e6:	781b      	ldrb	r3, [r3, #0]
 80025e8:	2b01      	cmp	r3, #1
 80025ea:	d106      	bne.n	80025fa <R1_GetPhaseCurrents+0xea>
 80025ec:	2a02      	cmp	r2, #2
 80025ee:	d102      	bne.n	80025f6 <R1_GetPhaseCurrents+0xe6>
 80025f0:	b232      	sxth	r2, r6
 80025f2:	2300      	movs	r3, #0
 80025f4:	e7df      	b.n	80025b6 <R1_GetPhaseCurrents+0xa6>
 80025f6:	b22a      	sxth	r2, r5
 80025f8:	e7fb      	b.n	80025f2 <R1_GetPhaseCurrents+0xe2>
 80025fa:	0023      	movs	r3, r4
 80025fc:	3368      	adds	r3, #104	@ 0x68
 80025fe:	2000      	movs	r0, #0
 8002600:	5e1b      	ldrsh	r3, [r3, r0]
 8002602:	2a02      	cmp	r2, #2
 8002604:	d101      	bne.n	800260a <R1_GetPhaseCurrents+0xfa>
 8002606:	b232      	sxth	r2, r6
 8002608:	e7d5      	b.n	80025b6 <R1_GetPhaseCurrents+0xa6>
 800260a:	1aea      	subs	r2, r5, r3
 800260c:	b212      	sxth	r2, r2
 800260e:	e7d2      	b.n	80025b6 <R1_GetPhaseCurrents+0xa6>
 8002610:	2203      	movs	r2, #3
 8002612:	781b      	ldrb	r3, [r3, #0]
 8002614:	4013      	ands	r3, r2
 8002616:	4293      	cmp	r3, r2
 8002618:	d102      	bne.n	8002620 <R1_GetPhaseCurrents+0x110>
 800261a:	b232      	sxth	r2, r6
 800261c:	426b      	negs	r3, r5
 800261e:	e7d3      	b.n	80025c8 <R1_GetPhaseCurrents+0xb8>
 8002620:	2b00      	cmp	r3, #0
 8002622:	d01c      	beq.n	800265e <R1_GetPhaseCurrents+0x14e>
 8002624:	0022      	movs	r2, r4
 8002626:	327b      	adds	r2, #123	@ 0x7b
 8002628:	7812      	ldrb	r2, [r2, #0]
 800262a:	2a01      	cmp	r2, #1
 800262c:	d108      	bne.n	8002640 <R1_GetPhaseCurrents+0x130>
 800262e:	2b02      	cmp	r3, #2
 8002630:	d102      	bne.n	8002638 <R1_GetPhaseCurrents+0x128>
 8002632:	b232      	sxth	r2, r6
 8002634:	4273      	negs	r3, r6
 8002636:	e7c7      	b.n	80025c8 <R1_GetPhaseCurrents+0xb8>
 8002638:	426b      	negs	r3, r5
 800263a:	b21b      	sxth	r3, r3
 800263c:	b22a      	sxth	r2, r5
 800263e:	e7ba      	b.n	80025b6 <R1_GetPhaseCurrents+0xa6>
 8002640:	2b02      	cmp	r3, #2
 8002642:	d105      	bne.n	8002650 <R1_GetPhaseCurrents+0x140>
 8002644:	b232      	sxth	r2, r6
 8002646:	0023      	movs	r3, r4
 8002648:	3368      	adds	r3, #104	@ 0x68
 800264a:	2000      	movs	r0, #0
 800264c:	5e1b      	ldrsh	r3, [r3, r0]
 800264e:	e7b2      	b.n	80025b6 <R1_GetPhaseCurrents+0xa6>
 8002650:	426b      	negs	r3, r5
 8002652:	b21b      	sxth	r3, r3
 8002654:	0022      	movs	r2, r4
 8002656:	326a      	adds	r2, #106	@ 0x6a
 8002658:	2000      	movs	r0, #0
 800265a:	5e12      	ldrsh	r2, [r2, r0]
 800265c:	e7ab      	b.n	80025b6 <R1_GetPhaseCurrents+0xa6>
 800265e:	0023      	movs	r3, r4
 8002660:	336a      	adds	r3, #106	@ 0x6a
 8002662:	2200      	movs	r2, #0
 8002664:	5e9a      	ldrsh	r2, [r3, r2]
 8002666:	e7ee      	b.n	8002646 <R1_GetPhaseCurrents+0x136>
 8002668:	2205      	movs	r2, #5
 800266a:	781b      	ldrb	r3, [r3, #0]
 800266c:	4013      	ands	r3, r2
 800266e:	4293      	cmp	r3, r2
 8002670:	d102      	bne.n	8002678 <R1_GetPhaseCurrents+0x168>
 8002672:	426b      	negs	r3, r5
 8002674:	b21b      	sxth	r3, r3
 8002676:	e786      	b.n	8002586 <R1_GetPhaseCurrents+0x76>
 8002678:	2b00      	cmp	r3, #0
 800267a:	d014      	beq.n	80026a6 <R1_GetPhaseCurrents+0x196>
 800267c:	0022      	movs	r2, r4
 800267e:	327b      	adds	r2, #123	@ 0x7b
 8002680:	7812      	ldrb	r2, [r2, #0]
 8002682:	2a01      	cmp	r2, #1
 8002684:	d106      	bne.n	8002694 <R1_GetPhaseCurrents+0x184>
 8002686:	2b04      	cmp	r3, #4
 8002688:	d102      	bne.n	8002690 <R1_GetPhaseCurrents+0x180>
 800268a:	4273      	negs	r3, r6
 800268c:	b21b      	sxth	r3, r3
 800268e:	e787      	b.n	80025a0 <R1_GetPhaseCurrents+0x90>
 8002690:	426b      	negs	r3, r5
 8002692:	e7fb      	b.n	800268c <R1_GetPhaseCurrents+0x17c>
 8002694:	0022      	movs	r2, r4
 8002696:	326a      	adds	r2, #106	@ 0x6a
 8002698:	2000      	movs	r0, #0
 800269a:	5e12      	ldrsh	r2, [r2, r0]
 800269c:	2b04      	cmp	r3, #4
 800269e:	d1bd      	bne.n	800261c <R1_GetPhaseCurrents+0x10c>
 80026a0:	1993      	adds	r3, r2, r6
 80026a2:	425b      	negs	r3, r3
 80026a4:	e790      	b.n	80025c8 <R1_GetPhaseCurrents+0xb8>
 80026a6:	0023      	movs	r3, r4
 80026a8:	3368      	adds	r3, #104	@ 0x68
 80026aa:	2200      	movs	r2, #0
 80026ac:	5e9b      	ldrsh	r3, [r3, r2]
 80026ae:	0022      	movs	r2, r4
 80026b0:	326c      	adds	r2, #108	@ 0x6c
 80026b2:	8812      	ldrh	r2, [r2, #0]
 80026b4:	18d2      	adds	r2, r2, r3
 80026b6:	4252      	negs	r2, r2
 80026b8:	e7a8      	b.n	800260c <R1_GetPhaseCurrents+0xfc>
 80026ba:	781a      	ldrb	r2, [r3, #0]
 80026bc:	2306      	movs	r3, #6
 80026be:	401a      	ands	r2, r3
 80026c0:	429a      	cmp	r2, r3
 80026c2:	d102      	bne.n	80026ca <R1_GetPhaseCurrents+0x1ba>
 80026c4:	426a      	negs	r2, r5
 80026c6:	b212      	sxth	r2, r2
 80026c8:	e786      	b.n	80025d8 <R1_GetPhaseCurrents+0xc8>
 80026ca:	0023      	movs	r3, r4
 80026cc:	2a00      	cmp	r2, #0
 80026ce:	d012      	beq.n	80026f6 <R1_GetPhaseCurrents+0x1e6>
 80026d0:	337b      	adds	r3, #123	@ 0x7b
 80026d2:	781b      	ldrb	r3, [r3, #0]
 80026d4:	2b01      	cmp	r3, #1
 80026d6:	d106      	bne.n	80026e6 <R1_GetPhaseCurrents+0x1d6>
 80026d8:	2a04      	cmp	r2, #4
 80026da:	d102      	bne.n	80026e2 <R1_GetPhaseCurrents+0x1d2>
 80026dc:	4272      	negs	r2, r6
 80026de:	b212      	sxth	r2, r2
 80026e0:	e787      	b.n	80025f2 <R1_GetPhaseCurrents+0xe2>
 80026e2:	426a      	negs	r2, r5
 80026e4:	e7fb      	b.n	80026de <R1_GetPhaseCurrents+0x1ce>
 80026e6:	0023      	movs	r3, r4
 80026e8:	3368      	adds	r3, #104	@ 0x68
 80026ea:	2000      	movs	r0, #0
 80026ec:	5e1b      	ldrsh	r3, [r3, r0]
 80026ee:	2a04      	cmp	r2, #4
 80026f0:	d10f      	bne.n	8002712 <R1_GetPhaseCurrents+0x202>
 80026f2:	199a      	adds	r2, r3, r6
 80026f4:	e7df      	b.n	80026b6 <R1_GetPhaseCurrents+0x1a6>
 80026f6:	336a      	adds	r3, #106	@ 0x6a
 80026f8:	2200      	movs	r2, #0
 80026fa:	5e9a      	ldrsh	r2, [r3, r2]
 80026fc:	0023      	movs	r3, r4
 80026fe:	336c      	adds	r3, #108	@ 0x6c
 8002700:	881b      	ldrh	r3, [r3, #0]
 8002702:	189b      	adds	r3, r3, r2
 8002704:	e7cd      	b.n	80026a2 <R1_GetPhaseCurrents+0x192>
 8002706:	2203      	movs	r2, #3
 8002708:	781b      	ldrb	r3, [r3, #0]
 800270a:	4013      	ands	r3, r2
 800270c:	4293      	cmp	r3, r2
 800270e:	d102      	bne.n	8002716 <R1_GetPhaseCurrents+0x206>
 8002710:	b233      	sxth	r3, r6
 8002712:	426a      	negs	r2, r5
 8002714:	e77a      	b.n	800260c <R1_GetPhaseCurrents+0xfc>
 8002716:	2b00      	cmp	r3, #0
 8002718:	d014      	beq.n	8002744 <R1_GetPhaseCurrents+0x234>
 800271a:	0022      	movs	r2, r4
 800271c:	327b      	adds	r2, #123	@ 0x7b
 800271e:	7812      	ldrb	r2, [r2, #0]
 8002720:	2a01      	cmp	r2, #1
 8002722:	d108      	bne.n	8002736 <R1_GetPhaseCurrents+0x226>
 8002724:	2b01      	cmp	r3, #1
 8002726:	d102      	bne.n	800272e <R1_GetPhaseCurrents+0x21e>
 8002728:	b233      	sxth	r3, r6
 800272a:	4272      	negs	r2, r6
 800272c:	e76e      	b.n	800260c <R1_GetPhaseCurrents+0xfc>
 800272e:	426a      	negs	r2, r5
 8002730:	b212      	sxth	r2, r2
 8002732:	b22b      	sxth	r3, r5
 8002734:	e73f      	b.n	80025b6 <R1_GetPhaseCurrents+0xa6>
 8002736:	2b01      	cmp	r3, #1
 8002738:	d101      	bne.n	800273e <R1_GetPhaseCurrents+0x22e>
 800273a:	b233      	sxth	r3, r6
 800273c:	e78a      	b.n	8002654 <R1_GetPhaseCurrents+0x144>
 800273e:	426d      	negs	r5, r5
 8002740:	b22a      	sxth	r2, r5
 8002742:	e780      	b.n	8002646 <R1_GetPhaseCurrents+0x136>
 8002744:	0023      	movs	r3, r4
 8002746:	3368      	adds	r3, #104	@ 0x68
 8002748:	2200      	movs	r2, #0
 800274a:	5e9b      	ldrsh	r3, [r3, r2]
 800274c:	e782      	b.n	8002654 <R1_GetPhaseCurrents+0x144>
 800274e:	46c0      	nop			@ (mov r8, r8)
 8002750:	00007fff 	.word	0x00007fff
 8002754:	ffff8001 	.word	0xffff8001

08002758 <R1_HFCurrentsCalibration>:
 8002758:	0003      	movs	r3, r0
 800275a:	33cc      	adds	r3, #204	@ 0xcc
 800275c:	681b      	ldr	r3, [r3, #0]
 800275e:	b510      	push	{r4, lr}
 8002760:	685a      	ldr	r2, [r3, #4]
 8002762:	0003      	movs	r3, r0
 8002764:	2400      	movs	r4, #0
 8002766:	33c8      	adds	r3, #200	@ 0xc8
 8002768:	701c      	strb	r4, [r3, #0]
 800276a:	6853      	ldr	r3, [r2, #4]
 800276c:	3470      	adds	r4, #112	@ 0x70
 800276e:	43a3      	bics	r3, r4
 8002770:	6053      	str	r3, [r2, #4]
 8002772:	0002      	movs	r2, r0
 8002774:	32c4      	adds	r2, #196	@ 0xc4
 8002776:	7813      	ldrb	r3, [r2, #0]
 8002778:	2b0f      	cmp	r3, #15
 800277a:	d80a      	bhi.n	8002792 <R1_HFCurrentsCalibration+0x3a>
 800277c:	0004      	movs	r4, r0
 800277e:	30b6      	adds	r0, #182	@ 0xb6
 8002780:	34a0      	adds	r4, #160	@ 0xa0
 8002782:	8800      	ldrh	r0, [r0, #0]
 8002784:	6823      	ldr	r3, [r4, #0]
 8002786:	181b      	adds	r3, r3, r0
 8002788:	6023      	str	r3, [r4, #0]
 800278a:	7813      	ldrb	r3, [r2, #0]
 800278c:	3301      	adds	r3, #1
 800278e:	b2db      	uxtb	r3, r3
 8002790:	7013      	strb	r3, [r2, #0]
 8002792:	2300      	movs	r3, #0
 8002794:	800b      	strh	r3, [r1, #0]
 8002796:	804b      	strh	r3, [r1, #2]
 8002798:	bd10      	pop	{r4, pc}
	...

0800279c <R1_SetADCSampPointPolarization>:
 800279c:	0003      	movs	r3, r0
 800279e:	b530      	push	{r4, r5, lr}
 80027a0:	33b8      	adds	r3, #184	@ 0xb8
 80027a2:	881a      	ldrh	r2, [r3, #0]
 80027a4:	3314      	adds	r3, #20
 80027a6:	681b      	ldr	r3, [r3, #0]
 80027a8:	0852      	lsrs	r2, r2, #1
 80027aa:	8bdc      	ldrh	r4, [r3, #30]
 80027ac:	8c19      	ldrh	r1, [r3, #32]
 80027ae:	1909      	adds	r1, r1, r4
 80027b0:	b289      	uxth	r1, r1
 80027b2:	1a55      	subs	r5, r2, r1
 80027b4:	0004      	movs	r4, r0
 80027b6:	1852      	adds	r2, r2, r1
 80027b8:	0001      	movs	r1, r0
 80027ba:	34ba      	adds	r4, #186	@ 0xba
 80027bc:	31bc      	adds	r1, #188	@ 0xbc
 80027be:	8025      	strh	r5, [r4, #0]
 80027c0:	800a      	strh	r2, [r1, #0]
 80027c2:	1cda      	adds	r2, r3, #3
 80027c4:	7fd1      	ldrb	r1, [r2, #31]
 80027c6:	2280      	movs	r2, #128	@ 0x80
 80027c8:	0192      	lsls	r2, r2, #6
 80027ca:	408a      	lsls	r2, r1
 80027cc:	2407      	movs	r4, #7
 80027ce:	490e      	ldr	r1, [pc, #56]	@ (8002808 <R1_SetADCSampPointPolarization+0x6c>)
 80027d0:	0b52      	lsrs	r2, r2, #13
 80027d2:	628a      	str	r2, [r1, #40]	@ 0x28
 80027d4:	694a      	ldr	r2, [r1, #20]
 80027d6:	3304      	adds	r3, #4
 80027d8:	7fdb      	ldrb	r3, [r3, #31]
 80027da:	43a2      	bics	r2, r4
 80027dc:	4313      	orrs	r3, r2
 80027de:	614b      	str	r3, [r1, #20]
 80027e0:	68ca      	ldr	r2, [r1, #12]
 80027e2:	4b0a      	ldr	r3, [pc, #40]	@ (800280c <R1_SetADCSampPointPolarization+0x70>)
 80027e4:	401a      	ands	r2, r3
 80027e6:	2388      	movs	r3, #136	@ 0x88
 80027e8:	00db      	lsls	r3, r3, #3
 80027ea:	4313      	orrs	r3, r2
 80027ec:	60cb      	str	r3, [r1, #12]
 80027ee:	0003      	movs	r3, r0
 80027f0:	33c8      	adds	r3, #200	@ 0xc8
 80027f2:	781a      	ldrb	r2, [r3, #0]
 80027f4:	3b72      	subs	r3, #114	@ 0x72
 80027f6:	8818      	ldrh	r0, [r3, #0]
 80027f8:	2801      	cmp	r0, #1
 80027fa:	d001      	beq.n	8002800 <R1_SetADCSampPointPolarization+0x64>
 80027fc:	0010      	movs	r0, r2
 80027fe:	bd30      	pop	{r4, r5, pc}
 8002800:	2200      	movs	r2, #0
 8002802:	801a      	strh	r2, [r3, #0]
 8002804:	e7fb      	b.n	80027fe <R1_SetADCSampPointPolarization+0x62>
 8002806:	46c0      	nop			@ (mov r8, r8)
 8002808:	40012400 	.word	0x40012400
 800280c:	fffff23f 	.word	0xfffff23f

08002810 <R1_CalcDutyCycles>:
 8002810:	0003      	movs	r3, r0
 8002812:	b5f0      	push	{r4, r5, r6, r7, lr}
 8002814:	33cc      	adds	r3, #204	@ 0xcc
 8002816:	681b      	ldr	r3, [r3, #0]
 8002818:	b091      	sub	sp, #68	@ 0x44
 800281a:	9300      	str	r3, [sp, #0]
 800281c:	689b      	ldr	r3, [r3, #8]
 800281e:	a90e      	add	r1, sp, #56	@ 0x38
 8002820:	930a      	str	r3, [sp, #40]	@ 0x28
 8002822:	0003      	movs	r3, r0
 8002824:	3350      	adds	r3, #80	@ 0x50
 8002826:	881b      	ldrh	r3, [r3, #0]
 8002828:	2500      	movs	r5, #0
 800282a:	9307      	str	r3, [sp, #28]
 800282c:	0003      	movs	r3, r0
 800282e:	3352      	adds	r3, #82	@ 0x52
 8002830:	881b      	ldrh	r3, [r3, #0]
 8002832:	0004      	movs	r4, r0
 8002834:	9308      	str	r3, [sp, #32]
 8002836:	6d03      	ldr	r3, [r0, #80]	@ 0x50
 8002838:	930e      	str	r3, [sp, #56]	@ 0x38
 800283a:	0003      	movs	r3, r0
 800283c:	3354      	adds	r3, #84	@ 0x54
 800283e:	881b      	ldrh	r3, [r3, #0]
 8002840:	9303      	str	r3, [sp, #12]
 8002842:	9a03      	ldr	r2, [sp, #12]
 8002844:	ab0e      	add	r3, sp, #56	@ 0x38
 8002846:	809a      	strh	r2, [r3, #4]
 8002848:	0003      	movs	r3, r0
 800284a:	335c      	adds	r3, #92	@ 0x5c
 800284c:	781b      	ldrb	r3, [r3, #0]
 800284e:	0002      	movs	r2, r0
 8002850:	9301      	str	r3, [sp, #4]
 8002852:	0003      	movs	r3, r0
 8002854:	3258      	adds	r2, #88	@ 0x58
 8002856:	7812      	ldrb	r2, [r2, #0]
 8002858:	335a      	adds	r3, #90	@ 0x5a
 800285a:	781b      	ldrb	r3, [r3, #0]
 800285c:	9205      	str	r2, [sp, #20]
 800285e:	9a01      	ldr	r2, [sp, #4]
 8002860:	005b      	lsls	r3, r3, #1
 8002862:	0052      	lsls	r2, r2, #1
 8002864:	5e57      	ldrsh	r7, [r2, r1]
 8002866:	000a      	movs	r2, r1
 8002868:	5e9b      	ldrsh	r3, [r3, r2]
 800286a:	30c5      	adds	r0, #197	@ 0xc5
 800286c:	9304      	str	r3, [sp, #16]
 800286e:	466b      	mov	r3, sp
 8002870:	8a19      	ldrh	r1, [r3, #16]
 8002872:	9b00      	ldr	r3, [sp, #0]
 8002874:	7005      	strb	r5, [r0, #0]
 8002876:	8b9b      	ldrh	r3, [r3, #28]
 8002878:	b2be      	uxth	r6, r7
 800287a:	1af2      	subs	r2, r6, r3
 800287c:	1a52      	subs	r2, r2, r1
 800287e:	b212      	sxth	r2, r2
 8002880:	9206      	str	r2, [sp, #24]
 8002882:	9a05      	ldr	r2, [sp, #20]
 8002884:	0052      	lsls	r2, r2, #1
 8002886:	4694      	mov	ip, r2
 8002888:	4665      	mov	r5, ip
 800288a:	aa0e      	add	r2, sp, #56	@ 0x38
 800288c:	5eaa      	ldrsh	r2, [r5, r2]
 800288e:	9209      	str	r2, [sp, #36]	@ 0x24
 8002890:	9d09      	ldr	r5, [sp, #36]	@ 0x24
 8002892:	1aca      	subs	r2, r1, r3
 8002894:	1b52      	subs	r2, r2, r5
 8002896:	4694      	mov	ip, r2
 8002898:	b292      	uxth	r2, r2
 800289a:	920d      	str	r2, [sp, #52]	@ 0x34
 800289c:	4662      	mov	r2, ip
 800289e:	b212      	sxth	r2, r2
 80028a0:	920b      	str	r2, [sp, #44]	@ 0x2c
 80028a2:	22a8      	movs	r2, #168	@ 0xa8
 80028a4:	4694      	mov	ip, r2
 80028a6:	44a4      	add	ip, r4
 80028a8:	2500      	movs	r5, #0
 80028aa:	4662      	mov	r2, ip
 80028ac:	6015      	str	r5, [r2, #0]
 80028ae:	22ac      	movs	r2, #172	@ 0xac
 80028b0:	4694      	mov	ip, r2
 80028b2:	44a4      	add	ip, r4
 80028b4:	4662      	mov	r2, ip
 80028b6:	8015      	strh	r5, [r2, #0]
 80028b8:	9a00      	ldr	r2, [sp, #0]
 80028ba:	8c12      	ldrh	r2, [r2, #32]
 80028bc:	9202      	str	r2, [sp, #8]
 80028be:	9a00      	ldr	r2, [sp, #0]
 80028c0:	2520      	movs	r5, #32
 80028c2:	5f52      	ldrsh	r2, [r2, r5]
 80028c4:	0025      	movs	r5, r4
 80028c6:	920c      	str	r2, [sp, #48]	@ 0x30
 80028c8:	35b8      	adds	r5, #184	@ 0xb8
 80028ca:	2200      	movs	r2, #0
 80028cc:	5eaa      	ldrsh	r2, [r5, r2]
 80028ce:	4694      	mov	ip, r2
 80028d0:	9a06      	ldr	r2, [sp, #24]
 80028d2:	2a00      	cmp	r2, #0
 80028d4:	dd12      	ble.n	80028fc <R1_CalcDutyCycles+0xec>
 80028d6:	4a90      	ldr	r2, [pc, #576]	@ (8002b18 <R1_CalcDutyCycles+0x308>)
 80028d8:	9d01      	ldr	r5, [sp, #4]
 80028da:	5d52      	ldrb	r2, [r2, r5]
 80028dc:	7002      	strb	r2, [r0, #0]
 80028de:	2500      	movs	r5, #0
 80028e0:	0020      	movs	r0, r4
 80028e2:	4e8d      	ldr	r6, [pc, #564]	@ (8002b18 <R1_CalcDutyCycles+0x308>)
 80028e4:	9f05      	ldr	r7, [sp, #20]
 80028e6:	30c5      	adds	r0, #197	@ 0xc5
 80028e8:	7802      	ldrb	r2, [r0, #0]
 80028ea:	57f7      	ldrsb	r7, [r6, r7]
 80028ec:	9e0b      	ldr	r6, [sp, #44]	@ 0x2c
 80028ee:	9206      	str	r2, [sp, #24]
 80028f0:	2e00      	cmp	r6, #0
 80028f2:	dd17      	ble.n	8002924 <R1_CalcDutyCycles+0x114>
 80028f4:	433a      	orrs	r2, r7
 80028f6:	7002      	strb	r2, [r0, #0]
 80028f8:	2000      	movs	r0, #0
 80028fa:	e01c      	b.n	8002936 <R1_CalcDutyCycles+0x126>
 80028fc:	2501      	movs	r5, #1
 80028fe:	9a06      	ldr	r2, [sp, #24]
 8002900:	1aaa      	subs	r2, r5, r2
 8002902:	19d2      	adds	r2, r2, r7
 8002904:	9f0c      	ldr	r7, [sp, #48]	@ 0x30
 8002906:	19d2      	adds	r2, r2, r7
 8002908:	4562      	cmp	r2, ip
 800290a:	dce9      	bgt.n	80028e0 <R1_CalcDutyCycles+0xd0>
 800290c:	9d01      	ldr	r5, [sp, #4]
 800290e:	4a82      	ldr	r2, [pc, #520]	@ (8002b18 <R1_CalcDutyCycles+0x308>)
 8002910:	5d52      	ldrb	r2, [r2, r5]
 8002912:	7002      	strb	r2, [r0, #0]
 8002914:	0028      	movs	r0, r5
 8002916:	1c5a      	adds	r2, r3, #1
 8002918:	3054      	adds	r0, #84	@ 0x54
 800291a:	188a      	adds	r2, r1, r2
 800291c:	0040      	lsls	r0, r0, #1
 800291e:	1b92      	subs	r2, r2, r6
 8002920:	5302      	strh	r2, [r0, r4]
 8002922:	e7dc      	b.n	80028de <R1_CalcDutyCycles+0xce>
 8002924:	9e0b      	ldr	r6, [sp, #44]	@ 0x2c
 8002926:	9a09      	ldr	r2, [sp, #36]	@ 0x24
 8002928:	3e01      	subs	r6, #1
 800292a:	42d6      	cmn	r6, r2
 800292c:	d50e      	bpl.n	800294c <R1_CalcDutyCycles+0x13c>
 800292e:	9a06      	ldr	r2, [sp, #24]
 8002930:	43ba      	bics	r2, r7
 8002932:	7002      	strb	r2, [r0, #0]
 8002934:	2001      	movs	r0, #1
 8002936:	002e      	movs	r6, r5
 8002938:	9a00      	ldr	r2, [sp, #0]
 800293a:	4306      	orrs	r6, r0
 800293c:	8bd2      	ldrh	r2, [r2, #30]
 800293e:	2e00      	cmp	r6, #0
 8002940:	d10e      	bne.n	8002960 <R1_CalcDutyCycles+0x150>
 8002942:	1a8d      	subs	r5, r1, r2
 8002944:	b22d      	sxth	r5, r5
 8002946:	1a9b      	subs	r3, r3, r2
 8002948:	18cb      	adds	r3, r1, r3
 800294a:	e016      	b.n	800297a <R1_CalcDutyCycles+0x16a>
 800294c:	9a06      	ldr	r2, [sp, #24]
 800294e:	433a      	orrs	r2, r7
 8002950:	7002      	strb	r2, [r0, #0]
 8002952:	9a05      	ldr	r2, [sp, #20]
 8002954:	980d      	ldr	r0, [sp, #52]	@ 0x34
 8002956:	3254      	adds	r2, #84	@ 0x54
 8002958:	0052      	lsls	r2, r2, #1
 800295a:	3801      	subs	r0, #1
 800295c:	5310      	strh	r0, [r2, r4]
 800295e:	e7cb      	b.n	80028f8 <R1_CalcDutyCycles+0xe8>
 8002960:	2d01      	cmp	r5, #1
 8002962:	d000      	beq.n	8002966 <R1_CalcDutyCycles+0x156>
 8002964:	e0cf      	b.n	8002b06 <R1_CalcDutyCycles+0x2f6>
 8002966:	2801      	cmp	r0, #1
 8002968:	d000      	beq.n	800296c <R1_CalcDutyCycles+0x15c>
 800296a:	e0c8      	b.n	8002afe <R1_CalcDutyCycles+0x2ee>
 800296c:	4663      	mov	r3, ip
 800296e:	0fdd      	lsrs	r5, r3, #31
 8002970:	9b02      	ldr	r3, [sp, #8]
 8002972:	4465      	add	r5, ip
 8002974:	106d      	asrs	r5, r5, #1
 8002976:	18d3      	adds	r3, r2, r3
 8002978:	195b      	adds	r3, r3, r5
 800297a:	b21b      	sxth	r3, r3
 800297c:	9e0c      	ldr	r6, [sp, #48]	@ 0x30
 800297e:	1b58      	subs	r0, r3, r5
 8002980:	42b0      	cmp	r0, r6
 8002982:	da10      	bge.n	80029a6 <R1_CalcDutyCycles+0x196>
 8002984:	0023      	movs	r3, r4
 8002986:	4864      	ldr	r0, [pc, #400]	@ (8002b18 <R1_CalcDutyCycles+0x308>)
 8002988:	9e01      	ldr	r6, [sp, #4]
 800298a:	33c5      	adds	r3, #197	@ 0xc5
 800298c:	781d      	ldrb	r5, [r3, #0]
 800298e:	5d80      	ldrb	r0, [r0, r6]
 8002990:	4028      	ands	r0, r5
 8002992:	43b8      	bics	r0, r7
 8002994:	7018      	strb	r0, [r3, #0]
 8002996:	4663      	mov	r3, ip
 8002998:	0fdd      	lsrs	r5, r3, #31
 800299a:	9b02      	ldr	r3, [sp, #8]
 800299c:	4465      	add	r5, ip
 800299e:	18d2      	adds	r2, r2, r3
 80029a0:	106d      	asrs	r5, r5, #1
 80029a2:	1952      	adds	r2, r2, r5
 80029a4:	b213      	sxth	r3, r2
 80029a6:	4563      	cmp	r3, ip
 80029a8:	da01      	bge.n	80029ae <R1_CalcDutyCycles+0x19e>
 80029aa:	2b00      	cmp	r3, #0
 80029ac:	dc0a      	bgt.n	80029c4 <R1_CalcDutyCycles+0x1b4>
 80029ae:	0023      	movs	r3, r4
 80029b0:	4a59      	ldr	r2, [pc, #356]	@ (8002b18 <R1_CalcDutyCycles+0x308>)
 80029b2:	9e01      	ldr	r6, [sp, #4]
 80029b4:	33c5      	adds	r3, #197	@ 0xc5
 80029b6:	7818      	ldrb	r0, [r3, #0]
 80029b8:	5d92      	ldrb	r2, [r2, r6]
 80029ba:	4002      	ands	r2, r0
 80029bc:	701a      	strb	r2, [r3, #0]
 80029be:	9b02      	ldr	r3, [sp, #8]
 80029c0:	18c9      	adds	r1, r1, r3
 80029c2:	b20b      	sxth	r3, r1
 80029c4:	4565      	cmp	r5, ip
 80029c6:	da01      	bge.n	80029cc <R1_CalcDutyCycles+0x1bc>
 80029c8:	2d00      	cmp	r5, #0
 80029ca:	dc05      	bgt.n	80029d8 <R1_CalcDutyCycles+0x1c8>
 80029cc:	0021      	movs	r1, r4
 80029ce:	31c5      	adds	r1, #197	@ 0xc5
 80029d0:	780a      	ldrb	r2, [r1, #0]
 80029d2:	9d04      	ldr	r5, [sp, #16]
 80029d4:	43ba      	bics	r2, r7
 80029d6:	700a      	strb	r2, [r1, #0]
 80029d8:	0022      	movs	r2, r4
 80029da:	b29b      	uxth	r3, r3
 80029dc:	9301      	str	r3, [sp, #4]
 80029de:	0023      	movs	r3, r4
 80029e0:	2102      	movs	r1, #2
 80029e2:	32ba      	adds	r2, #186	@ 0xba
 80029e4:	b2ad      	uxth	r5, r5
 80029e6:	8015      	strh	r5, [r2, #0]
 80029e8:	9a01      	ldr	r2, [sp, #4]
 80029ea:	33bc      	adds	r3, #188	@ 0xbc
 80029ec:	801a      	strh	r2, [r3, #0]
 80029ee:	9b00      	ldr	r3, [sp, #0]
 80029f0:	9803      	ldr	r0, [sp, #12]
 80029f2:	68db      	ldr	r3, [r3, #12]
 80029f4:	9302      	str	r3, [sp, #8]
 80029f6:	9a02      	ldr	r2, [sp, #8]
 80029f8:	4b48      	ldr	r3, [pc, #288]	@ (8002b1c <R1_CalcDutyCycles+0x30c>)
 80029fa:	5cd3      	ldrb	r3, [r2, r3]
 80029fc:	9a0a      	ldr	r2, [sp, #40]	@ 0x28
 80029fe:	18d3      	adds	r3, r2, r3
 8002a00:	681a      	ldr	r2, [r3, #0]
 8002a02:	438a      	bics	r2, r1
 8002a04:	601a      	str	r2, [r3, #0]
 8002a06:	0023      	movs	r3, r4
 8002a08:	33a8      	adds	r3, #168	@ 0xa8
 8002a0a:	8819      	ldrh	r1, [r3, #0]
 8002a0c:	9b07      	ldr	r3, [sp, #28]
 8002a0e:	185f      	adds	r7, r3, r1
 8002a10:	0023      	movs	r3, r4
 8002a12:	b2bf      	uxth	r7, r7
 8002a14:	3394      	adds	r3, #148	@ 0x94
 8002a16:	8ada      	ldrh	r2, [r3, #22]
 8002a18:	801f      	strh	r7, [r3, #0]
 8002a1a:	9b08      	ldr	r3, [sp, #32]
 8002a1c:	189e      	adds	r6, r3, r2
 8002a1e:	0023      	movs	r3, r4
 8002a20:	b2b6      	uxth	r6, r6
 8002a22:	3396      	adds	r3, #150	@ 0x96
 8002a24:	801e      	strh	r6, [r3, #0]
 8002a26:	3316      	adds	r3, #22
 8002a28:	881b      	ldrh	r3, [r3, #0]
 8002a2a:	18c0      	adds	r0, r0, r3
 8002a2c:	9304      	str	r3, [sp, #16]
 8002a2e:	b283      	uxth	r3, r0
 8002a30:	2098      	movs	r0, #152	@ 0x98
 8002a32:	4684      	mov	ip, r0
 8002a34:	44a4      	add	ip, r4
 8002a36:	4660      	mov	r0, ip
 8002a38:	8003      	strh	r3, [r0, #0]
 8002a3a:	9807      	ldr	r0, [sp, #28]
 8002a3c:	9305      	str	r3, [sp, #20]
 8002a3e:	1a41      	subs	r1, r0, r1
 8002a40:	209a      	movs	r0, #154	@ 0x9a
 8002a42:	4684      	mov	ip, r0
 8002a44:	44a4      	add	ip, r4
 8002a46:	4660      	mov	r0, ip
 8002a48:	b289      	uxth	r1, r1
 8002a4a:	8001      	strh	r1, [r0, #0]
 8002a4c:	9808      	ldr	r0, [sp, #32]
 8002a4e:	9b04      	ldr	r3, [sp, #16]
 8002a50:	1a82      	subs	r2, r0, r2
 8002a52:	209c      	movs	r0, #156	@ 0x9c
 8002a54:	4684      	mov	ip, r0
 8002a56:	44a4      	add	ip, r4
 8002a58:	4660      	mov	r0, ip
 8002a5a:	b292      	uxth	r2, r2
 8002a5c:	8002      	strh	r2, [r0, #0]
 8002a5e:	9803      	ldr	r0, [sp, #12]
 8002a60:	1ac3      	subs	r3, r0, r3
 8002a62:	209e      	movs	r0, #158	@ 0x9e
 8002a64:	4684      	mov	ip, r0
 8002a66:	44a4      	add	ip, r4
 8002a68:	4660      	mov	r0, ip
 8002a6a:	b29b      	uxth	r3, r3
 8002a6c:	8003      	strh	r3, [r0, #0]
 8002a6e:	20c9      	movs	r0, #201	@ 0xc9
 8002a70:	4684      	mov	ip, r0
 8002a72:	44a4      	add	ip, r4
 8002a74:	4660      	mov	r0, ip
 8002a76:	7800      	ldrb	r0, [r0, #0]
 8002a78:	2800      	cmp	r0, #0
 8002a7a:	d016      	beq.n	8002aaa <R1_CalcDutyCycles+0x29a>
 8002a7c:	2088      	movs	r0, #136	@ 0x88
 8002a7e:	4684      	mov	ip, r0
 8002a80:	44a4      	add	ip, r4
 8002a82:	4660      	mov	r0, ip
 8002a84:	8007      	strh	r7, [r0, #0]
 8002a86:	0027      	movs	r7, r4
 8002a88:	378a      	adds	r7, #138	@ 0x8a
 8002a8a:	803e      	strh	r6, [r7, #0]
 8002a8c:	0026      	movs	r6, r4
 8002a8e:	9805      	ldr	r0, [sp, #20]
 8002a90:	368c      	adds	r6, #140	@ 0x8c
 8002a92:	8030      	strh	r0, [r6, #0]
 8002a94:	0020      	movs	r0, r4
 8002a96:	308e      	adds	r0, #142	@ 0x8e
 8002a98:	8001      	strh	r1, [r0, #0]
 8002a9a:	0021      	movs	r1, r4
 8002a9c:	3190      	adds	r1, #144	@ 0x90
 8002a9e:	800a      	strh	r2, [r1, #0]
 8002aa0:	0022      	movs	r2, r4
 8002aa2:	3292      	adds	r2, #146	@ 0x92
 8002aa4:	8013      	strh	r3, [r2, #0]
 8002aa6:	4b1e      	ldr	r3, [pc, #120]	@ (8002b20 <R1_CalcDutyCycles+0x310>)
 8002aa8:	641d      	str	r5, [r3, #64]	@ 0x40
 8002aaa:	9902      	ldr	r1, [sp, #8]
 8002aac:	980a      	ldr	r0, [sp, #40]	@ 0x28
 8002aae:	f7ff fceb 	bl	8002488 <LL_DMA_EnableIT_TC>
 8002ab2:	9b00      	ldr	r3, [sp, #0]
 8002ab4:	2007      	movs	r0, #7
 8002ab6:	3303      	adds	r3, #3
 8002ab8:	7fda      	ldrb	r2, [r3, #31]
 8002aba:	2380      	movs	r3, #128	@ 0x80
 8002abc:	019b      	lsls	r3, r3, #6
 8002abe:	4093      	lsls	r3, r2
 8002ac0:	4a18      	ldr	r2, [pc, #96]	@ (8002b24 <R1_CalcDutyCycles+0x314>)
 8002ac2:	0b5b      	lsrs	r3, r3, #13
 8002ac4:	6293      	str	r3, [r2, #40]	@ 0x28
 8002ac6:	9b00      	ldr	r3, [sp, #0]
 8002ac8:	6951      	ldr	r1, [r2, #20]
 8002aca:	3304      	adds	r3, #4
 8002acc:	7fdb      	ldrb	r3, [r3, #31]
 8002ace:	4381      	bics	r1, r0
 8002ad0:	430b      	orrs	r3, r1
 8002ad2:	6153      	str	r3, [r2, #20]
 8002ad4:	68d1      	ldr	r1, [r2, #12]
 8002ad6:	4b14      	ldr	r3, [pc, #80]	@ (8002b28 <R1_CalcDutyCycles+0x318>)
 8002ad8:	4019      	ands	r1, r3
 8002ada:	2388      	movs	r3, #136	@ 0x88
 8002adc:	00db      	lsls	r3, r3, #3
 8002ade:	430b      	orrs	r3, r1
 8002ae0:	60d3      	str	r3, [r2, #12]
 8002ae2:	0023      	movs	r3, r4
 8002ae4:	9a01      	ldr	r2, [sp, #4]
 8002ae6:	33ae      	adds	r3, #174	@ 0xae
 8002ae8:	801a      	strh	r2, [r3, #0]
 8002aea:	809d      	strh	r5, [r3, #4]
 8002aec:	3456      	adds	r4, #86	@ 0x56
 8002aee:	8820      	ldrh	r0, [r4, #0]
 8002af0:	331a      	adds	r3, #26
 8002af2:	781b      	ldrb	r3, [r3, #0]
 8002af4:	2801      	cmp	r0, #1
 8002af6:	d00b      	beq.n	8002b10 <R1_CalcDutyCycles+0x300>
 8002af8:	0018      	movs	r0, r3
 8002afa:	b011      	add	sp, #68	@ 0x44
 8002afc:	bdf0      	pop	{r4, r5, r6, r7, pc}
 8002afe:	1a8d      	subs	r5, r1, r2
 8002b00:	9b02      	ldr	r3, [sp, #8]
 8002b02:	b22d      	sxth	r5, r5
 8002b04:	e720      	b.n	8002948 <R1_CalcDutyCycles+0x138>
 8002b06:	1a9b      	subs	r3, r3, r2
 8002b08:	18cb      	adds	r3, r1, r3
 8002b0a:	9d04      	ldr	r5, [sp, #16]
 8002b0c:	b21b      	sxth	r3, r3
 8002b0e:	e735      	b.n	800297c <R1_CalcDutyCycles+0x16c>
 8002b10:	2300      	movs	r3, #0
 8002b12:	8023      	strh	r3, [r4, #0]
 8002b14:	e7f1      	b.n	8002afa <R1_CalcDutyCycles+0x2ea>
 8002b16:	46c0      	nop			@ (mov r8, r8)
 8002b18:	080069c4 	.word	0x080069c4
 8002b1c:	080069c6 	.word	0x080069c6
 8002b20:	40012c00 	.word	0x40012c00
 8002b24:	40012400 	.word	0x40012400
 8002b28:	fffff23f 	.word	0xfffff23f

08002b2c <R1_Init>:
 8002b2c:	0003      	movs	r3, r0
 8002b2e:	b5f0      	push	{r4, r5, r6, r7, lr}
 8002b30:	33cc      	adds	r3, #204	@ 0xcc
 8002b32:	681e      	ldr	r6, [r3, #0]
 8002b34:	b087      	sub	sp, #28
 8002b36:	68b3      	ldr	r3, [r6, #8]
 8002b38:	6874      	ldr	r4, [r6, #4]
 8002b3a:	6835      	ldr	r5, [r6, #0]
 8002b3c:	9002      	str	r0, [sp, #8]
 8002b3e:	9301      	str	r3, [sp, #4]
 8002b40:	f7ff fcac 	bl	800249c <R1_1ShuntMotorVarsInit>
 8002b44:	2180      	movs	r1, #128	@ 0x80
 8002b46:	4b68      	ldr	r3, [pc, #416]	@ (8002ce8 <R1_Init+0x1bc>)
 8002b48:	03c9      	lsls	r1, r1, #15
 8002b4a:	699a      	ldr	r2, [r3, #24]
 8002b4c:	2780      	movs	r7, #128	@ 0x80
 8002b4e:	430a      	orrs	r2, r1
 8002b50:	619a      	str	r2, [r3, #24]
 8002b52:	699b      	ldr	r3, [r3, #24]
 8002b54:	4a65      	ldr	r2, [pc, #404]	@ (8002cec <R1_Init+0x1c0>)
 8002b56:	400b      	ands	r3, r1
 8002b58:	9305      	str	r3, [sp, #20]
 8002b5a:	9b05      	ldr	r3, [sp, #20]
 8002b5c:	2380      	movs	r3, #128	@ 0x80
 8002b5e:	68d1      	ldr	r1, [r2, #12]
 8002b60:	011b      	lsls	r3, r3, #4
 8002b62:	430b      	orrs	r3, r1
 8002b64:	2101      	movs	r1, #1
 8002b66:	60d3      	str	r3, [r2, #12]
 8002b68:	6823      	ldr	r3, [r4, #0]
 8002b6a:	2270      	movs	r2, #112	@ 0x70
 8002b6c:	438b      	bics	r3, r1
 8002b6e:	6023      	str	r3, [r4, #0]
 8002b70:	2340      	movs	r3, #64	@ 0x40
 8002b72:	6820      	ldr	r0, [r4, #0]
 8002b74:	017f      	lsls	r7, r7, #5
 8002b76:	4390      	bics	r0, r2
 8002b78:	4303      	orrs	r3, r0
 8002b7a:	6023      	str	r3, [r4, #0]
 8002b7c:	6863      	ldr	r3, [r4, #4]
 8002b7e:	0020      	movs	r0, r4
 8002b80:	4393      	bics	r3, r2
 8002b82:	6063      	str	r3, [r4, #4]
 8002b84:	f7ff fc40 	bl	8002408 <LL_TIM_OC_DisablePreload>
 8002b88:	0020      	movs	r0, r4
 8002b8a:	2110      	movs	r1, #16
 8002b8c:	f7ff fc3c 	bl	8002408 <LL_TIM_OC_DisablePreload>
 8002b90:	2180      	movs	r1, #128	@ 0x80
 8002b92:	0020      	movs	r0, r4
 8002b94:	0049      	lsls	r1, r1, #1
 8002b96:	f7ff fc37 	bl	8002408 <LL_TIM_OC_DisablePreload>
 8002b9a:	0039      	movs	r1, r7
 8002b9c:	0020      	movs	r0, r4
 8002b9e:	f7ff fc33 	bl	8002408 <LL_TIM_OC_DisablePreload>
 8002ba2:	6a23      	ldr	r3, [r4, #32]
 8002ba4:	4952      	ldr	r1, [pc, #328]	@ (8002cf0 <R1_Init+0x1c4>)
 8002ba6:	431f      	orrs	r7, r3
 8002ba8:	2300      	movs	r3, #0
 8002baa:	6227      	str	r7, [r4, #32]
 8002bac:	6323      	str	r3, [r4, #48]	@ 0x30
 8002bae:	3b81      	subs	r3, #129	@ 0x81
 8002bb0:	6123      	str	r3, [r4, #16]
 8002bb2:	68e2      	ldr	r2, [r4, #12]
 8002bb4:	3302      	adds	r3, #2
 8002bb6:	33ff      	adds	r3, #255	@ 0xff
 8002bb8:	4313      	orrs	r3, r2
 8002bba:	60e3      	str	r3, [r4, #12]
 8002bbc:	6a22      	ldr	r2, [r4, #32]
 8002bbe:	4b4d      	ldr	r3, [pc, #308]	@ (8002cf4 <R1_Init+0x1c8>)
 8002bc0:	4f4d      	ldr	r7, [pc, #308]	@ (8002cf8 <R1_Init+0x1cc>)
 8002bc2:	4313      	orrs	r3, r2
 8002bc4:	6223      	str	r3, [r4, #32]
 8002bc6:	68f3      	ldr	r3, [r6, #12]
 8002bc8:	9a01      	ldr	r2, [sp, #4]
 8002bca:	9303      	str	r3, [sp, #12]
 8002bcc:	18fb      	adds	r3, r7, r3
 8002bce:	3b01      	subs	r3, #1
 8002bd0:	781b      	ldrb	r3, [r3, #0]
 8002bd2:	9801      	ldr	r0, [sp, #4]
 8002bd4:	189b      	adds	r3, r3, r2
 8002bd6:	681a      	ldr	r2, [r3, #0]
 8002bd8:	400a      	ands	r2, r1
 8002bda:	4948      	ldr	r1, [pc, #288]	@ (8002cfc <R1_Init+0x1d0>)
 8002bdc:	430a      	orrs	r2, r1
 8002bde:	601a      	str	r2, [r3, #0]
 8002be0:	6ca1      	ldr	r1, [r4, #72]	@ 0x48
 8002be2:	4a47      	ldr	r2, [pc, #284]	@ (8002d00 <R1_Init+0x1d4>)
 8002be4:	4011      	ands	r1, r2
 8002be6:	4a47      	ldr	r2, [pc, #284]	@ (8002d04 <R1_Init+0x1d8>)
 8002be8:	430a      	orrs	r2, r1
 8002bea:	64a2      	str	r2, [r4, #72]	@ 0x48
 8002bec:	9a02      	ldr	r2, [sp, #8]
 8002bee:	9903      	ldr	r1, [sp, #12]
 8002bf0:	3288      	adds	r2, #136	@ 0x88
 8002bf2:	60da      	str	r2, [r3, #12]
 8002bf4:	0022      	movs	r2, r4
 8002bf6:	324c      	adds	r2, #76	@ 0x4c
 8002bf8:	609a      	str	r2, [r3, #8]
 8002bfa:	2206      	movs	r2, #6
 8002bfc:	f7ff fc38 	bl	8002470 <LL_DMA_SetDataLength>
 8002c00:	6931      	ldr	r1, [r6, #16]
 8002c02:	9a01      	ldr	r2, [sp, #4]
 8002c04:	187b      	adds	r3, r7, r1
 8002c06:	3b01      	subs	r3, #1
 8002c08:	781b      	ldrb	r3, [r3, #0]
 8002c0a:	4839      	ldr	r0, [pc, #228]	@ (8002cf0 <R1_Init+0x1c4>)
 8002c0c:	189b      	adds	r3, r3, r2
 8002c0e:	681a      	ldr	r2, [r3, #0]
 8002c10:	3440      	adds	r4, #64	@ 0x40
 8002c12:	4002      	ands	r2, r0
 8002c14:	4839      	ldr	r0, [pc, #228]	@ (8002cfc <R1_Init+0x1d0>)
 8002c16:	4302      	orrs	r2, r0
 8002c18:	601a      	str	r2, [r3, #0]
 8002c1a:	9a02      	ldr	r2, [sp, #8]
 8002c1c:	9801      	ldr	r0, [sp, #4]
 8002c1e:	32ae      	adds	r2, #174	@ 0xae
 8002c20:	60da      	str	r2, [r3, #12]
 8002c22:	609c      	str	r4, [r3, #8]
 8002c24:	2203      	movs	r2, #3
 8002c26:	f7ff fc23 	bl	8002470 <LL_DMA_SetDataLength>
 8002c2a:	9903      	ldr	r1, [sp, #12]
 8002c2c:	9801      	ldr	r0, [sp, #4]
 8002c2e:	f7ff fc2b 	bl	8002488 <LL_DMA_EnableIT_TC>
 8002c32:	69b1      	ldr	r1, [r6, #24]
 8002c34:	9801      	ldr	r0, [sp, #4]
 8002c36:	187b      	adds	r3, r7, r1
 8002c38:	3b01      	subs	r3, #1
 8002c3a:	9a02      	ldr	r2, [sp, #8]
 8002c3c:	781b      	ldrb	r3, [r3, #0]
 8002c3e:	32b4      	adds	r2, #180	@ 0xb4
 8002c40:	181b      	adds	r3, r3, r0
 8002c42:	60da      	str	r2, [r3, #12]
 8002c44:	002a      	movs	r2, r5
 8002c46:	3240      	adds	r2, #64	@ 0x40
 8002c48:	609a      	str	r2, [r3, #8]
 8002c4a:	2202      	movs	r2, #2
 8002c4c:	f7ff fc10 	bl	8002470 <LL_DMA_SetDataLength>
 8002c50:	2204      	movs	r2, #4
 8002c52:	2108      	movs	r1, #8
 8002c54:	686b      	ldr	r3, [r5, #4]
 8002c56:	482c      	ldr	r0, [pc, #176]	@ (8002d08 <R1_Init+0x1dc>)
 8002c58:	4393      	bics	r3, r2
 8002c5a:	606b      	str	r3, [r5, #4]
 8002c5c:	602a      	str	r2, [r5, #0]
 8002c5e:	686b      	ldr	r3, [r5, #4]
 8002c60:	2710      	movs	r7, #16
 8002c62:	438b      	bics	r3, r1
 8002c64:	606b      	str	r3, [r5, #4]
 8002c66:	6029      	str	r1, [r5, #0]
 8002c68:	2180      	movs	r1, #128	@ 0x80
 8002c6a:	4b28      	ldr	r3, [pc, #160]	@ (8002d0c <R1_Init+0x1e0>)
 8002c6c:	0609      	lsls	r1, r1, #24
 8002c6e:	689c      	ldr	r4, [r3, #8]
 8002c70:	4004      	ands	r4, r0
 8002c72:	4321      	orrs	r1, r4
 8002c74:	6099      	str	r1, [r3, #8]
 8002c76:	2102      	movs	r1, #2
 8002c78:	689c      	ldr	r4, [r3, #8]
 8002c7a:	2c00      	cmp	r4, #0
 8002c7c:	dbfc      	blt.n	8002c78 <R1_Init+0x14c>
 8002c7e:	689c      	ldr	r4, [r3, #8]
 8002c80:	4214      	tst	r4, r2
 8002c82:	d1f9      	bne.n	8002c78 <R1_Init+0x14c>
 8002c84:	689c      	ldr	r4, [r3, #8]
 8002c86:	423c      	tst	r4, r7
 8002c88:	d1f6      	bne.n	8002c78 <R1_Init+0x14c>
 8002c8a:	689c      	ldr	r4, [r3, #8]
 8002c8c:	420c      	tst	r4, r1
 8002c8e:	d1f3      	bne.n	8002c78 <R1_Init+0x14c>
 8002c90:	2201      	movs	r2, #1
 8002c92:	2403      	movs	r4, #3
 8002c94:	6899      	ldr	r1, [r3, #8]
 8002c96:	4001      	ands	r1, r0
 8002c98:	4311      	orrs	r1, r2
 8002c9a:	6099      	str	r1, [r3, #8]
 8002c9c:	68e9      	ldr	r1, [r5, #12]
 8002c9e:	481c      	ldr	r0, [pc, #112]	@ (8002d10 <R1_Init+0x1e4>)
 8002ca0:	4001      	ands	r1, r0
 8002ca2:	60e9      	str	r1, [r5, #12]
 8002ca4:	68d9      	ldr	r1, [r3, #12]
 8002ca6:	43a1      	bics	r1, r4
 8002ca8:	4311      	orrs	r1, r2
 8002caa:	60d9      	str	r1, [r3, #12]
 8002cac:	6819      	ldr	r1, [r3, #0]
 8002cae:	4211      	tst	r1, r2
 8002cb0:	d0fc      	beq.n	8002cac <R1_Init+0x180>
 8002cb2:	2380      	movs	r3, #128	@ 0x80
 8002cb4:	68e9      	ldr	r1, [r5, #12]
 8002cb6:	00db      	lsls	r3, r3, #3
 8002cb8:	4001      	ands	r1, r0
 8002cba:	430b      	orrs	r3, r1
 8002cbc:	0011      	movs	r1, r2
 8002cbe:	60eb      	str	r3, [r5, #12]
 8002cc0:	3603      	adds	r6, #3
 8002cc2:	7ff3      	ldrb	r3, [r6, #31]
 8002cc4:	4099      	lsls	r1, r3
 8002cc6:	034b      	lsls	r3, r1, #13
 8002cc8:	0b5b      	lsrs	r3, r3, #13
 8002cca:	62ab      	str	r3, [r5, #40]	@ 0x28
 8002ccc:	4b11      	ldr	r3, [pc, #68]	@ (8002d14 <R1_Init+0x1e8>)
 8002cce:	6819      	ldr	r1, [r3, #0]
 8002cd0:	430a      	orrs	r2, r1
 8002cd2:	601a      	str	r2, [r3, #0]
 8002cd4:	2200      	movs	r2, #0
 8002cd6:	9b02      	ldr	r3, [sp, #8]
 8002cd8:	33ca      	adds	r3, #202	@ 0xca
 8002cda:	701a      	strb	r2, [r3, #0]
 8002cdc:	9b02      	ldr	r3, [sp, #8]
 8002cde:	3370      	adds	r3, #112	@ 0x70
 8002ce0:	801a      	strh	r2, [r3, #0]
 8002ce2:	b007      	add	sp, #28
 8002ce4:	bdf0      	pop	{r4, r5, r6, r7, pc}
 8002ce6:	46c0      	nop			@ (mov r8, r8)
 8002ce8:	40021000 	.word	0x40021000
 8002cec:	40015800 	.word	0x40015800
 8002cf0:	ffff800f 	.word	0xffff800f
 8002cf4:	00000555 	.word	0x00000555
 8002cf8:	080069c7 	.word	0x080069c7
 8002cfc:	000035b0 	.word	0x000035b0
 8002d00:	ffffe0e0 	.word	0xffffe0e0
 8002d04:	0000020d 	.word	0x0000020d
 8002d08:	7fffffe8 	.word	0x7fffffe8
 8002d0c:	40012400 	.word	0x40012400
 8002d10:	fffff23f 	.word	0xfffff23f
 8002d14:	40012c00 	.word	0x40012c00

08002d18 <R1_SetOffsetCalib>:
 8002d18:	0003      	movs	r3, r0
 8002d1a:	680a      	ldr	r2, [r1, #0]
 8002d1c:	33a0      	adds	r3, #160	@ 0xa0
 8002d1e:	601a      	str	r2, [r3, #0]
 8002d20:	2301      	movs	r3, #1
 8002d22:	3081      	adds	r0, #129	@ 0x81
 8002d24:	7003      	strb	r3, [r0, #0]
 8002d26:	4770      	bx	lr

08002d28 <R1_GetOffsetCalib>:
 8002d28:	30a0      	adds	r0, #160	@ 0xa0
 8002d2a:	6803      	ldr	r3, [r0, #0]
 8002d2c:	600b      	str	r3, [r1, #0]
 8002d2e:	4770      	bx	lr

08002d30 <R1_TurnOnLowSides>:
 8002d30:	0003      	movs	r3, r0
 8002d32:	b510      	push	{r4, lr}
 8002d34:	0004      	movs	r4, r0
 8002d36:	2201      	movs	r2, #1
 8002d38:	33cc      	adds	r3, #204	@ 0xcc
 8002d3a:	681b      	ldr	r3, [r3, #0]
 8002d3c:	347e      	adds	r4, #126	@ 0x7e
 8002d3e:	685b      	ldr	r3, [r3, #4]
 8002d40:	7022      	strb	r2, [r4, #0]
 8002d42:	6359      	str	r1, [r3, #52]	@ 0x34
 8002d44:	6399      	str	r1, [r3, #56]	@ 0x38
 8002d46:	63d9      	str	r1, [r3, #60]	@ 0x3c
 8002d48:	2102      	movs	r1, #2
 8002d4a:	4249      	negs	r1, r1
 8002d4c:	6119      	str	r1, [r3, #16]
 8002d4e:	6919      	ldr	r1, [r3, #16]
 8002d50:	4211      	tst	r1, r2
 8002d52:	d0fc      	beq.n	8002d4e <R1_TurnOnLowSides+0x1e>
 8002d54:	2280      	movs	r2, #128	@ 0x80
 8002d56:	6c59      	ldr	r1, [r3, #68]	@ 0x44
 8002d58:	0212      	lsls	r2, r2, #8
 8002d5a:	430a      	orrs	r2, r1
 8002d5c:	645a      	str	r2, [r3, #68]	@ 0x44
 8002d5e:	0003      	movs	r3, r0
 8002d60:	337d      	adds	r3, #125	@ 0x7d
 8002d62:	781b      	ldrb	r3, [r3, #0]
 8002d64:	2b02      	cmp	r3, #2
 8002d66:	d10d      	bne.n	8002d84 <R1_TurnOnLowSides+0x54>
 8002d68:	0002      	movs	r2, r0
 8002d6a:	3248      	adds	r2, #72	@ 0x48
 8002d6c:	6bc3      	ldr	r3, [r0, #60]	@ 0x3c
 8002d6e:	8812      	ldrh	r2, [r2, #0]
 8002d70:	619a      	str	r2, [r3, #24]
 8002d72:	0002      	movs	r2, r0
 8002d74:	324a      	adds	r2, #74	@ 0x4a
 8002d76:	6c03      	ldr	r3, [r0, #64]	@ 0x40
 8002d78:	8812      	ldrh	r2, [r2, #0]
 8002d7a:	619a      	str	r2, [r3, #24]
 8002d7c:	6c43      	ldr	r3, [r0, #68]	@ 0x44
 8002d7e:	304c      	adds	r0, #76	@ 0x4c
 8002d80:	8802      	ldrh	r2, [r0, #0]
 8002d82:	619a      	str	r2, [r3, #24]
 8002d84:	bd10      	pop	{r4, pc}
	...

08002d88 <R1_SwitchOnPWM>:
 8002d88:	0003      	movs	r3, r0
 8002d8a:	b5f0      	push	{r4, r5, r6, r7, lr}
 8002d8c:	334c      	adds	r3, #76	@ 0x4c
 8002d8e:	b089      	sub	sp, #36	@ 0x24
 8002d90:	9305      	str	r3, [sp, #20]
 8002d92:	3380      	adds	r3, #128	@ 0x80
 8002d94:	681d      	ldr	r5, [r3, #0]
 8002d96:	0007      	movs	r7, r0
 8002d98:	682b      	ldr	r3, [r5, #0]
 8002d9a:	686c      	ldr	r4, [r5, #4]
 8002d9c:	9307      	str	r3, [sp, #28]
 8002d9e:	0003      	movs	r3, r0
 8002da0:	33b8      	adds	r3, #184	@ 0xb8
 8002da2:	881b      	ldrh	r3, [r3, #0]
 8002da4:	68ae      	ldr	r6, [r5, #8]
 8002da6:	9301      	str	r3, [sp, #4]
 8002da8:	8be8      	ldrh	r0, [r5, #30]
 8002daa:	085a      	lsrs	r2, r3, #1
 8002dac:	8c2b      	ldrh	r3, [r5, #32]
 8002dae:	181b      	adds	r3, r3, r0
 8002db0:	b29b      	uxth	r3, r3
 8002db2:	1ad0      	subs	r0, r2, r3
 8002db4:	b280      	uxth	r0, r0
 8002db6:	9003      	str	r0, [sp, #12]
 8002db8:	0038      	movs	r0, r7
 8002dba:	9903      	ldr	r1, [sp, #12]
 8002dbc:	18d3      	adds	r3, r2, r3
 8002dbe:	30ba      	adds	r0, #186	@ 0xba
 8002dc0:	b29b      	uxth	r3, r3
 8002dc2:	8001      	strh	r1, [r0, #0]
 8002dc4:	8043      	strh	r3, [r0, #2]
 8002dc6:	2100      	movs	r1, #0
 8002dc8:	383c      	subs	r0, #60	@ 0x3c
 8002dca:	8603      	strh	r3, [r0, #48]	@ 0x30
 8002dcc:	003b      	movs	r3, r7
 8002dce:	7001      	strb	r1, [r0, #0]
 8002dd0:	9903      	ldr	r1, [sp, #12]
 8002dd2:	33b2      	adds	r3, #178	@ 0xb2
 8002dd4:	8019      	strh	r1, [r3, #0]
 8002dd6:	9b01      	ldr	r3, [sp, #4]
 8002dd8:	3301      	adds	r3, #1
 8002dda:	6423      	str	r3, [r4, #64]	@ 0x40
 8002ddc:	9304      	str	r3, [sp, #16]
 8002dde:	2380      	movs	r3, #128	@ 0x80
 8002de0:	6362      	str	r2, [r4, #52]	@ 0x34
 8002de2:	63a2      	str	r2, [r4, #56]	@ 0x38
 8002de4:	63e2      	str	r2, [r4, #60]	@ 0x3c
 8002de6:	6c62      	ldr	r2, [r4, #68]	@ 0x44
 8002de8:	021b      	lsls	r3, r3, #8
 8002dea:	4313      	orrs	r3, r2
 8002dec:	6463      	str	r3, [r4, #68]	@ 0x44
 8002dee:	003b      	movs	r3, r7
 8002df0:	337d      	adds	r3, #125	@ 0x7d
 8002df2:	781b      	ldrb	r3, [r3, #0]
 8002df4:	2b02      	cmp	r3, #2
 8002df6:	d11c      	bne.n	8002e32 <R1_SwitchOnPWM+0xaa>
 8002df8:	6a23      	ldr	r3, [r4, #32]
 8002dfa:	9a05      	ldr	r2, [sp, #20]
 8002dfc:	9306      	str	r3, [sp, #24]
 8002dfe:	6bfb      	ldr	r3, [r7, #60]	@ 0x3c
 8002e00:	6c39      	ldr	r1, [r7, #64]	@ 0x40
 8002e02:	469c      	mov	ip, r3
 8002e04:	003b      	movs	r3, r7
 8002e06:	3348      	adds	r3, #72	@ 0x48
 8002e08:	881b      	ldrh	r3, [r3, #0]
 8002e0a:	9302      	str	r3, [sp, #8]
 8002e0c:	003b      	movs	r3, r7
 8002e0e:	334a      	adds	r3, #74	@ 0x4a
 8002e10:	8818      	ldrh	r0, [r3, #0]
 8002e12:	6c7b      	ldr	r3, [r7, #68]	@ 0x44
 8002e14:	9301      	str	r3, [sp, #4]
 8002e16:	8813      	ldrh	r3, [r2, #0]
 8002e18:	4a5e      	ldr	r2, [pc, #376]	@ (8002f94 <R1_SwitchOnPWM+0x20c>)
 8002e1a:	9305      	str	r3, [sp, #20]
 8002e1c:	9b06      	ldr	r3, [sp, #24]
 8002e1e:	4213      	tst	r3, r2
 8002e20:	d100      	bne.n	8002e24 <R1_SwitchOnPWM+0x9c>
 8002e22:	e0a6      	b.n	8002f72 <R1_SwitchOnPWM+0x1ea>
 8002e24:	4663      	mov	r3, ip
 8002e26:	9a02      	ldr	r2, [sp, #8]
 8002e28:	619a      	str	r2, [r3, #24]
 8002e2a:	9b01      	ldr	r3, [sp, #4]
 8002e2c:	9a05      	ldr	r2, [sp, #20]
 8002e2e:	6188      	str	r0, [r1, #24]
 8002e30:	619a      	str	r2, [r3, #24]
 8002e32:	2310      	movs	r3, #16
 8002e34:	6822      	ldr	r2, [r4, #0]
 8002e36:	421a      	tst	r2, r3
 8002e38:	d000      	beq.n	8002e3c <R1_SwitchOnPWM+0xb4>
 8002e3a:	e0a2      	b.n	8002f82 <R1_SwitchOnPWM+0x1fa>
 8002e3c:	6822      	ldr	r2, [r4, #0]
 8002e3e:	421a      	tst	r2, r3
 8002e40:	d0fc      	beq.n	8002e3c <R1_SwitchOnPWM+0xb4>
 8002e42:	68eb      	ldr	r3, [r5, #12]
 8002e44:	9301      	str	r3, [sp, #4]
 8002e46:	692b      	ldr	r3, [r5, #16]
 8002e48:	9302      	str	r3, [sp, #8]
 8002e4a:	2e00      	cmp	r6, #0
 8002e4c:	d011      	beq.n	8002e72 <R1_SwitchOnPWM+0xea>
 8002e4e:	2102      	movs	r1, #2
 8002e50:	9b01      	ldr	r3, [sp, #4]
 8002e52:	1e5a      	subs	r2, r3, #1
 8002e54:	000b      	movs	r3, r1
 8002e56:	0092      	lsls	r2, r2, #2
 8002e58:	4093      	lsls	r3, r2
 8002e5a:	6073      	str	r3, [r6, #4]
 8002e5c:	2304      	movs	r3, #4
 8002e5e:	0018      	movs	r0, r3
 8002e60:	4090      	lsls	r0, r2
 8002e62:	9a02      	ldr	r2, [sp, #8]
 8002e64:	6070      	str	r0, [r6, #4]
 8002e66:	3a01      	subs	r2, #1
 8002e68:	408a      	lsls	r2, r1
 8002e6a:	4091      	lsls	r1, r2
 8002e6c:	4093      	lsls	r3, r2
 8002e6e:	6071      	str	r1, [r6, #4]
 8002e70:	6073      	str	r3, [r6, #4]
 8002e72:	003a      	movs	r2, r7
 8002e74:	2302      	movs	r3, #2
 8002e76:	0039      	movs	r1, r7
 8002e78:	425b      	negs	r3, r3
 8002e7a:	32c6      	adds	r2, #198	@ 0xc6
 8002e7c:	6123      	str	r3, [r4, #16]
 8002e7e:	0013      	movs	r3, r2
 8002e80:	2200      	movs	r2, #0
 8002e82:	31c9      	adds	r1, #201	@ 0xc9
 8002e84:	701a      	strb	r2, [r3, #0]
 8002e86:	0030      	movs	r0, r6
 8002e88:	700a      	strb	r2, [r1, #0]
 8002e8a:	3206      	adds	r2, #6
 8002e8c:	9901      	ldr	r1, [sp, #4]
 8002e8e:	f7ff faef 	bl	8002470 <LL_DMA_SetDataLength>
 8002e92:	0030      	movs	r0, r6
 8002e94:	9901      	ldr	r1, [sp, #4]
 8002e96:	f7ff fad7 	bl	8002448 <LL_DMA_EnableChannel>
 8002e9a:	2380      	movs	r3, #128	@ 0x80
 8002e9c:	68e2      	ldr	r2, [r4, #12]
 8002e9e:	005b      	lsls	r3, r3, #1
 8002ea0:	4313      	orrs	r3, r2
 8002ea2:	60e3      	str	r3, [r4, #12]
 8002ea4:	2380      	movs	r3, #128	@ 0x80
 8002ea6:	68e2      	ldr	r2, [r4, #12]
 8002ea8:	015b      	lsls	r3, r3, #5
 8002eaa:	4313      	orrs	r3, r2
 8002eac:	60e3      	str	r3, [r4, #12]
 8002eae:	2203      	movs	r2, #3
 8002eb0:	0030      	movs	r0, r6
 8002eb2:	9902      	ldr	r1, [sp, #8]
 8002eb4:	f7ff fadc 	bl	8002470 <LL_DMA_SetDataLength>
 8002eb8:	0030      	movs	r0, r6
 8002eba:	9902      	ldr	r1, [sp, #8]
 8002ebc:	f7ff fac4 	bl	8002448 <LL_DMA_EnableChannel>
 8002ec0:	9904      	ldr	r1, [sp, #16]
 8002ec2:	0030      	movs	r0, r6
 8002ec4:	6421      	str	r1, [r4, #64]	@ 0x40
 8002ec6:	69a9      	ldr	r1, [r5, #24]
 8002ec8:	9102      	str	r1, [sp, #8]
 8002eca:	f7ff fac7 	bl	800245c <LL_DMA_DisableChannel>
 8002ece:	2202      	movs	r2, #2
 8002ed0:	0030      	movs	r0, r6
 8002ed2:	9902      	ldr	r1, [sp, #8]
 8002ed4:	f7ff facc 	bl	8002470 <LL_DMA_SetDataLength>
 8002ed8:	0030      	movs	r0, r6
 8002eda:	9902      	ldr	r1, [sp, #8]
 8002edc:	f7ff fab4 	bl	8002448 <LL_DMA_EnableChannel>
 8002ee0:	2101      	movs	r1, #1
 8002ee2:	1ceb      	adds	r3, r5, #3
 8002ee4:	7fdb      	ldrb	r3, [r3, #31]
 8002ee6:	2007      	movs	r0, #7
 8002ee8:	4099      	lsls	r1, r3
 8002eea:	034b      	lsls	r3, r1, #13
 8002eec:	9907      	ldr	r1, [sp, #28]
 8002eee:	4a2a      	ldr	r2, [pc, #168]	@ (8002f98 <R1_SwitchOnPWM+0x210>)
 8002ef0:	0b5b      	lsrs	r3, r3, #13
 8002ef2:	628b      	str	r3, [r1, #40]	@ 0x28
 8002ef4:	6951      	ldr	r1, [r2, #20]
 8002ef6:	1d2b      	adds	r3, r5, #4
 8002ef8:	7fdb      	ldrb	r3, [r3, #31]
 8002efa:	4381      	bics	r1, r0
 8002efc:	430b      	orrs	r3, r1
 8002efe:	2103      	movs	r1, #3
 8002f00:	6153      	str	r3, [r2, #20]
 8002f02:	68d3      	ldr	r3, [r2, #12]
 8002f04:	3806      	subs	r0, #6
 8002f06:	438b      	bics	r3, r1
 8002f08:	4303      	orrs	r3, r0
 8002f0a:	60d3      	str	r3, [r2, #12]
 8002f0c:	68d1      	ldr	r1, [r2, #12]
 8002f0e:	4b23      	ldr	r3, [pc, #140]	@ (8002f9c <R1_SwitchOnPWM+0x214>)
 8002f10:	4019      	ands	r1, r3
 8002f12:	2388      	movs	r3, #136	@ 0x88
 8002f14:	00db      	lsls	r3, r3, #3
 8002f16:	430b      	orrs	r3, r1
 8002f18:	60d3      	str	r3, [r2, #12]
 8002f1a:	6891      	ldr	r1, [r2, #8]
 8002f1c:	4b20      	ldr	r3, [pc, #128]	@ (8002fa0 <R1_SwitchOnPWM+0x218>)
 8002f1e:	4019      	ands	r1, r3
 8002f20:	2304      	movs	r3, #4
 8002f22:	430b      	orrs	r3, r1
 8002f24:	6093      	str	r3, [r2, #8]
 8002f26:	2270      	movs	r2, #112	@ 0x70
 8002f28:	6863      	ldr	r3, [r4, #4]
 8002f2a:	0039      	movs	r1, r7
 8002f2c:	4313      	orrs	r3, r2
 8002f2e:	2200      	movs	r2, #0
 8002f30:	31c8      	adds	r1, #200	@ 0xc8
 8002f32:	37ca      	adds	r7, #202	@ 0xca
 8002f34:	6063      	str	r3, [r4, #4]
 8002f36:	700a      	strb	r2, [r1, #0]
 8002f38:	9901      	ldr	r1, [sp, #4]
 8002f3a:	7038      	strb	r0, [r7, #0]
 8002f3c:	0030      	movs	r0, r6
 8002f3e:	f7ff faa3 	bl	8002488 <LL_DMA_EnableIT_TC>
 8002f42:	0030      	movs	r0, r6
 8002f44:	9902      	ldr	r1, [sp, #8]
 8002f46:	f7ff fa9f 	bl	8002488 <LL_DMA_EnableIT_TC>
 8002f4a:	2302      	movs	r3, #2
 8002f4c:	425b      	negs	r3, r3
 8002f4e:	6123      	str	r3, [r4, #16]
 8002f50:	3312      	adds	r3, #18
 8002f52:	2101      	movs	r1, #1
 8002f54:	6922      	ldr	r2, [r4, #16]
 8002f56:	420a      	tst	r2, r1
 8002f58:	d0fb      	beq.n	8002f52 <R1_SwitchOnPWM+0x1ca>
 8002f5a:	6822      	ldr	r2, [r4, #0]
 8002f5c:	421a      	tst	r2, r3
 8002f5e:	d1f8      	bne.n	8002f52 <R1_SwitchOnPWM+0x1ca>
 8002f60:	000d      	movs	r5, r1
 8002f62:	4b10      	ldr	r3, [pc, #64]	@ (8002fa4 <R1_SwitchOnPWM+0x21c>)
 8002f64:	68da      	ldr	r2, [r3, #12]
 8002f66:	4315      	orrs	r5, r2
 8002f68:	60dd      	str	r5, [r3, #12]
 8002f6a:	9b03      	ldr	r3, [sp, #12]
 8002f6c:	6423      	str	r3, [r4, #64]	@ 0x40
 8002f6e:	b009      	add	sp, #36	@ 0x24
 8002f70:	bdf0      	pop	{r4, r5, r6, r7, pc}
 8002f72:	4663      	mov	r3, ip
 8002f74:	9a02      	ldr	r2, [sp, #8]
 8002f76:	629a      	str	r2, [r3, #40]	@ 0x28
 8002f78:	9b01      	ldr	r3, [sp, #4]
 8002f7a:	9a05      	ldr	r2, [sp, #20]
 8002f7c:	6288      	str	r0, [r1, #40]	@ 0x28
 8002f7e:	629a      	str	r2, [r3, #40]	@ 0x28
 8002f80:	e757      	b.n	8002e32 <R1_SwitchOnPWM+0xaa>
 8002f82:	6822      	ldr	r2, [r4, #0]
 8002f84:	421a      	tst	r2, r3
 8002f86:	d1fc      	bne.n	8002f82 <R1_SwitchOnPWM+0x1fa>
 8002f88:	2310      	movs	r3, #16
 8002f8a:	6822      	ldr	r2, [r4, #0]
 8002f8c:	421a      	tst	r2, r3
 8002f8e:	d0fc      	beq.n	8002f8a <R1_SwitchOnPWM+0x202>
 8002f90:	e757      	b.n	8002e42 <R1_SwitchOnPWM+0xba>
 8002f92:	46c0      	nop			@ (mov r8, r8)
 8002f94:	00000555 	.word	0x00000555
 8002f98:	40012400 	.word	0x40012400
 8002f9c:	fffff23f 	.word	0xfffff23f
 8002fa0:	7fffffe8 	.word	0x7fffffe8
 8002fa4:	40012c00 	.word	0x40012c00

08002fa8 <R1_SwitchOffPWM>:
 8002fa8:	0003      	movs	r3, r0
 8002faa:	b5f0      	push	{r4, r5, r6, r7, lr}
 8002fac:	0004      	movs	r4, r0
 8002fae:	33cc      	adds	r3, #204	@ 0xcc
 8002fb0:	681e      	ldr	r6, [r3, #0]
 8002fb2:	3b14      	subs	r3, #20
 8002fb4:	881b      	ldrh	r3, [r3, #0]
 8002fb6:	b085      	sub	sp, #20
 8002fb8:	9300      	str	r3, [sp, #0]
 8002fba:	8bf1      	ldrh	r1, [r6, #30]
 8002fbc:	085a      	lsrs	r2, r3, #1
 8002fbe:	8c33      	ldrh	r3, [r6, #32]
 8002fc0:	6875      	ldr	r5, [r6, #4]
 8002fc2:	185b      	adds	r3, r3, r1
 8002fc4:	b29b      	uxth	r3, r3
 8002fc6:	1ad1      	subs	r1, r2, r3
 8002fc8:	18d2      	adds	r2, r2, r3
 8002fca:	b293      	uxth	r3, r2
 8002fcc:	b289      	uxth	r1, r1
 8002fce:	9101      	str	r1, [sp, #4]
 8002fd0:	9302      	str	r3, [sp, #8]
 8002fd2:	0001      	movs	r1, r0
 8002fd4:	0023      	movs	r3, r4
 8002fd6:	9a02      	ldr	r2, [sp, #8]
 8002fd8:	9801      	ldr	r0, [sp, #4]
 8002fda:	33bc      	adds	r3, #188	@ 0xbc
 8002fdc:	31ba      	adds	r1, #186	@ 0xba
 8002fde:	68b7      	ldr	r7, [r6, #8]
 8002fe0:	8008      	strh	r0, [r1, #0]
 8002fe2:	801a      	strh	r2, [r3, #0]
 8002fe4:	2201      	movs	r2, #1
 8002fe6:	68eb      	ldr	r3, [r5, #12]
 8002fe8:	4393      	bics	r3, r2
 8002fea:	60eb      	str	r3, [r5, #12]
 8002fec:	2310      	movs	r3, #16
 8002fee:	682a      	ldr	r2, [r5, #0]
 8002ff0:	421a      	tst	r2, r3
 8002ff2:	d000      	beq.n	8002ff6 <R1_SwitchOffPWM+0x4e>
 8002ff4:	e074      	b.n	80030e0 <R1_SwitchOffPWM+0x138>
 8002ff6:	682a      	ldr	r2, [r5, #0]
 8002ff8:	421a      	tst	r2, r3
 8002ffa:	d0fc      	beq.n	8002ff6 <R1_SwitchOffPWM+0x4e>
 8002ffc:	2102      	movs	r1, #2
 8002ffe:	68f3      	ldr	r3, [r6, #12]
 8003000:	9303      	str	r3, [sp, #12]
 8003002:	9a03      	ldr	r2, [sp, #12]
 8003004:	4b3a      	ldr	r3, [pc, #232]	@ (80030f0 <R1_SwitchOffPWM+0x148>)
 8003006:	5cd3      	ldrb	r3, [r2, r3]
 8003008:	18fb      	adds	r3, r7, r3
 800300a:	681a      	ldr	r2, [r3, #0]
 800300c:	438a      	bics	r2, r1
 800300e:	601a      	str	r2, [r3, #0]
 8003010:	681a      	ldr	r2, [r3, #0]
 8003012:	1849      	adds	r1, r1, r1
 8003014:	438a      	bics	r2, r1
 8003016:	601a      	str	r2, [r3, #0]
 8003018:	0023      	movs	r3, r4
 800301a:	2200      	movs	r2, #0
 800301c:	337e      	adds	r3, #126	@ 0x7e
 800301e:	701a      	strb	r2, [r3, #0]
 8003020:	6c6b      	ldr	r3, [r5, #68]	@ 0x44
 8003022:	4a34      	ldr	r2, [pc, #208]	@ (80030f4 <R1_SwitchOffPWM+0x14c>)
 8003024:	4013      	ands	r3, r2
 8003026:	646b      	str	r3, [r5, #68]	@ 0x44
 8003028:	0023      	movs	r3, r4
 800302a:	3385      	adds	r3, #133	@ 0x85
 800302c:	781b      	ldrb	r3, [r3, #0]
 800302e:	2b00      	cmp	r3, #0
 8003030:	d113      	bne.n	800305a <R1_SwitchOffPWM+0xb2>
 8003032:	0023      	movs	r3, r4
 8003034:	337d      	adds	r3, #125	@ 0x7d
 8003036:	781b      	ldrb	r3, [r3, #0]
 8003038:	2b02      	cmp	r3, #2
 800303a:	d10e      	bne.n	800305a <R1_SwitchOffPWM+0xb2>
 800303c:	0022      	movs	r2, r4
 800303e:	3248      	adds	r2, #72	@ 0x48
 8003040:	6be3      	ldr	r3, [r4, #60]	@ 0x3c
 8003042:	8812      	ldrh	r2, [r2, #0]
 8003044:	629a      	str	r2, [r3, #40]	@ 0x28
 8003046:	0022      	movs	r2, r4
 8003048:	324a      	adds	r2, #74	@ 0x4a
 800304a:	6c23      	ldr	r3, [r4, #64]	@ 0x40
 800304c:	8812      	ldrh	r2, [r2, #0]
 800304e:	629a      	str	r2, [r3, #40]	@ 0x28
 8003050:	0022      	movs	r2, r4
 8003052:	324c      	adds	r2, #76	@ 0x4c
 8003054:	6c63      	ldr	r3, [r4, #68]	@ 0x44
 8003056:	8812      	ldrh	r2, [r2, #0]
 8003058:	629a      	str	r2, [r3, #40]	@ 0x28
 800305a:	0038      	movs	r0, r7
 800305c:	69b1      	ldr	r1, [r6, #24]
 800305e:	f7ff f9fd 	bl	800245c <LL_DMA_DisableChannel>
 8003062:	2301      	movs	r3, #1
 8003064:	607b      	str	r3, [r7, #4]
 8003066:	18db      	adds	r3, r3, r3
 8003068:	607b      	str	r3, [r7, #4]
 800306a:	3302      	adds	r3, #2
 800306c:	0038      	movs	r0, r7
 800306e:	9903      	ldr	r1, [sp, #12]
 8003070:	607b      	str	r3, [r7, #4]
 8003072:	f7ff f9f3 	bl	800245c <LL_DMA_DisableChannel>
 8003076:	68eb      	ldr	r3, [r5, #12]
 8003078:	4a1f      	ldr	r2, [pc, #124]	@ (80030f8 <R1_SwitchOffPWM+0x150>)
 800307a:	6931      	ldr	r1, [r6, #16]
 800307c:	4013      	ands	r3, r2
 800307e:	60eb      	str	r3, [r5, #12]
 8003080:	0038      	movs	r0, r7
 8003082:	f7ff f9eb 	bl	800245c <LL_DMA_DisableChannel>
 8003086:	68eb      	ldr	r3, [r5, #12]
 8003088:	4a1c      	ldr	r2, [pc, #112]	@ (80030fc <R1_SwitchOffPWM+0x154>)
 800308a:	2104      	movs	r1, #4
 800308c:	4013      	ands	r3, r2
 800308e:	60eb      	str	r3, [r5, #12]
 8003090:	0023      	movs	r3, r4
 8003092:	9a02      	ldr	r2, [sp, #8]
 8003094:	33ae      	adds	r3, #174	@ 0xae
 8003096:	801a      	strh	r2, [r3, #0]
 8003098:	9a01      	ldr	r2, [sp, #4]
 800309a:	809a      	strh	r2, [r3, #4]
 800309c:	2270      	movs	r2, #112	@ 0x70
 800309e:	9b00      	ldr	r3, [sp, #0]
 80030a0:	3301      	adds	r3, #1
 80030a2:	642b      	str	r3, [r5, #64]	@ 0x40
 80030a4:	686b      	ldr	r3, [r5, #4]
 80030a6:	4393      	bics	r3, r2
 80030a8:	606b      	str	r3, [r5, #4]
 80030aa:	4b15      	ldr	r3, [pc, #84]	@ (8003100 <R1_SwitchOffPWM+0x158>)
 80030ac:	689a      	ldr	r2, [r3, #8]
 80030ae:	420a      	tst	r2, r1
 80030b0:	d009      	beq.n	80030c6 <R1_SwitchOffPWM+0x11e>
 80030b2:	6899      	ldr	r1, [r3, #8]
 80030b4:	4a13      	ldr	r2, [pc, #76]	@ (8003104 <R1_SwitchOffPWM+0x15c>)
 80030b6:	4011      	ands	r1, r2
 80030b8:	2210      	movs	r2, #16
 80030ba:	430a      	orrs	r2, r1
 80030bc:	609a      	str	r2, [r3, #8]
 80030be:	2104      	movs	r1, #4
 80030c0:	689a      	ldr	r2, [r3, #8]
 80030c2:	420a      	tst	r2, r1
 80030c4:	d1fb      	bne.n	80030be <R1_SwitchOffPWM+0x116>
 80030c6:	68da      	ldr	r2, [r3, #12]
 80030c8:	490f      	ldr	r1, [pc, #60]	@ (8003108 <R1_SwitchOffPWM+0x160>)
 80030ca:	0020      	movs	r0, r4
 80030cc:	400a      	ands	r2, r1
 80030ce:	60da      	str	r2, [r3, #12]
 80030d0:	0023      	movs	r3, r4
 80030d2:	2200      	movs	r2, #0
 80030d4:	33ca      	adds	r3, #202	@ 0xca
 80030d6:	701a      	strb	r2, [r3, #0]
 80030d8:	f7ff f9e0 	bl	800249c <R1_1ShuntMotorVarsInit>
 80030dc:	b005      	add	sp, #20
 80030de:	bdf0      	pop	{r4, r5, r6, r7, pc}
 80030e0:	682a      	ldr	r2, [r5, #0]
 80030e2:	421a      	tst	r2, r3
 80030e4:	d1fc      	bne.n	80030e0 <R1_SwitchOffPWM+0x138>
 80030e6:	2310      	movs	r3, #16
 80030e8:	682a      	ldr	r2, [r5, #0]
 80030ea:	421a      	tst	r2, r3
 80030ec:	d0fc      	beq.n	80030e8 <R1_SwitchOffPWM+0x140>
 80030ee:	e785      	b.n	8002ffc <R1_SwitchOffPWM+0x54>
 80030f0:	080069c6 	.word	0x080069c6
 80030f4:	ffff7fff 	.word	0xffff7fff
 80030f8:	fffffeff 	.word	0xfffffeff
 80030fc:	ffffefff 	.word	0xffffefff
 8003100:	40012400 	.word	0x40012400
 8003104:	7fffffe8 	.word	0x7fffffe8
 8003108:	fffff23f 	.word	0xfffff23f

0800310c <R1_CurrentReadingCalibration>:
 800310c:	b5f7      	push	{r0, r1, r2, r4, r5, r6, r7, lr}
 800310e:	0007      	movs	r7, r0
 8003110:	37cc      	adds	r7, #204	@ 0xcc
 8003112:	683b      	ldr	r3, [r7, #0]
 8003114:	0004      	movs	r4, r0
 8003116:	685d      	ldr	r5, [r3, #4]
 8003118:	0003      	movs	r3, r0
 800311a:	3381      	adds	r3, #129	@ 0x81
 800311c:	9300      	str	r3, [sp, #0]
 800311e:	781b      	ldrb	r3, [r3, #0]
 8003120:	2b00      	cmp	r3, #0
 8003122:	d129      	bne.n	8003178 <R1_CurrentReadingCalibration+0x6c>
 8003124:	0006      	movs	r6, r0
 8003126:	0002      	movs	r2, r0
 8003128:	36a0      	adds	r6, #160	@ 0xa0
 800312a:	32c4      	adds	r2, #196	@ 0xc4
 800312c:	6033      	str	r3, [r6, #0]
 800312e:	7013      	strb	r3, [r2, #0]
 8003130:	6a2b      	ldr	r3, [r5, #32]
 8003132:	9201      	str	r2, [sp, #4]
 8003134:	4a14      	ldr	r2, [pc, #80]	@ (8003188 <R1_CurrentReadingCalibration+0x7c>)
 8003136:	4013      	ands	r3, r2
 8003138:	622b      	str	r3, [r5, #32]
 800313a:	4b14      	ldr	r3, [pc, #80]	@ (800318c <R1_CurrentReadingCalibration+0x80>)
 800313c:	6003      	str	r3, [r0, #0]
 800313e:	4b14      	ldr	r3, [pc, #80]	@ (8003190 <R1_CurrentReadingCalibration+0x84>)
 8003140:	6143      	str	r3, [r0, #20]
 8003142:	f7ff fe21 	bl	8002d88 <R1_SwitchOnPWM>
 8003146:	683b      	ldr	r3, [r7, #0]
 8003148:	3f76      	subs	r7, #118	@ 0x76
 800314a:	3305      	adds	r3, #5
 800314c:	7fda      	ldrb	r2, [r3, #31]
 800314e:	0039      	movs	r1, r7
 8003150:	9b01      	ldr	r3, [sp, #4]
 8003152:	0028      	movs	r0, r5
 8003154:	f003 f83c 	bl	80061d0 <waitForPolarizationEnd>
 8003158:	0020      	movs	r0, r4
 800315a:	f7ff ff25 	bl	8002fa8 <R1_SwitchOffPWM>
 800315e:	6833      	ldr	r3, [r6, #0]
 8003160:	091b      	lsrs	r3, r3, #4
 8003162:	6033      	str	r3, [r6, #0]
 8003164:	883b      	ldrh	r3, [r7, #0]
 8003166:	2b00      	cmp	r3, #0
 8003168:	d102      	bne.n	8003170 <R1_CurrentReadingCalibration+0x64>
 800316a:	9a00      	ldr	r2, [sp, #0]
 800316c:	3301      	adds	r3, #1
 800316e:	7013      	strb	r3, [r2, #0]
 8003170:	4b08      	ldr	r3, [pc, #32]	@ (8003194 <R1_CurrentReadingCalibration+0x88>)
 8003172:	6023      	str	r3, [r4, #0]
 8003174:	4b08      	ldr	r3, [pc, #32]	@ (8003198 <R1_CurrentReadingCalibration+0x8c>)
 8003176:	6163      	str	r3, [r4, #20]
 8003178:	6a2a      	ldr	r2, [r5, #32]
 800317a:	4b08      	ldr	r3, [pc, #32]	@ (800319c <R1_CurrentReadingCalibration+0x90>)
 800317c:	0020      	movs	r0, r4
 800317e:	4313      	orrs	r3, r2
 8003180:	622b      	str	r3, [r5, #32]
 8003182:	f7ff f98b 	bl	800249c <R1_1ShuntMotorVarsInit>
 8003186:	bdf7      	pop	{r0, r1, r2, r4, r5, r6, r7, pc}
 8003188:	fffffaaa 	.word	0xfffffaaa
 800318c:	08002759 	.word	0x08002759
 8003190:	0800279d 	.word	0x0800279d
 8003194:	08002511 	.word	0x08002511
 8003198:	08002811 	.word	0x08002811
 800319c:	00000555 	.word	0x00000555

080031a0 <R1_TIM1_UP_IRQHandler>:
 80031a0:	0003      	movs	r3, r0
 80031a2:	33c9      	adds	r3, #201	@ 0xc9
 80031a4:	781b      	ldrb	r3, [r3, #0]
 80031a6:	2b00      	cmp	r3, #0
 80031a8:	d00f      	beq.n	80031ca <R1_TIM1_UP_IRQHandler+0x2a>
 80031aa:	4909      	ldr	r1, [pc, #36]	@ (80031d0 <R1_TIM1_UP_IRQHandler+0x30>)
 80031ac:	4b09      	ldr	r3, [pc, #36]	@ (80031d4 <R1_TIM1_UP_IRQHandler+0x34>)
 80031ae:	688a      	ldr	r2, [r1, #8]
 80031b0:	401a      	ands	r2, r3
 80031b2:	2304      	movs	r3, #4
 80031b4:	4313      	orrs	r3, r2
 80031b6:	608b      	str	r3, [r1, #8]
 80031b8:	2170      	movs	r1, #112	@ 0x70
 80031ba:	4a07      	ldr	r2, [pc, #28]	@ (80031d8 <R1_TIM1_UP_IRQHandler+0x38>)
 80031bc:	6853      	ldr	r3, [r2, #4]
 80031be:	430b      	orrs	r3, r1
 80031c0:	6053      	str	r3, [r2, #4]
 80031c2:	0003      	movs	r3, r0
 80031c4:	2201      	movs	r2, #1
 80031c6:	33c8      	adds	r3, #200	@ 0xc8
 80031c8:	801a      	strh	r2, [r3, #0]
 80031ca:	307a      	adds	r0, #122	@ 0x7a
 80031cc:	4770      	bx	lr
 80031ce:	46c0      	nop			@ (mov r8, r8)
 80031d0:	40012400 	.word	0x40012400
 80031d4:	7fffffe8 	.word	0x7fffffe8
 80031d8:	40012c00 	.word	0x40012c00

080031dc <R1_DMAx_TC_IRQHandler>:
 80031dc:	0003      	movs	r3, r0
 80031de:	33cc      	adds	r3, #204	@ 0xcc
 80031e0:	681a      	ldr	r2, [r3, #0]
 80031e2:	b510      	push	{r4, lr}
 80031e4:	6894      	ldr	r4, [r2, #8]
 80031e6:	2c00      	cmp	r4, #0
 80031e8:	d005      	beq.n	80031f6 <R1_DMAx_TC_IRQHandler+0x1a>
 80031ea:	2104      	movs	r1, #4
 80031ec:	68d3      	ldr	r3, [r2, #12]
 80031ee:	3b01      	subs	r3, #1
 80031f0:	009b      	lsls	r3, r3, #2
 80031f2:	4099      	lsls	r1, r3
 80031f4:	6061      	str	r1, [r4, #4]
 80031f6:	0001      	movs	r1, r0
 80031f8:	31c6      	adds	r1, #198	@ 0xc6
 80031fa:	780b      	ldrb	r3, [r1, #0]
 80031fc:	3205      	adds	r2, #5
 80031fe:	3301      	adds	r3, #1
 8003200:	b2db      	uxtb	r3, r3
 8003202:	700b      	strb	r3, [r1, #0]
 8003204:	7fd2      	ldrb	r2, [r2, #31]
 8003206:	429a      	cmp	r2, r3
 8003208:	d110      	bne.n	800322c <R1_DMAx_TC_IRQHandler+0x50>
 800320a:	0003      	movs	r3, r0
 800320c:	3394      	adds	r3, #148	@ 0x94
 800320e:	681a      	ldr	r2, [r3, #0]
 8003210:	3b0c      	subs	r3, #12
 8003212:	601a      	str	r2, [r3, #0]
 8003214:	691a      	ldr	r2, [r3, #16]
 8003216:	3304      	adds	r3, #4
 8003218:	601a      	str	r2, [r3, #0]
 800321a:	691a      	ldr	r2, [r3, #16]
 800321c:	3304      	adds	r3, #4
 800321e:	601a      	str	r2, [r3, #0]
 8003220:	2300      	movs	r3, #0
 8003222:	700b      	strb	r3, [r1, #0]
 8003224:	0003      	movs	r3, r0
 8003226:	2201      	movs	r2, #1
 8003228:	33c9      	adds	r3, #201	@ 0xc9
 800322a:	701a      	strb	r2, [r3, #0]
 800322c:	307a      	adds	r0, #122	@ 0x7a
 800322e:	bd10      	pop	{r4, pc}

08003230 <RI_MovString>:
 8003230:	b530      	push	{r4, r5, lr}
 8003232:	0005      	movs	r5, r0
 8003234:	2401      	movs	r4, #1
 8003236:	b29b      	uxth	r3, r3
 8003238:	2000      	movs	r0, #0
 800323a:	8014      	strh	r4, [r2, #0]
 800323c:	5628      	ldrsb	r0, [r5, r0]
 800323e:	2800      	cmp	r0, #0
 8003240:	d00a      	beq.n	8003258 <RI_MovString+0x28>
 8003242:	42a3      	cmp	r3, r4
 8003244:	d801      	bhi.n	800324a <RI_MovString+0x1a>
 8003246:	2006      	movs	r0, #6
 8003248:	bd30      	pop	{r4, r5, pc}
 800324a:	7008      	strb	r0, [r1, #0]
 800324c:	8814      	ldrh	r4, [r2, #0]
 800324e:	3101      	adds	r1, #1
 8003250:	3401      	adds	r4, #1
 8003252:	3501      	adds	r5, #1
 8003254:	b2a4      	uxth	r4, r4
 8003256:	e7ef      	b.n	8003238 <RI_MovString+0x8>
 8003258:	7008      	strb	r0, [r1, #0]
 800325a:	e7f5      	b.n	8003248 <RI_MovString+0x18>

0800325c <RI_SetRegisterGlobal>:
 800325c:	b570      	push	{r4, r5, r6, lr}
 800325e:	0004      	movs	r4, r0
 8003260:	0010      	movs	r0, r2
 8003262:	001a      	movs	r2, r3
 8003264:	ab04      	add	r3, sp, #16
 8003266:	2500      	movs	r5, #0
 8003268:	5f5b      	ldrsh	r3, [r3, r5]
 800326a:	2918      	cmp	r1, #24
 800326c:	d035      	beq.n	80032da <RI_SetRegisterGlobal+0x7e>
 800326e:	d807      	bhi.n	8003280 <RI_SetRegisterGlobal+0x24>
 8003270:	2908      	cmp	r1, #8
 8003272:	d014      	beq.n	800329e <RI_SetRegisterGlobal+0x42>
 8003274:	2910      	cmp	r1, #16
 8003276:	d01a      	beq.n	80032ae <RI_SetRegisterGlobal+0x52>
 8003278:	2300      	movs	r3, #0
 800327a:	2007      	movs	r0, #7
 800327c:	8013      	strh	r3, [r2, #0]
 800327e:	e015      	b.n	80032ac <RI_SetRegisterGlobal+0x50>
 8003280:	2920      	cmp	r1, #32
 8003282:	d031      	beq.n	80032e8 <RI_SetRegisterGlobal+0x8c>
 8003284:	2928      	cmp	r1, #40	@ 0x28
 8003286:	d1f7      	bne.n	8003278 <RI_SetRegisterGlobal+0x1c>
 8003288:	8801      	ldrh	r1, [r0, #0]
 800328a:	b29b      	uxth	r3, r3
 800328c:	3102      	adds	r1, #2
 800328e:	b289      	uxth	r1, r1
 8003290:	8011      	strh	r1, [r2, #0]
 8003292:	4299      	cmp	r1, r3
 8003294:	d92d      	bls.n	80032f2 <RI_SetRegisterGlobal+0x96>
 8003296:	2300      	movs	r3, #0
 8003298:	200a      	movs	r0, #10
 800329a:	8013      	strh	r3, [r2, #0]
 800329c:	e006      	b.n	80032ac <RI_SetRegisterGlobal+0x50>
 800329e:	0020      	movs	r0, r4
 80032a0:	3848      	subs	r0, #72	@ 0x48
 80032a2:	1e43      	subs	r3, r0, #1
 80032a4:	4198      	sbcs	r0, r3
 80032a6:	2301      	movs	r3, #1
 80032a8:	3004      	adds	r0, #4
 80032aa:	8013      	strh	r3, [r2, #0]
 80032ac:	bd70      	pop	{r4, r5, r6, pc}
 80032ae:	23e5      	movs	r3, #229	@ 0xe5
 80032b0:	2000      	movs	r0, #0
 80032b2:	011b      	lsls	r3, r3, #4
 80032b4:	429c      	cmp	r4, r3
 80032b6:	d007      	beq.n	80032c8 <RI_SetRegisterGlobal+0x6c>
 80032b8:	d808      	bhi.n	80032cc <RI_SetRegisterGlobal+0x70>
 80032ba:	2340      	movs	r3, #64	@ 0x40
 80032bc:	439c      	bics	r4, r3
 80032be:	4b13      	ldr	r3, [pc, #76]	@ (800330c <RI_SetRegisterGlobal+0xb0>)
 80032c0:	18e0      	adds	r0, r4, r3
 80032c2:	1e43      	subs	r3, r0, #1
 80032c4:	4198      	sbcs	r0, r3
 80032c6:	3004      	adds	r0, #4
 80032c8:	2302      	movs	r3, #2
 80032ca:	e7ee      	b.n	80032aa <RI_SetRegisterGlobal+0x4e>
 80032cc:	23e9      	movs	r3, #233	@ 0xe9
 80032ce:	2000      	movs	r0, #0
 80032d0:	011b      	lsls	r3, r3, #4
 80032d2:	429c      	cmp	r4, r3
 80032d4:	d0f8      	beq.n	80032c8 <RI_SetRegisterGlobal+0x6c>
 80032d6:	4b0e      	ldr	r3, [pc, #56]	@ (8003310 <RI_SetRegisterGlobal+0xb4>)
 80032d8:	e7f2      	b.n	80032c0 <RI_SetRegisterGlobal+0x64>
 80032da:	0020      	movs	r0, r4
 80032dc:	3818      	subs	r0, #24
 80032de:	1e43      	subs	r3, r0, #1
 80032e0:	4198      	sbcs	r0, r3
 80032e2:	2304      	movs	r3, #4
 80032e4:	3004      	adds	r0, #4
 80032e6:	e7e0      	b.n	80032aa <RI_SetRegisterGlobal+0x4e>
 80032e8:	0001      	movs	r1, r0
 80032ea:	f7ff ffa1 	bl	8003230 <RI_MovString>
 80032ee:	2004      	movs	r0, #4
 80032f0:	e7dc      	b.n	80032ac <RI_SetRegisterGlobal+0x50>
 80032f2:	2ca8      	cmp	r4, #168	@ 0xa8
 80032f4:	d0fb      	beq.n	80032ee <RI_SetRegisterGlobal+0x92>
 80032f6:	d805      	bhi.n	8003304 <RI_SetRegisterGlobal+0xa8>
 80032f8:	2340      	movs	r3, #64	@ 0x40
 80032fa:	2005      	movs	r0, #5
 80032fc:	439c      	bics	r4, r3
 80032fe:	2c28      	cmp	r4, #40	@ 0x28
 8003300:	d1d4      	bne.n	80032ac <RI_SetRegisterGlobal+0x50>
 8003302:	e7f4      	b.n	80032ee <RI_SetRegisterGlobal+0x92>
 8003304:	2005      	movs	r0, #5
 8003306:	2ce8      	cmp	r4, #232	@ 0xe8
 8003308:	d1d0      	bne.n	80032ac <RI_SetRegisterGlobal+0x50>
 800330a:	e7f0      	b.n	80032ee <RI_SetRegisterGlobal+0x92>
 800330c:	fffffa70 	.word	0xfffffa70
 8003310:	ffffe4a8 	.word	0xffffe4a8

08003314 <RI_SetRegisterMotor1>:
 8003314:	b573      	push	{r0, r1, r4, r5, r6, lr}
 8003316:	001d      	movs	r5, r3
 8003318:	ab06      	add	r3, sp, #24
 800331a:	000c      	movs	r4, r1
 800331c:	0006      	movs	r6, r0
 800331e:	0011      	movs	r1, r2
 8003320:	2200      	movs	r2, #0
 8003322:	5e9b      	ldrsh	r3, [r3, r2]
 8003324:	2c18      	cmp	r4, #24
 8003326:	d100      	bne.n	800332a <RI_SetRegisterMotor1+0x16>
 8003328:	e127      	b.n	800357a <RI_SetRegisterMotor1+0x266>
 800332a:	d807      	bhi.n	800333c <RI_SetRegisterMotor1+0x28>
 800332c:	2c08      	cmp	r4, #8
 800332e:	d016      	beq.n	800335e <RI_SetRegisterMotor1+0x4a>
 8003330:	2c10      	cmp	r4, #16
 8003332:	d036      	beq.n	80033a2 <RI_SetRegisterMotor1+0x8e>
 8003334:	2300      	movs	r3, #0
 8003336:	2007      	movs	r0, #7
 8003338:	802b      	strh	r3, [r5, #0]
 800333a:	e025      	b.n	8003388 <RI_SetRegisterMotor1+0x74>
 800333c:	2c20      	cmp	r4, #32
 800333e:	d100      	bne.n	8003342 <RI_SetRegisterMotor1+0x2e>
 8003340:	e133      	b.n	80035aa <RI_SetRegisterMotor1+0x296>
 8003342:	2c28      	cmp	r4, #40	@ 0x28
 8003344:	d1f6      	bne.n	8003334 <RI_SetRegisterMotor1+0x20>
 8003346:	880a      	ldrh	r2, [r1, #0]
 8003348:	b29b      	uxth	r3, r3
 800334a:	3202      	adds	r2, #2
 800334c:	b292      	uxth	r2, r2
 800334e:	802a      	strh	r2, [r5, #0]
 8003350:	429a      	cmp	r2, r3
 8003352:	d800      	bhi.n	8003356 <RI_SetRegisterMotor1+0x42>
 8003354:	e12f      	b.n	80035b6 <RI_SetRegisterMotor1+0x2a2>
 8003356:	2300      	movs	r3, #0
 8003358:	200a      	movs	r0, #10
 800335a:	802b      	strh	r3, [r5, #0]
 800335c:	e014      	b.n	8003388 <RI_SetRegisterMotor1+0x74>
 800335e:	2004      	movs	r0, #4
 8003360:	2e48      	cmp	r6, #72	@ 0x48
 8003362:	d00f      	beq.n	8003384 <RI_SetRegisterMotor1+0x70>
 8003364:	3001      	adds	r0, #1
 8003366:	2e88      	cmp	r6, #136	@ 0x88
 8003368:	d10c      	bne.n	8003384 <RI_SetRegisterMotor1+0x70>
 800336a:	780b      	ldrb	r3, [r1, #0]
 800336c:	2b04      	cmp	r3, #4
 800336e:	d10c      	bne.n	800338a <RI_SetRegisterMotor1+0x76>
 8003370:	4ca5      	ldr	r4, [pc, #660]	@ (8003608 <RI_SetRegisterMotor1+0x2f4>)
 8003372:	0020      	movs	r0, r4
 8003374:	f7fe f834 	bl	80013e0 <MCI_GetTeref>
 8003378:	2200      	movs	r2, #0
 800337a:	0001      	movs	r1, r0
 800337c:	0020      	movs	r0, r4
 800337e:	f7fd feff 	bl	8001180 <MCI_ExecTorqueRamp>
 8003382:	2000      	movs	r0, #0
 8003384:	2301      	movs	r3, #1
 8003386:	802b      	strh	r3, [r5, #0]
 8003388:	bd76      	pop	{r1, r2, r4, r5, r6, pc}
 800338a:	2b03      	cmp	r3, #3
 800338c:	d1f9      	bne.n	8003382 <RI_SetRegisterMotor1+0x6e>
 800338e:	4c9e      	ldr	r4, [pc, #632]	@ (8003608 <RI_SetRegisterMotor1+0x2f4>)
 8003390:	0020      	movs	r0, r4
 8003392:	f7fd ffcd 	bl	8001330 <MCI_GetMecSpeedRefUnit>
 8003396:	2200      	movs	r2, #0
 8003398:	0001      	movs	r1, r0
 800339a:	0020      	movs	r0, r4
 800339c:	f7fd fee6 	bl	800116c <MCI_ExecSpeedRamp>
 80033a0:	e7ef      	b.n	8003382 <RI_SetRegisterMotor1+0x6e>
 80033a2:	2399      	movs	r3, #153	@ 0x99
 80033a4:	880c      	ldrh	r4, [r1, #0]
 80033a6:	011b      	lsls	r3, r3, #4
 80033a8:	4298      	cmp	r0, r3
 80033aa:	d100      	bne.n	80033ae <RI_SetRegisterMotor1+0x9a>
 80033ac:	e0cb      	b.n	8003546 <RI_SetRegisterMotor1+0x232>
 80033ae:	d859      	bhi.n	8003464 <RI_SetRegisterMotor1+0x150>
 80033b0:	2384      	movs	r3, #132	@ 0x84
 80033b2:	009b      	lsls	r3, r3, #2
 80033b4:	4298      	cmp	r0, r3
 80033b6:	d100      	bne.n	80033ba <RI_SetRegisterMotor1+0xa6>
 80033b8:	e0b0      	b.n	800351c <RI_SetRegisterMotor1+0x208>
 80033ba:	d818      	bhi.n	80033ee <RI_SetRegisterMotor1+0xda>
 80033bc:	3b01      	subs	r3, #1
 80033be:	3bff      	subs	r3, #255	@ 0xff
 80033c0:	4298      	cmp	r0, r3
 80033c2:	d100      	bne.n	80033c6 <RI_SetRegisterMotor1+0xb2>
 80033c4:	e0a2      	b.n	800350c <RI_SetRegisterMotor1+0x1f8>
 80033c6:	d807      	bhi.n	80033d8 <RI_SetRegisterMotor1+0xc4>
 80033c8:	2890      	cmp	r0, #144	@ 0x90
 80033ca:	d100      	bne.n	80033ce <RI_SetRegisterMotor1+0xba>
 80033cc:	e094      	b.n	80034f8 <RI_SetRegisterMotor1+0x1e4>
 80033ce:	28d0      	cmp	r0, #208	@ 0xd0
 80033d0:	d100      	bne.n	80033d4 <RI_SetRegisterMotor1+0xc0>
 80033d2:	e096      	b.n	8003502 <RI_SetRegisterMotor1+0x1ee>
 80033d4:	2005      	movs	r0, #5
 80033d6:	e033      	b.n	8003440 <RI_SetRegisterMotor1+0x12c>
 80033d8:	23c8      	movs	r3, #200	@ 0xc8
 80033da:	005b      	lsls	r3, r3, #1
 80033dc:	4298      	cmp	r0, r3
 80033de:	d100      	bne.n	80033e2 <RI_SetRegisterMotor1+0xce>
 80033e0:	e099      	b.n	8003516 <RI_SetRegisterMotor1+0x202>
 80033e2:	3340      	adds	r3, #64	@ 0x40
 80033e4:	4298      	cmp	r0, r3
 80033e6:	d1f5      	bne.n	80033d4 <RI_SetRegisterMotor1+0xc0>
 80033e8:	4888      	ldr	r0, [pc, #544]	@ (800360c <RI_SetRegisterMotor1+0x2f8>)
 80033ea:	b221      	sxth	r1, r4
 80033ec:	e08b      	b.n	8003506 <RI_SetRegisterMotor1+0x1f2>
 80033ee:	23c4      	movs	r3, #196	@ 0xc4
 80033f0:	009b      	lsls	r3, r3, #2
 80033f2:	4298      	cmp	r0, r3
 80033f4:	d100      	bne.n	80033f8 <RI_SetRegisterMotor1+0xe4>
 80033f6:	e097      	b.n	8003528 <RI_SetRegisterMotor1+0x214>
 80033f8:	d809      	bhi.n	800340e <RI_SetRegisterMotor1+0xfa>
 80033fa:	3b80      	subs	r3, #128	@ 0x80
 80033fc:	4298      	cmp	r0, r3
 80033fe:	d100      	bne.n	8003402 <RI_SetRegisterMotor1+0xee>
 8003400:	e08f      	b.n	8003522 <RI_SetRegisterMotor1+0x20e>
 8003402:	3340      	adds	r3, #64	@ 0x40
 8003404:	4298      	cmp	r0, r3
 8003406:	d1e5      	bne.n	80033d4 <RI_SetRegisterMotor1+0xc0>
 8003408:	4881      	ldr	r0, [pc, #516]	@ (8003610 <RI_SetRegisterMotor1+0x2fc>)
 800340a:	b221      	sxth	r1, r4
 800340c:	e07b      	b.n	8003506 <RI_SetRegisterMotor1+0x1f2>
 800340e:	2395      	movs	r3, #149	@ 0x95
 8003410:	011b      	lsls	r3, r3, #4
 8003412:	4298      	cmp	r0, r3
 8003414:	d100      	bne.n	8003418 <RI_SetRegisterMotor1+0x104>
 8003416:	e08a      	b.n	800352e <RI_SetRegisterMotor1+0x21a>
 8003418:	2005      	movs	r0, #5
 800341a:	429e      	cmp	r6, r3
 800341c:	d810      	bhi.n	8003440 <RI_SetRegisterMotor1+0x12c>
 800341e:	3b41      	subs	r3, #65	@ 0x41
 8003420:	3bff      	subs	r3, #255	@ 0xff
 8003422:	3801      	subs	r0, #1
 8003424:	429e      	cmp	r6, r3
 8003426:	d00b      	beq.n	8003440 <RI_SetRegisterMotor1+0x12c>
 8003428:	d80e      	bhi.n	8003448 <RI_SetRegisterMotor1+0x134>
 800342a:	3b80      	subs	r3, #128	@ 0x80
 800342c:	429e      	cmp	r6, r3
 800342e:	d007      	beq.n	8003440 <RI_SetRegisterMotor1+0x12c>
 8003430:	d808      	bhi.n	8003444 <RI_SetRegisterMotor1+0x130>
 8003432:	2340      	movs	r3, #64	@ 0x40
 8003434:	439e      	bics	r6, r3
 8003436:	4b77      	ldr	r3, [pc, #476]	@ (8003614 <RI_SetRegisterMotor1+0x300>)
 8003438:	18f0      	adds	r0, r6, r3
 800343a:	1e43      	subs	r3, r0, #1
 800343c:	4198      	sbcs	r0, r3
 800343e:	3004      	adds	r0, #4
 8003440:	2302      	movs	r3, #2
 8003442:	e7a0      	b.n	8003386 <RI_SetRegisterMotor1+0x72>
 8003444:	4b74      	ldr	r3, [pc, #464]	@ (8003618 <RI_SetRegisterMotor1+0x304>)
 8003446:	e7f7      	b.n	8003438 <RI_SetRegisterMotor1+0x124>
 8003448:	238d      	movs	r3, #141	@ 0x8d
 800344a:	2004      	movs	r0, #4
 800344c:	011b      	lsls	r3, r3, #4
 800344e:	429e      	cmp	r6, r3
 8003450:	d0f6      	beq.n	8003440 <RI_SetRegisterMotor1+0x12c>
 8003452:	d805      	bhi.n	8003460 <RI_SetRegisterMotor1+0x14c>
 8003454:	4b71      	ldr	r3, [pc, #452]	@ (800361c <RI_SetRegisterMotor1+0x308>)
 8003456:	18f0      	adds	r0, r6, r3
 8003458:	2340      	movs	r3, #64	@ 0x40
 800345a:	4398      	bics	r0, r3
 800345c:	b280      	uxth	r0, r0
 800345e:	e7ec      	b.n	800343a <RI_SetRegisterMotor1+0x126>
 8003460:	4b6f      	ldr	r3, [pc, #444]	@ (8003620 <RI_SetRegisterMotor1+0x30c>)
 8003462:	e7e9      	b.n	8003438 <RI_SetRegisterMotor1+0x124>
 8003464:	4b6f      	ldr	r3, [pc, #444]	@ (8003624 <RI_SetRegisterMotor1+0x310>)
 8003466:	4298      	cmp	r0, r3
 8003468:	d100      	bne.n	800346c <RI_SetRegisterMotor1+0x158>
 800346a:	e07e      	b.n	800356a <RI_SetRegisterMotor1+0x256>
 800346c:	d82b      	bhi.n	80034c6 <RI_SetRegisterMotor1+0x1b2>
 800346e:	4b6e      	ldr	r3, [pc, #440]	@ (8003628 <RI_SetRegisterMotor1+0x314>)
 8003470:	4298      	cmp	r0, r3
 8003472:	d070      	beq.n	8003556 <RI_SetRegisterMotor1+0x242>
 8003474:	d81c      	bhi.n	80034b0 <RI_SetRegisterMotor1+0x19c>
 8003476:	23e5      	movs	r3, #229	@ 0xe5
 8003478:	011b      	lsls	r3, r3, #4
 800347a:	4298      	cmp	r0, r3
 800347c:	d016      	beq.n	80034ac <RI_SetRegisterMotor1+0x198>
 800347e:	d811      	bhi.n	80034a4 <RI_SetRegisterMotor1+0x190>
 8003480:	22a9      	movs	r2, #169	@ 0xa9
 8003482:	2004      	movs	r0, #4
 8003484:	0112      	lsls	r2, r2, #4
 8003486:	4296      	cmp	r6, r2
 8003488:	d0da      	beq.n	8003440 <RI_SetRegisterMotor1+0x12c>
 800348a:	2340      	movs	r3, #64	@ 0x40
 800348c:	4296      	cmp	r6, r2
 800348e:	d806      	bhi.n	800349e <RI_SetRegisterMotor1+0x18a>
 8003490:	0031      	movs	r1, r6
 8003492:	3a80      	subs	r2, #128	@ 0x80
 8003494:	4399      	bics	r1, r3
 8003496:	4291      	cmp	r1, r2
 8003498:	d0d2      	beq.n	8003440 <RI_SetRegisterMotor1+0x12c>
 800349a:	4b64      	ldr	r3, [pc, #400]	@ (800362c <RI_SetRegisterMotor1+0x318>)
 800349c:	e7cc      	b.n	8003438 <RI_SetRegisterMotor1+0x124>
 800349e:	4a64      	ldr	r2, [pc, #400]	@ (8003630 <RI_SetRegisterMotor1+0x31c>)
 80034a0:	18b0      	adds	r0, r6, r2
 80034a2:	e7da      	b.n	800345a <RI_SetRegisterMotor1+0x146>
 80034a4:	23e9      	movs	r3, #233	@ 0xe9
 80034a6:	011b      	lsls	r3, r3, #4
 80034a8:	4298      	cmp	r0, r3
 80034aa:	d193      	bne.n	80033d4 <RI_SetRegisterMotor1+0xc0>
 80034ac:	2000      	movs	r0, #0
 80034ae:	e7c7      	b.n	8003440 <RI_SetRegisterMotor1+0x12c>
 80034b0:	4b60      	ldr	r3, [pc, #384]	@ (8003634 <RI_SetRegisterMotor1+0x320>)
 80034b2:	4298      	cmp	r0, r3
 80034b4:	d054      	beq.n	8003560 <RI_SetRegisterMotor1+0x24c>
 80034b6:	4b60      	ldr	r3, [pc, #384]	@ (8003638 <RI_SetRegisterMotor1+0x324>)
 80034b8:	4860      	ldr	r0, [pc, #384]	@ (800363c <RI_SetRegisterMotor1+0x328>)
 80034ba:	429e      	cmp	r6, r3
 80034bc:	d18a      	bne.n	80033d4 <RI_SetRegisterMotor1+0xc0>
 80034be:	0021      	movs	r1, r4
 80034c0:	f002 fe15 	bl	80060ee <PID_SetKDDivisorPOW2>
 80034c4:	e7f2      	b.n	80034ac <RI_SetRegisterMotor1+0x198>
 80034c6:	4b5e      	ldr	r3, [pc, #376]	@ (8003640 <RI_SetRegisterMotor1+0x32c>)
 80034c8:	4298      	cmp	r0, r3
 80034ca:	d052      	beq.n	8003572 <RI_SetRegisterMotor1+0x25e>
 80034cc:	d807      	bhi.n	80034de <RI_SetRegisterMotor1+0x1ca>
 80034ce:	4b5d      	ldr	r3, [pc, #372]	@ (8003644 <RI_SetRegisterMotor1+0x330>)
 80034d0:	4298      	cmp	r0, r3
 80034d2:	d04c      	beq.n	800356e <RI_SetRegisterMotor1+0x25a>
 80034d4:	4b5c      	ldr	r3, [pc, #368]	@ (8003648 <RI_SetRegisterMotor1+0x334>)
 80034d6:	484e      	ldr	r0, [pc, #312]	@ (8003610 <RI_SetRegisterMotor1+0x2fc>)
 80034d8:	429e      	cmp	r6, r3
 80034da:	d0f0      	beq.n	80034be <RI_SetRegisterMotor1+0x1aa>
 80034dc:	e77a      	b.n	80033d4 <RI_SetRegisterMotor1+0xc0>
 80034de:	4b5b      	ldr	r3, [pc, #364]	@ (800364c <RI_SetRegisterMotor1+0x338>)
 80034e0:	4298      	cmp	r0, r3
 80034e2:	d048      	beq.n	8003576 <RI_SetRegisterMotor1+0x262>
 80034e4:	4b5a      	ldr	r3, [pc, #360]	@ (8003650 <RI_SetRegisterMotor1+0x33c>)
 80034e6:	2004      	movs	r0, #4
 80034e8:	429e      	cmp	r6, r3
 80034ea:	d0a9      	beq.n	8003440 <RI_SetRegisterMotor1+0x12c>
 80034ec:	4b59      	ldr	r3, [pc, #356]	@ (8003654 <RI_SetRegisterMotor1+0x340>)
 80034ee:	3001      	adds	r0, #1
 80034f0:	429e      	cmp	r6, r3
 80034f2:	d1a5      	bne.n	8003440 <RI_SetRegisterMotor1+0x12c>
 80034f4:	4845      	ldr	r0, [pc, #276]	@ (800360c <RI_SetRegisterMotor1+0x2f8>)
 80034f6:	e034      	b.n	8003562 <RI_SetRegisterMotor1+0x24e>
 80034f8:	4850      	ldr	r0, [pc, #320]	@ (800363c <RI_SetRegisterMotor1+0x328>)
 80034fa:	b221      	sxth	r1, r4
 80034fc:	f002 fdc0 	bl	8006080 <PID_SetKP>
 8003500:	e7d4      	b.n	80034ac <RI_SetRegisterMotor1+0x198>
 8003502:	484e      	ldr	r0, [pc, #312]	@ (800363c <RI_SetRegisterMotor1+0x328>)
 8003504:	b221      	sxth	r1, r4
 8003506:	f002 fdbd 	bl	8006084 <PID_SetKI>
 800350a:	e7cf      	b.n	80034ac <RI_SetRegisterMotor1+0x198>
 800350c:	484b      	ldr	r0, [pc, #300]	@ (800363c <RI_SetRegisterMotor1+0x328>)
 800350e:	b221      	sxth	r1, r4
 8003510:	f002 fde6 	bl	80060e0 <PID_SetKD>
 8003514:	e7ca      	b.n	80034ac <RI_SetRegisterMotor1+0x198>
 8003516:	483d      	ldr	r0, [pc, #244]	@ (800360c <RI_SetRegisterMotor1+0x2f8>)
 8003518:	b221      	sxth	r1, r4
 800351a:	e7ef      	b.n	80034fc <RI_SetRegisterMotor1+0x1e8>
 800351c:	483b      	ldr	r0, [pc, #236]	@ (800360c <RI_SetRegisterMotor1+0x2f8>)
 800351e:	b221      	sxth	r1, r4
 8003520:	e7f6      	b.n	8003510 <RI_SetRegisterMotor1+0x1fc>
 8003522:	483b      	ldr	r0, [pc, #236]	@ (8003610 <RI_SetRegisterMotor1+0x2fc>)
 8003524:	b221      	sxth	r1, r4
 8003526:	e7e9      	b.n	80034fc <RI_SetRegisterMotor1+0x1e8>
 8003528:	4839      	ldr	r0, [pc, #228]	@ (8003610 <RI_SetRegisterMotor1+0x2fc>)
 800352a:	b221      	sxth	r1, r4
 800352c:	e7f0      	b.n	8003510 <RI_SetRegisterMotor1+0x1fc>
 800352e:	4e36      	ldr	r6, [pc, #216]	@ (8003608 <RI_SetRegisterMotor1+0x2f4>)
 8003530:	0030      	movs	r0, r6
 8003532:	f7fd ff2b 	bl	800138c <MCI_GetIqdref>
 8003536:	ab01      	add	r3, sp, #4
 8003538:	9001      	str	r0, [sp, #4]
 800353a:	801c      	strh	r4, [r3, #0]
 800353c:	0030      	movs	r0, r6
 800353e:	9901      	ldr	r1, [sp, #4]
 8003540:	f7fd fe28 	bl	8001194 <MCI_SetCurrentReferences>
 8003544:	e7b2      	b.n	80034ac <RI_SetRegisterMotor1+0x198>
 8003546:	4e30      	ldr	r6, [pc, #192]	@ (8003608 <RI_SetRegisterMotor1+0x2f4>)
 8003548:	0030      	movs	r0, r6
 800354a:	f7fd ff1f 	bl	800138c <MCI_GetIqdref>
 800354e:	ab01      	add	r3, sp, #4
 8003550:	9001      	str	r0, [sp, #4]
 8003552:	805c      	strh	r4, [r3, #2]
 8003554:	e7f2      	b.n	800353c <RI_SetRegisterMotor1+0x228>
 8003556:	4839      	ldr	r0, [pc, #228]	@ (800363c <RI_SetRegisterMotor1+0x328>)
 8003558:	0021      	movs	r1, r4
 800355a:	f002 fd9f 	bl	800609c <PID_SetKPDivisorPOW2>
 800355e:	e7a5      	b.n	80034ac <RI_SetRegisterMotor1+0x198>
 8003560:	4836      	ldr	r0, [pc, #216]	@ (800363c <RI_SetRegisterMotor1+0x328>)
 8003562:	0021      	movs	r1, r4
 8003564:	f002 fda6 	bl	80060b4 <PID_SetKIDivisorPOW2>
 8003568:	e7a0      	b.n	80034ac <RI_SetRegisterMotor1+0x198>
 800356a:	4829      	ldr	r0, [pc, #164]	@ (8003610 <RI_SetRegisterMotor1+0x2fc>)
 800356c:	e7f4      	b.n	8003558 <RI_SetRegisterMotor1+0x244>
 800356e:	4828      	ldr	r0, [pc, #160]	@ (8003610 <RI_SetRegisterMotor1+0x2fc>)
 8003570:	e7f7      	b.n	8003562 <RI_SetRegisterMotor1+0x24e>
 8003572:	4826      	ldr	r0, [pc, #152]	@ (800360c <RI_SetRegisterMotor1+0x2f8>)
 8003574:	e7f0      	b.n	8003558 <RI_SetRegisterMotor1+0x244>
 8003576:	4825      	ldr	r0, [pc, #148]	@ (800360c <RI_SetRegisterMotor1+0x2f8>)
 8003578:	e7a1      	b.n	80034be <RI_SetRegisterMotor1+0x1aa>
 800357a:	2004      	movs	r0, #4
 800357c:	2e58      	cmp	r6, #88	@ 0x58
 800357e:	d006      	beq.n	800358e <RI_SetRegisterMotor1+0x27a>
 8003580:	2e98      	cmp	r6, #152	@ 0x98
 8003582:	d006      	beq.n	8003592 <RI_SetRegisterMotor1+0x27e>
 8003584:	0030      	movs	r0, r6
 8003586:	3818      	subs	r0, #24
 8003588:	1e43      	subs	r3, r0, #1
 800358a:	4198      	sbcs	r0, r3
 800358c:	3004      	adds	r0, #4
 800358e:	2304      	movs	r3, #4
 8003590:	e6f9      	b.n	8003386 <RI_SetRegisterMotor1+0x72>
 8003592:	2300      	movs	r3, #0
 8003594:	5ec8      	ldrsh	r0, [r1, r3]
 8003596:	2106      	movs	r1, #6
 8003598:	f7fc fe54 	bl	8000244 <__divsi3>
 800359c:	2200      	movs	r2, #0
 800359e:	b201      	sxth	r1, r0
 80035a0:	4819      	ldr	r0, [pc, #100]	@ (8003608 <RI_SetRegisterMotor1+0x2f4>)
 80035a2:	f7fd fde3 	bl	800116c <MCI_ExecSpeedRamp>
 80035a6:	2000      	movs	r0, #0
 80035a8:	e7f1      	b.n	800358e <RI_SetRegisterMotor1+0x27a>
 80035aa:	002a      	movs	r2, r5
 80035ac:	0008      	movs	r0, r1
 80035ae:	f7ff fe3f 	bl	8003230 <RI_MovString>
 80035b2:	2004      	movs	r0, #4
 80035b4:	e6e8      	b.n	8003388 <RI_SetRegisterMotor1+0x74>
 80035b6:	23f4      	movs	r3, #244	@ 0xf4
 80035b8:	005b      	lsls	r3, r3, #1
 80035ba:	4298      	cmp	r0, r3
 80035bc:	d05d      	beq.n	800367a <RI_SetRegisterMotor1+0x366>
 80035be:	d814      	bhi.n	80035ea <RI_SetRegisterMotor1+0x2d6>
 80035c0:	3b40      	subs	r3, #64	@ 0x40
 80035c2:	4298      	cmp	r0, r3
 80035c4:	d04a      	beq.n	800365c <RI_SetRegisterMotor1+0x348>
 80035c6:	2005      	movs	r0, #5
 80035c8:	429e      	cmp	r6, r3
 80035ca:	d900      	bls.n	80035ce <RI_SetRegisterMotor1+0x2ba>
 80035cc:	e6dc      	b.n	8003388 <RI_SetRegisterMotor1+0x74>
 80035ce:	2ea8      	cmp	r6, #168	@ 0xa8
 80035d0:	d0ef      	beq.n	80035b2 <RI_SetRegisterMotor1+0x29e>
 80035d2:	d806      	bhi.n	80035e2 <RI_SetRegisterMotor1+0x2ce>
 80035d4:	3b69      	subs	r3, #105	@ 0x69
 80035d6:	3bff      	subs	r3, #255	@ 0xff
 80035d8:	439e      	bics	r6, r3
 80035da:	2e28      	cmp	r6, #40	@ 0x28
 80035dc:	d000      	beq.n	80035e0 <RI_SetRegisterMotor1+0x2cc>
 80035de:	e6d3      	b.n	8003388 <RI_SetRegisterMotor1+0x74>
 80035e0:	e7e7      	b.n	80035b2 <RI_SetRegisterMotor1+0x29e>
 80035e2:	2005      	movs	r0, #5
 80035e4:	2ee8      	cmp	r6, #232	@ 0xe8
 80035e6:	d0e4      	beq.n	80035b2 <RI_SetRegisterMotor1+0x29e>
 80035e8:	e6ce      	b.n	8003388 <RI_SetRegisterMotor1+0x74>
 80035ea:	23da      	movs	r3, #218	@ 0xda
 80035ec:	009b      	lsls	r3, r3, #2
 80035ee:	4298      	cmp	r0, r3
 80035f0:	d04a      	beq.n	8003688 <RI_SetRegisterMotor1+0x374>
 80035f2:	33c1      	adds	r3, #193	@ 0xc1
 80035f4:	33ff      	adds	r3, #255	@ 0xff
 80035f6:	2005      	movs	r0, #5
 80035f8:	429e      	cmp	r6, r3
 80035fa:	d000      	beq.n	80035fe <RI_SetRegisterMotor1+0x2ea>
 80035fc:	e6c4      	b.n	8003388 <RI_SetRegisterMotor1+0x74>
 80035fe:	3102      	adds	r1, #2
 8003600:	4815      	ldr	r0, [pc, #84]	@ (8003658 <RI_SetRegisterMotor1+0x344>)
 8003602:	f002 fcba 	bl	8005f7a <MCPA_cfgLog>
 8003606:	e6bf      	b.n	8003388 <RI_SetRegisterMotor1+0x74>
 8003608:	2000069c 	.word	0x2000069c
 800360c:	20000278 	.word	0x20000278
 8003610:	2000024c 	.word	0x2000024c
 8003614:	fffffa70 	.word	0xfffffa70
 8003618:	fffff830 	.word	0xfffff830
 800361c:	fffff7b0 	.word	0xfffff7b0
 8003620:	fffff6f0 	.word	0xfffff6f0
 8003624:	00001510 	.word	0x00001510
 8003628:	00001450 	.word	0x00001450
 800362c:	fffff630 	.word	0xfffff630
 8003630:	fffff530 	.word	0xfffff530
 8003634:	00001490 	.word	0x00001490
 8003638:	000014d0 	.word	0x000014d0
 800363c:	200002a4 	.word	0x200002a4
 8003640:	000015d0 	.word	0x000015d0
 8003644:	00001550 	.word	0x00001550
 8003648:	00001590 	.word	0x00001590
 800364c:	00001650 	.word	0x00001650
 8003650:	00001b58 	.word	0x00001b58
 8003654:	00001610 	.word	0x00001610
 8003658:	20000300 	.word	0x20000300
 800365c:	8888      	ldrh	r0, [r1, #4]
 800365e:	884b      	ldrh	r3, [r1, #2]
 8003660:	0400      	lsls	r0, r0, #16
 8003662:	88cc      	ldrh	r4, [r1, #6]
 8003664:	4318      	orrs	r0, r3
 8003666:	2106      	movs	r1, #6
 8003668:	f7fc fdec 	bl	8000244 <__divsi3>
 800366c:	0022      	movs	r2, r4
 800366e:	b201      	sxth	r1, r0
 8003670:	480a      	ldr	r0, [pc, #40]	@ (800369c <RI_SetRegisterMotor1+0x388>)
 8003672:	f7fd fd7b 	bl	800116c <MCI_ExecSpeedRamp>
 8003676:	2000      	movs	r0, #0
 8003678:	e686      	b.n	8003388 <RI_SetRegisterMotor1+0x74>
 800367a:	88ca      	ldrh	r2, [r1, #6]
 800367c:	4807      	ldr	r0, [pc, #28]	@ (800369c <RI_SetRegisterMotor1+0x388>)
 800367e:	2302      	movs	r3, #2
 8003680:	5ec9      	ldrsh	r1, [r1, r3]
 8003682:	f7fd fd7d 	bl	8001180 <MCI_ExecTorqueRamp>
 8003686:	e7f6      	b.n	8003676 <RI_SetRegisterMotor1+0x362>
 8003688:	884a      	ldrh	r2, [r1, #2]
 800368a:	ab01      	add	r3, sp, #4
 800368c:	801a      	strh	r2, [r3, #0]
 800368e:	888a      	ldrh	r2, [r1, #4]
 8003690:	4802      	ldr	r0, [pc, #8]	@ (800369c <RI_SetRegisterMotor1+0x388>)
 8003692:	805a      	strh	r2, [r3, #2]
 8003694:	9901      	ldr	r1, [sp, #4]
 8003696:	f7fd fd7d 	bl	8001194 <MCI_SetCurrentReferences>
 800369a:	e7ec      	b.n	8003676 <RI_SetRegisterMotor1+0x362>
 800369c:	2000069c 	.word	0x2000069c

080036a0 <RI_GetRegisterGlobal>:
 80036a0:	b570      	push	{r4, r5, r6, lr}
 80036a2:	001d      	movs	r5, r3
 80036a4:	ab04      	add	r3, sp, #16
 80036a6:	0004      	movs	r4, r0
 80036a8:	0016      	movs	r6, r2
 80036aa:	0008      	movs	r0, r1
 80036ac:	2200      	movs	r2, #0
 80036ae:	5e9b      	ldrsh	r3, [r3, r2]
 80036b0:	2918      	cmp	r1, #24
 80036b2:	d02f      	beq.n	8003714 <RI_GetRegisterGlobal+0x74>
 80036b4:	d805      	bhi.n	80036c2 <RI_GetRegisterGlobal+0x22>
 80036b6:	2908      	cmp	r1, #8
 80036b8:	d018      	beq.n	80036ec <RI_GetRegisterGlobal+0x4c>
 80036ba:	2910      	cmp	r1, #16
 80036bc:	d01c      	beq.n	80036f8 <RI_GetRegisterGlobal+0x58>
 80036be:	2007      	movs	r0, #7
 80036c0:	bd70      	pop	{r4, r5, r6, pc}
 80036c2:	2920      	cmp	r1, #32
 80036c4:	d02b      	beq.n	800371e <RI_GetRegisterGlobal+0x7e>
 80036c6:	2928      	cmp	r1, #40	@ 0x28
 80036c8:	d1f9      	bne.n	80036be <RI_GetRegisterGlobal+0x1e>
 80036ca:	2005      	movs	r0, #5
 80036cc:	2c28      	cmp	r4, #40	@ 0x28
 80036ce:	d10a      	bne.n	80036e6 <RI_GetRegisterGlobal+0x46>
 80036d0:	220a      	movs	r2, #10
 80036d2:	b29b      	uxth	r3, r3
 80036d4:	8032      	strh	r2, [r6, #0]
 80036d6:	3003      	adds	r0, #3
 80036d8:	2b0b      	cmp	r3, #11
 80036da:	d904      	bls.n	80036e6 <RI_GetRegisterGlobal+0x46>
 80036dc:	4917      	ldr	r1, [pc, #92]	@ (800373c <RI_GetRegisterGlobal+0x9c>)
 80036de:	1cb0      	adds	r0, r6, #2
 80036e0:	f002 ff70 	bl	80065c4 <memcpy>
 80036e4:	2000      	movs	r0, #0
 80036e6:	8833      	ldrh	r3, [r6, #0]
 80036e8:	3302      	adds	r3, #2
 80036ea:	e011      	b.n	8003710 <RI_GetRegisterGlobal+0x70>
 80036ec:	2201      	movs	r2, #1
 80036ee:	2b00      	cmp	r3, #0
 80036f0:	dde6      	ble.n	80036c0 <RI_GetRegisterGlobal+0x20>
 80036f2:	802a      	strh	r2, [r5, #0]
 80036f4:	2005      	movs	r0, #5
 80036f6:	e7e3      	b.n	80036c0 <RI_GetRegisterGlobal+0x20>
 80036f8:	2008      	movs	r0, #8
 80036fa:	2b01      	cmp	r3, #1
 80036fc:	dde0      	ble.n	80036c0 <RI_GetRegisterGlobal+0x20>
 80036fe:	4b10      	ldr	r3, [pc, #64]	@ (8003740 <RI_GetRegisterGlobal+0xa0>)
 8003700:	18e4      	adds	r4, r4, r3
 8003702:	2340      	movs	r3, #64	@ 0x40
 8003704:	439c      	bics	r4, r3
 8003706:	b2a4      	uxth	r4, r4
 8003708:	1e20      	subs	r0, r4, #0
 800370a:	d000      	beq.n	800370e <RI_GetRegisterGlobal+0x6e>
 800370c:	2005      	movs	r0, #5
 800370e:	2302      	movs	r3, #2
 8003710:	802b      	strh	r3, [r5, #0]
 8003712:	e7d5      	b.n	80036c0 <RI_GetRegisterGlobal+0x20>
 8003714:	2008      	movs	r0, #8
 8003716:	2b03      	cmp	r3, #3
 8003718:	ddd2      	ble.n	80036c0 <RI_GetRegisterGlobal+0x20>
 800371a:	2204      	movs	r2, #4
 800371c:	e7e9      	b.n	80036f2 <RI_GetRegisterGlobal+0x52>
 800371e:	2c20      	cmp	r4, #32
 8003720:	d004      	beq.n	800372c <RI_GetRegisterGlobal+0x8c>
 8003722:	2c60      	cmp	r4, #96	@ 0x60
 8003724:	d008      	beq.n	8003738 <RI_GetRegisterGlobal+0x98>
 8003726:	2300      	movs	r3, #0
 8003728:	802b      	strh	r3, [r5, #0]
 800372a:	e7e3      	b.n	80036f4 <RI_GetRegisterGlobal+0x54>
 800372c:	4805      	ldr	r0, [pc, #20]	@ (8003744 <RI_GetRegisterGlobal+0xa4>)
 800372e:	002a      	movs	r2, r5
 8003730:	0031      	movs	r1, r6
 8003732:	f7ff fd7d 	bl	8003230 <RI_MovString>
 8003736:	e7c3      	b.n	80036c0 <RI_GetRegisterGlobal+0x20>
 8003738:	4803      	ldr	r0, [pc, #12]	@ (8003748 <RI_GetRegisterGlobal+0xa8>)
 800373a:	e7f8      	b.n	800372e <RI_GetRegisterGlobal+0x8e>
 800373c:	0800675a 	.word	0x0800675a
 8003740:	fffff1b0 	.word	0xfffff1b0
 8003744:	08006764 	.word	0x08006764
 8003748:	08006788 	.word	0x08006788

0800374c <RI_GetRegisterMotor1>:
 800374c:	b5f0      	push	{r4, r5, r6, r7, lr}
 800374e:	b08f      	sub	sp, #60	@ 0x3c
 8003750:	001e      	movs	r6, r3
 8003752:	ab14      	add	r3, sp, #80	@ 0x50
 8003754:	0004      	movs	r4, r0
 8003756:	0015      	movs	r5, r2
 8003758:	0008      	movs	r0, r1
 800375a:	2200      	movs	r2, #0
 800375c:	5e9b      	ldrsh	r3, [r3, r2]
 800375e:	2918      	cmp	r1, #24
 8003760:	d100      	bne.n	8003764 <RI_GetRegisterMotor1+0x18>
 8003762:	e140      	b.n	80039e6 <RI_GetRegisterMotor1+0x29a>
 8003764:	d806      	bhi.n	8003774 <RI_GetRegisterMotor1+0x28>
 8003766:	2908      	cmp	r1, #8
 8003768:	d01e      	beq.n	80037a8 <RI_GetRegisterMotor1+0x5c>
 800376a:	2910      	cmp	r1, #16
 800376c:	d02f      	beq.n	80037ce <RI_GetRegisterMotor1+0x82>
 800376e:	2007      	movs	r0, #7
 8003770:	b00f      	add	sp, #60	@ 0x3c
 8003772:	bdf0      	pop	{r4, r5, r6, r7, pc}
 8003774:	2920      	cmp	r1, #32
 8003776:	d100      	bne.n	800377a <RI_GetRegisterMotor1+0x2e>
 8003778:	e15c      	b.n	8003a34 <RI_GetRegisterMotor1+0x2e8>
 800377a:	2928      	cmp	r1, #40	@ 0x28
 800377c:	d1f7      	bne.n	800376e <RI_GetRegisterMotor1+0x22>
 800377e:	2294      	movs	r2, #148	@ 0x94
 8003780:	1ca8      	adds	r0, r5, #2
 8003782:	0052      	lsls	r2, r2, #1
 8003784:	4294      	cmp	r4, r2
 8003786:	d100      	bne.n	800378a <RI_GetRegisterMotor1+0x3e>
 8003788:	e1cb      	b.n	8003b22 <RI_GetRegisterMotor1+0x3d6>
 800378a:	d900      	bls.n	800378e <RI_GetRegisterMotor1+0x42>
 800378c:	e192      	b.n	8003ab4 <RI_GetRegisterMotor1+0x368>
 800378e:	2ca8      	cmp	r4, #168	@ 0xa8
 8003790:	d100      	bne.n	8003794 <RI_GetRegisterMotor1+0x48>
 8003792:	e1ab      	b.n	8003aec <RI_GetRegisterMotor1+0x3a0>
 8003794:	2ce8      	cmp	r4, #232	@ 0xe8
 8003796:	d100      	bne.n	800379a <RI_GetRegisterMotor1+0x4e>
 8003798:	e1bc      	b.n	8003b14 <RI_GetRegisterMotor1+0x3c8>
 800379a:	2c68      	cmp	r4, #104	@ 0x68
 800379c:	d100      	bne.n	80037a0 <RI_GetRegisterMotor1+0x54>
 800379e:	e1b2      	b.n	8003b06 <RI_GetRegisterMotor1+0x3ba>
 80037a0:	2005      	movs	r0, #5
 80037a2:	882b      	ldrh	r3, [r5, #0]
 80037a4:	3302      	adds	r3, #2
 80037a6:	e010      	b.n	80037ca <RI_GetRegisterMotor1+0x7e>
 80037a8:	2b00      	cmp	r3, #0
 80037aa:	dde1      	ble.n	8003770 <RI_GetRegisterMotor1+0x24>
 80037ac:	2c48      	cmp	r4, #72	@ 0x48
 80037ae:	d006      	beq.n	80037be <RI_GetRegisterMotor1+0x72>
 80037b0:	2005      	movs	r0, #5
 80037b2:	2c88      	cmp	r4, #136	@ 0x88
 80037b4:	d108      	bne.n	80037c8 <RI_GetRegisterMotor1+0x7c>
 80037b6:	48aa      	ldr	r0, [pc, #680]	@ (8003a60 <RI_GetRegisterMotor1+0x314>)
 80037b8:	f7fd fda3 	bl	8001302 <MCI_GetControlMode>
 80037bc:	e002      	b.n	80037c4 <RI_GetRegisterMotor1+0x78>
 80037be:	48a8      	ldr	r0, [pc, #672]	@ (8003a60 <RI_GetRegisterMotor1+0x314>)
 80037c0:	f7fd fd34 	bl	800122c <MCI_GetSTMState>
 80037c4:	7028      	strb	r0, [r5, #0]
 80037c6:	2000      	movs	r0, #0
 80037c8:	2301      	movs	r3, #1
 80037ca:	8033      	strh	r3, [r6, #0]
 80037cc:	e7d0      	b.n	8003770 <RI_GetRegisterMotor1+0x24>
 80037ce:	2008      	movs	r0, #8
 80037d0:	2b01      	cmp	r3, #1
 80037d2:	ddcd      	ble.n	8003770 <RI_GetRegisterMotor1+0x24>
 80037d4:	2395      	movs	r3, #149	@ 0x95
 80037d6:	011b      	lsls	r3, r3, #4
 80037d8:	429c      	cmp	r4, r3
 80037da:	d100      	bne.n	80037de <RI_GetRegisterMotor1+0x92>
 80037dc:	e0e5      	b.n	80039aa <RI_GetRegisterMotor1+0x25e>
 80037de:	d864      	bhi.n	80038aa <RI_GetRegisterMotor1+0x15e>
 80037e0:	23c4      	movs	r3, #196	@ 0xc4
 80037e2:	009b      	lsls	r3, r3, #2
 80037e4:	429c      	cmp	r4, r3
 80037e6:	d100      	bne.n	80037ea <RI_GetRegisterMotor1+0x9e>
 80037e8:	e0c9      	b.n	800397e <RI_GetRegisterMotor1+0x232>
 80037ea:	d82e      	bhi.n	800384a <RI_GetRegisterMotor1+0xfe>
 80037ec:	3b41      	subs	r3, #65	@ 0x41
 80037ee:	3bff      	subs	r3, #255	@ 0xff
 80037f0:	429c      	cmp	r4, r3
 80037f2:	d100      	bne.n	80037f6 <RI_GetRegisterMotor1+0xaa>
 80037f4:	e0bf      	b.n	8003976 <RI_GetRegisterMotor1+0x22a>
 80037f6:	d818      	bhi.n	800382a <RI_GetRegisterMotor1+0xde>
 80037f8:	3bc0      	subs	r3, #192	@ 0xc0
 80037fa:	429c      	cmp	r4, r3
 80037fc:	d100      	bne.n	8003800 <RI_GetRegisterMotor1+0xb4>
 80037fe:	e0b8      	b.n	8003972 <RI_GetRegisterMotor1+0x226>
 8003800:	d80a      	bhi.n	8003818 <RI_GetRegisterMotor1+0xcc>
 8003802:	2c90      	cmp	r4, #144	@ 0x90
 8003804:	d100      	bne.n	8003808 <RI_GetRegisterMotor1+0xbc>
 8003806:	e0b0      	b.n	800396a <RI_GetRegisterMotor1+0x21e>
 8003808:	3803      	subs	r0, #3
 800380a:	2cd0      	cmp	r4, #208	@ 0xd0
 800380c:	d10b      	bne.n	8003826 <RI_GetRegisterMotor1+0xda>
 800380e:	4895      	ldr	r0, [pc, #596]	@ (8003a64 <RI_GetRegisterMotor1+0x318>)
 8003810:	f002 fc3d 	bl	800608e <PID_GetKI>
 8003814:	8028      	strh	r0, [r5, #0]
 8003816:	e07c      	b.n	8003912 <RI_GetRegisterMotor1+0x1c6>
 8003818:	23c8      	movs	r3, #200	@ 0xc8
 800381a:	4893      	ldr	r0, [pc, #588]	@ (8003a68 <RI_GetRegisterMotor1+0x31c>)
 800381c:	005b      	lsls	r3, r3, #1
 800381e:	429c      	cmp	r4, r3
 8003820:	d100      	bne.n	8003824 <RI_GetRegisterMotor1+0xd8>
 8003822:	e0a3      	b.n	800396c <RI_GetRegisterMotor1+0x220>
 8003824:	2005      	movs	r0, #5
 8003826:	2302      	movs	r3, #2
 8003828:	e7cf      	b.n	80037ca <RI_GetRegisterMotor1+0x7e>
 800382a:	23a4      	movs	r3, #164	@ 0xa4
 800382c:	009b      	lsls	r3, r3, #2
 800382e:	429c      	cmp	r4, r3
 8003830:	d100      	bne.n	8003834 <RI_GetRegisterMotor1+0xe8>
 8003832:	e0a2      	b.n	800397a <RI_GetRegisterMotor1+0x22e>
 8003834:	3340      	adds	r3, #64	@ 0x40
 8003836:	488d      	ldr	r0, [pc, #564]	@ (8003a6c <RI_GetRegisterMotor1+0x320>)
 8003838:	429c      	cmp	r4, r3
 800383a:	d0e9      	beq.n	8003810 <RI_GetRegisterMotor1+0xc4>
 800383c:	3bc0      	subs	r3, #192	@ 0xc0
 800383e:	488a      	ldr	r0, [pc, #552]	@ (8003a68 <RI_GetRegisterMotor1+0x31c>)
 8003840:	429c      	cmp	r4, r3
 8003842:	d1ef      	bne.n	8003824 <RI_GetRegisterMotor1+0xd8>
 8003844:	f002 fc4e 	bl	80060e4 <PID_GetKD>
 8003848:	e7e4      	b.n	8003814 <RI_GetRegisterMotor1+0xc8>
 800384a:	2385      	movs	r3, #133	@ 0x85
 800384c:	011b      	lsls	r3, r3, #4
 800384e:	429c      	cmp	r4, r3
 8003850:	d100      	bne.n	8003854 <RI_GetRegisterMotor1+0x108>
 8003852:	e09e      	b.n	8003992 <RI_GetRegisterMotor1+0x246>
 8003854:	d819      	bhi.n	800388a <RI_GetRegisterMotor1+0x13e>
 8003856:	3b80      	subs	r3, #128	@ 0x80
 8003858:	429c      	cmp	r4, r3
 800385a:	d100      	bne.n	800385e <RI_GetRegisterMotor1+0x112>
 800385c:	e095      	b.n	800398a <RI_GetRegisterMotor1+0x23e>
 800385e:	d80b      	bhi.n	8003878 <RI_GetRegisterMotor1+0x12c>
 8003860:	23b2      	movs	r3, #178	@ 0xb2
 8003862:	00db      	lsls	r3, r3, #3
 8003864:	429c      	cmp	r4, r3
 8003866:	d100      	bne.n	800386a <RI_GetRegisterMotor1+0x11e>
 8003868:	e08b      	b.n	8003982 <RI_GetRegisterMotor1+0x236>
 800386a:	3340      	adds	r3, #64	@ 0x40
 800386c:	429c      	cmp	r4, r3
 800386e:	d1d9      	bne.n	8003824 <RI_GetRegisterMotor1+0xd8>
 8003870:	487f      	ldr	r0, [pc, #508]	@ (8003a70 <RI_GetRegisterMotor1+0x324>)
 8003872:	f002 fbed 	bl	8006050 <NTC_GetAvTemp_C>
 8003876:	e7cd      	b.n	8003814 <RI_GetRegisterMotor1+0xc8>
 8003878:	2381      	movs	r3, #129	@ 0x81
 800387a:	011b      	lsls	r3, r3, #4
 800387c:	429c      	cmp	r4, r3
 800387e:	d1d1      	bne.n	8003824 <RI_GetRegisterMotor1+0xd8>
 8003880:	4877      	ldr	r0, [pc, #476]	@ (8003a60 <RI_GetRegisterMotor1+0x314>)
 8003882:	f7fd fd5a 	bl	800133a <MCI_GetIab>
 8003886:	0c00      	lsrs	r0, r0, #16
 8003888:	e7c4      	b.n	8003814 <RI_GetRegisterMotor1+0xc8>
 800388a:	238d      	movs	r3, #141	@ 0x8d
 800388c:	011b      	lsls	r3, r3, #4
 800388e:	429c      	cmp	r4, r3
 8003890:	d100      	bne.n	8003894 <RI_GetRegisterMotor1+0x148>
 8003892:	e082      	b.n	800399a <RI_GetRegisterMotor1+0x24e>
 8003894:	3340      	adds	r3, #64	@ 0x40
 8003896:	429c      	cmp	r4, r3
 8003898:	d100      	bne.n	800389c <RI_GetRegisterMotor1+0x150>
 800389a:	e082      	b.n	80039a2 <RI_GetRegisterMotor1+0x256>
 800389c:	3b80      	subs	r3, #128	@ 0x80
 800389e:	429c      	cmp	r4, r3
 80038a0:	d1c0      	bne.n	8003824 <RI_GetRegisterMotor1+0xd8>
 80038a2:	486f      	ldr	r0, [pc, #444]	@ (8003a60 <RI_GetRegisterMotor1+0x314>)
 80038a4:	f7fd fd56 	bl	8001354 <MCI_GetIalphabeta>
 80038a8:	e7ed      	b.n	8003886 <RI_GetRegisterMotor1+0x13a>
 80038aa:	4b72      	ldr	r3, [pc, #456]	@ (8003a74 <RI_GetRegisterMotor1+0x328>)
 80038ac:	429c      	cmp	r4, r3
 80038ae:	d100      	bne.n	80038b2 <RI_GetRegisterMotor1+0x166>
 80038b0:	e08f      	b.n	80039d2 <RI_GetRegisterMotor1+0x286>
 80038b2:	d830      	bhi.n	8003916 <RI_GetRegisterMotor1+0x1ca>
 80038b4:	23a9      	movs	r3, #169	@ 0xa9
 80038b6:	011b      	lsls	r3, r3, #4
 80038b8:	429c      	cmp	r4, r3
 80038ba:	d100      	bne.n	80038be <RI_GetRegisterMotor1+0x172>
 80038bc:	e081      	b.n	80039c2 <RI_GetRegisterMotor1+0x276>
 80038be:	d815      	bhi.n	80038ec <RI_GetRegisterMotor1+0x1a0>
 80038c0:	3b80      	subs	r3, #128	@ 0x80
 80038c2:	429c      	cmp	r4, r3
 80038c4:	d079      	beq.n	80039ba <RI_GetRegisterMotor1+0x26e>
 80038c6:	d809      	bhi.n	80038dc <RI_GetRegisterMotor1+0x190>
 80038c8:	3b80      	subs	r3, #128	@ 0x80
 80038ca:	429c      	cmp	r4, r3
 80038cc:	d071      	beq.n	80039b2 <RI_GetRegisterMotor1+0x266>
 80038ce:	3340      	adds	r3, #64	@ 0x40
 80038d0:	429c      	cmp	r4, r3
 80038d2:	d1a7      	bne.n	8003824 <RI_GetRegisterMotor1+0xd8>
 80038d4:	4862      	ldr	r0, [pc, #392]	@ (8003a60 <RI_GetRegisterMotor1+0x314>)
 80038d6:	f7fd fd67 	bl	80013a8 <MCI_GetVqd>
 80038da:	e79b      	b.n	8003814 <RI_GetRegisterMotor1+0xc8>
 80038dc:	23a5      	movs	r3, #165	@ 0xa5
 80038de:	011b      	lsls	r3, r3, #4
 80038e0:	429c      	cmp	r4, r3
 80038e2:	d19f      	bne.n	8003824 <RI_GetRegisterMotor1+0xd8>
 80038e4:	485e      	ldr	r0, [pc, #376]	@ (8003a60 <RI_GetRegisterMotor1+0x314>)
 80038e6:	f7fd fd6d 	bl	80013c4 <MCI_GetValphabeta>
 80038ea:	e793      	b.n	8003814 <RI_GetRegisterMotor1+0xc8>
 80038ec:	23b1      	movs	r3, #177	@ 0xb1
 80038ee:	011b      	lsls	r3, r3, #4
 80038f0:	429c      	cmp	r4, r3
 80038f2:	d06a      	beq.n	80039ca <RI_GetRegisterMotor1+0x27e>
 80038f4:	d806      	bhi.n	8003904 <RI_GetRegisterMotor1+0x1b8>
 80038f6:	3b40      	subs	r3, #64	@ 0x40
 80038f8:	429c      	cmp	r4, r3
 80038fa:	d193      	bne.n	8003824 <RI_GetRegisterMotor1+0xd8>
 80038fc:	485e      	ldr	r0, [pc, #376]	@ (8003a78 <RI_GetRegisterMotor1+0x32c>)
 80038fe:	f002 fcf1 	bl	80062e4 <SPD_GetElAngle>
 8003902:	e787      	b.n	8003814 <RI_GetRegisterMotor1+0xc8>
 8003904:	4b5d      	ldr	r3, [pc, #372]	@ (8003a7c <RI_GetRegisterMotor1+0x330>)
 8003906:	18e4      	adds	r4, r4, r3
 8003908:	2340      	movs	r3, #64	@ 0x40
 800390a:	439c      	bics	r4, r3
 800390c:	b2a4      	uxth	r4, r4
 800390e:	2c00      	cmp	r4, #0
 8003910:	d188      	bne.n	8003824 <RI_GetRegisterMotor1+0xd8>
 8003912:	2000      	movs	r0, #0
 8003914:	e787      	b.n	8003826 <RI_GetRegisterMotor1+0xda>
 8003916:	4b5a      	ldr	r3, [pc, #360]	@ (8003a80 <RI_GetRegisterMotor1+0x334>)
 8003918:	429c      	cmp	r4, r3
 800391a:	d060      	beq.n	80039de <RI_GetRegisterMotor1+0x292>
 800391c:	d816      	bhi.n	800394c <RI_GetRegisterMotor1+0x200>
 800391e:	4b59      	ldr	r3, [pc, #356]	@ (8003a84 <RI_GetRegisterMotor1+0x338>)
 8003920:	429c      	cmp	r4, r3
 8003922:	d05a      	beq.n	80039da <RI_GetRegisterMotor1+0x28e>
 8003924:	d80a      	bhi.n	800393c <RI_GetRegisterMotor1+0x1f0>
 8003926:	4b58      	ldr	r3, [pc, #352]	@ (8003a88 <RI_GetRegisterMotor1+0x33c>)
 8003928:	429c      	cmp	r4, r3
 800392a:	d054      	beq.n	80039d6 <RI_GetRegisterMotor1+0x28a>
 800392c:	4b57      	ldr	r3, [pc, #348]	@ (8003a8c <RI_GetRegisterMotor1+0x340>)
 800392e:	484d      	ldr	r0, [pc, #308]	@ (8003a64 <RI_GetRegisterMotor1+0x318>)
 8003930:	429c      	cmp	r4, r3
 8003932:	d000      	beq.n	8003936 <RI_GetRegisterMotor1+0x1ea>
 8003934:	e776      	b.n	8003824 <RI_GetRegisterMotor1+0xd8>
 8003936:	f002 fbd8 	bl	80060ea <PID_GetKDDivisorPOW2>
 800393a:	e76b      	b.n	8003814 <RI_GetRegisterMotor1+0xc8>
 800393c:	4b54      	ldr	r3, [pc, #336]	@ (8003a90 <RI_GetRegisterMotor1+0x344>)
 800393e:	484b      	ldr	r0, [pc, #300]	@ (8003a6c <RI_GetRegisterMotor1+0x320>)
 8003940:	429c      	cmp	r4, r3
 8003942:	d000      	beq.n	8003946 <RI_GetRegisterMotor1+0x1fa>
 8003944:	e76e      	b.n	8003824 <RI_GetRegisterMotor1+0xd8>
 8003946:	f002 fbae 	bl	80060a6 <PID_GetKIDivisorPOW2>
 800394a:	e763      	b.n	8003814 <RI_GetRegisterMotor1+0xc8>
 800394c:	4b51      	ldr	r3, [pc, #324]	@ (8003a94 <RI_GetRegisterMotor1+0x348>)
 800394e:	429c      	cmp	r4, r3
 8003950:	d047      	beq.n	80039e2 <RI_GetRegisterMotor1+0x296>
 8003952:	4b51      	ldr	r3, [pc, #324]	@ (8003a98 <RI_GetRegisterMotor1+0x34c>)
 8003954:	4844      	ldr	r0, [pc, #272]	@ (8003a68 <RI_GetRegisterMotor1+0x31c>)
 8003956:	429c      	cmp	r4, r3
 8003958:	d0ed      	beq.n	8003936 <RI_GetRegisterMotor1+0x1ea>
 800395a:	4b50      	ldr	r3, [pc, #320]	@ (8003a9c <RI_GetRegisterMotor1+0x350>)
 800395c:	4842      	ldr	r0, [pc, #264]	@ (8003a68 <RI_GetRegisterMotor1+0x31c>)
 800395e:	429c      	cmp	r4, r3
 8003960:	d000      	beq.n	8003964 <RI_GetRegisterMotor1+0x218>
 8003962:	e75f      	b.n	8003824 <RI_GetRegisterMotor1+0xd8>
 8003964:	f002 fb98 	bl	8006098 <PID_GetKPDivisorPOW2>
 8003968:	e754      	b.n	8003814 <RI_GetRegisterMotor1+0xc8>
 800396a:	483e      	ldr	r0, [pc, #248]	@ (8003a64 <RI_GetRegisterMotor1+0x318>)
 800396c:	f002 fb8c 	bl	8006088 <PID_GetKP>
 8003970:	e750      	b.n	8003814 <RI_GetRegisterMotor1+0xc8>
 8003972:	483c      	ldr	r0, [pc, #240]	@ (8003a64 <RI_GetRegisterMotor1+0x318>)
 8003974:	e766      	b.n	8003844 <RI_GetRegisterMotor1+0xf8>
 8003976:	483c      	ldr	r0, [pc, #240]	@ (8003a68 <RI_GetRegisterMotor1+0x31c>)
 8003978:	e74a      	b.n	8003810 <RI_GetRegisterMotor1+0xc4>
 800397a:	483c      	ldr	r0, [pc, #240]	@ (8003a6c <RI_GetRegisterMotor1+0x320>)
 800397c:	e7f6      	b.n	800396c <RI_GetRegisterMotor1+0x220>
 800397e:	483b      	ldr	r0, [pc, #236]	@ (8003a6c <RI_GetRegisterMotor1+0x320>)
 8003980:	e760      	b.n	8003844 <RI_GetRegisterMotor1+0xf8>
 8003982:	4847      	ldr	r0, [pc, #284]	@ (8003aa0 <RI_GetRegisterMotor1+0x354>)
 8003984:	f002 f87e 	bl	8005a84 <VBS_GetAvBusVoltage_V>
 8003988:	e744      	b.n	8003814 <RI_GetRegisterMotor1+0xc8>
 800398a:	4835      	ldr	r0, [pc, #212]	@ (8003a60 <RI_GetRegisterMotor1+0x314>)
 800398c:	f7fd fcd5 	bl	800133a <MCI_GetIab>
 8003990:	e740      	b.n	8003814 <RI_GetRegisterMotor1+0xc8>
 8003992:	4833      	ldr	r0, [pc, #204]	@ (8003a60 <RI_GetRegisterMotor1+0x314>)
 8003994:	f7fd fcde 	bl	8001354 <MCI_GetIalphabeta>
 8003998:	e73c      	b.n	8003814 <RI_GetRegisterMotor1+0xc8>
 800399a:	4831      	ldr	r0, [pc, #196]	@ (8003a60 <RI_GetRegisterMotor1+0x314>)
 800399c:	f7fd fce8 	bl	8001370 <MCI_GetIqd>
 80039a0:	e738      	b.n	8003814 <RI_GetRegisterMotor1+0xc8>
 80039a2:	482f      	ldr	r0, [pc, #188]	@ (8003a60 <RI_GetRegisterMotor1+0x314>)
 80039a4:	f7fd fce4 	bl	8001370 <MCI_GetIqd>
 80039a8:	e76d      	b.n	8003886 <RI_GetRegisterMotor1+0x13a>
 80039aa:	482d      	ldr	r0, [pc, #180]	@ (8003a60 <RI_GetRegisterMotor1+0x314>)
 80039ac:	f7fd fcee 	bl	800138c <MCI_GetIqdref>
 80039b0:	e730      	b.n	8003814 <RI_GetRegisterMotor1+0xc8>
 80039b2:	482b      	ldr	r0, [pc, #172]	@ (8003a60 <RI_GetRegisterMotor1+0x314>)
 80039b4:	f7fd fcea 	bl	800138c <MCI_GetIqdref>
 80039b8:	e765      	b.n	8003886 <RI_GetRegisterMotor1+0x13a>
 80039ba:	4829      	ldr	r0, [pc, #164]	@ (8003a60 <RI_GetRegisterMotor1+0x314>)
 80039bc:	f7fd fcf4 	bl	80013a8 <MCI_GetVqd>
 80039c0:	e761      	b.n	8003886 <RI_GetRegisterMotor1+0x13a>
 80039c2:	4827      	ldr	r0, [pc, #156]	@ (8003a60 <RI_GetRegisterMotor1+0x314>)
 80039c4:	f7fd fcfe 	bl	80013c4 <MCI_GetValphabeta>
 80039c8:	e75d      	b.n	8003886 <RI_GetRegisterMotor1+0x13a>
 80039ca:	482b      	ldr	r0, [pc, #172]	@ (8003a78 <RI_GetRegisterMotor1+0x32c>)
 80039cc:	f002 fcc1 	bl	8006352 <SPD_GetS16Speed>
 80039d0:	e720      	b.n	8003814 <RI_GetRegisterMotor1+0xc8>
 80039d2:	4824      	ldr	r0, [pc, #144]	@ (8003a64 <RI_GetRegisterMotor1+0x318>)
 80039d4:	e7c6      	b.n	8003964 <RI_GetRegisterMotor1+0x218>
 80039d6:	4823      	ldr	r0, [pc, #140]	@ (8003a64 <RI_GetRegisterMotor1+0x318>)
 80039d8:	e7b5      	b.n	8003946 <RI_GetRegisterMotor1+0x1fa>
 80039da:	4824      	ldr	r0, [pc, #144]	@ (8003a6c <RI_GetRegisterMotor1+0x320>)
 80039dc:	e7c2      	b.n	8003964 <RI_GetRegisterMotor1+0x218>
 80039de:	4823      	ldr	r0, [pc, #140]	@ (8003a6c <RI_GetRegisterMotor1+0x320>)
 80039e0:	e7a9      	b.n	8003936 <RI_GetRegisterMotor1+0x1ea>
 80039e2:	4821      	ldr	r0, [pc, #132]	@ (8003a68 <RI_GetRegisterMotor1+0x31c>)
 80039e4:	e7af      	b.n	8003946 <RI_GetRegisterMotor1+0x1fa>
 80039e6:	2008      	movs	r0, #8
 80039e8:	2b03      	cmp	r3, #3
 80039ea:	dc00      	bgt.n	80039ee <RI_GetRegisterMotor1+0x2a2>
 80039ec:	e6c0      	b.n	8003770 <RI_GetRegisterMotor1+0x24>
 80039ee:	2c98      	cmp	r4, #152	@ 0x98
 80039f0:	d01c      	beq.n	8003a2c <RI_GetRegisterMotor1+0x2e0>
 80039f2:	d80d      	bhi.n	8003a10 <RI_GetRegisterMotor1+0x2c4>
 80039f4:	2c18      	cmp	r4, #24
 80039f6:	d014      	beq.n	8003a22 <RI_GetRegisterMotor1+0x2d6>
 80039f8:	3803      	subs	r0, #3
 80039fa:	2c58      	cmp	r4, #88	@ 0x58
 80039fc:	d106      	bne.n	8003a0c <RI_GetRegisterMotor1+0x2c0>
 80039fe:	4818      	ldr	r0, [pc, #96]	@ (8003a60 <RI_GetRegisterMotor1+0x314>)
 8003a00:	f7fd fc8f 	bl	8001322 <MCI_GetAvrgMecSpeedUnit>
 8003a04:	2306      	movs	r3, #6
 8003a06:	4343      	muls	r3, r0
 8003a08:	602b      	str	r3, [r5, #0]
 8003a0a:	2000      	movs	r0, #0
 8003a0c:	2304      	movs	r3, #4
 8003a0e:	e6dc      	b.n	80037ca <RI_GetRegisterMotor1+0x7e>
 8003a10:	4b24      	ldr	r3, [pc, #144]	@ (8003aa4 <RI_GetRegisterMotor1+0x358>)
 8003a12:	2005      	movs	r0, #5
 8003a14:	429c      	cmp	r4, r3
 8003a16:	d1f9      	bne.n	8003a0c <RI_GetRegisterMotor1+0x2c0>
 8003a18:	4b23      	ldr	r3, [pc, #140]	@ (8003aa8 <RI_GetRegisterMotor1+0x35c>)
 8003a1a:	6818      	ldr	r0, [r3, #0]
 8003a1c:	f002 fbc5 	bl	80061aa <PQD_GetAvrgElMotorPowerW>
 8003a20:	e002      	b.n	8003a28 <RI_GetRegisterMotor1+0x2dc>
 8003a22:	480f      	ldr	r0, [pc, #60]	@ (8003a60 <RI_GetRegisterMotor1+0x314>)
 8003a24:	f7fd fc68 	bl	80012f8 <MCI_GetFaultState>
 8003a28:	6028      	str	r0, [r5, #0]
 8003a2a:	e7ee      	b.n	8003a0a <RI_GetRegisterMotor1+0x2be>
 8003a2c:	480c      	ldr	r0, [pc, #48]	@ (8003a60 <RI_GetRegisterMotor1+0x314>)
 8003a2e:	f7fd fc7f 	bl	8001330 <MCI_GetMecSpeedRefUnit>
 8003a32:	e7e7      	b.n	8003a04 <RI_GetRegisterMotor1+0x2b8>
 8003a34:	2ca0      	cmp	r4, #160	@ 0xa0
 8003a36:	d005      	beq.n	8003a44 <RI_GetRegisterMotor1+0x2f8>
 8003a38:	2ce0      	cmp	r4, #224	@ 0xe0
 8003a3a:	d00a      	beq.n	8003a52 <RI_GetRegisterMotor1+0x306>
 8003a3c:	2300      	movs	r3, #0
 8003a3e:	2005      	movs	r0, #5
 8003a40:	8033      	strh	r3, [r6, #0]
 8003a42:	e695      	b.n	8003770 <RI_GetRegisterMotor1+0x24>
 8003a44:	0032      	movs	r2, r6
 8003a46:	0029      	movs	r1, r5
 8003a48:	4818      	ldr	r0, [pc, #96]	@ (8003aac <RI_GetRegisterMotor1+0x360>)
 8003a4a:	6800      	ldr	r0, [r0, #0]
 8003a4c:	f7ff fbf0 	bl	8003230 <RI_MovString>
 8003a50:	e68e      	b.n	8003770 <RI_GetRegisterMotor1+0x24>
 8003a52:	4a17      	ldr	r2, [pc, #92]	@ (8003ab0 <RI_GetRegisterMotor1+0x364>)
 8003a54:	0029      	movs	r1, r5
 8003a56:	6810      	ldr	r0, [r2, #0]
 8003a58:	0032      	movs	r2, r6
 8003a5a:	3024      	adds	r0, #36	@ 0x24
 8003a5c:	e7f6      	b.n	8003a4c <RI_GetRegisterMotor1+0x300>
 8003a5e:	46c0      	nop			@ (mov r8, r8)
 8003a60:	2000069c 	.word	0x2000069c
 8003a64:	200002a4 	.word	0x200002a4
 8003a68:	20000278 	.word	0x20000278
 8003a6c:	2000024c 	.word	0x2000024c
 8003a70:	20000058 	.word	0x20000058
 8003a74:	00001450 	.word	0x00001450
 8003a78:	20000090 	.word	0x20000090
 8003a7c:	fffff1b0 	.word	0xfffff1b0
 8003a80:	00001590 	.word	0x00001590
 8003a84:	00001510 	.word	0x00001510
 8003a88:	00001490 	.word	0x00001490
 8003a8c:	000014d0 	.word	0x000014d0
 8003a90:	00001550 	.word	0x00001550
 8003a94:	00001610 	.word	0x00001610
 8003a98:	00001650 	.word	0x00001650
 8003a9c:	000015d0 	.word	0x000015d0
 8003aa0:	2000002c 	.word	0x2000002c
 8003aa4:	00001b58 	.word	0x00001b58
 8003aa8:	20000000 	.word	0x20000000
 8003aac:	200002ec 	.word	0x200002ec
 8003ab0:	200002e4 	.word	0x200002e4
 8003ab4:	23f4      	movs	r3, #244	@ 0xf4
 8003ab6:	005b      	lsls	r3, r3, #1
 8003ab8:	429c      	cmp	r4, r3
 8003aba:	d03a      	beq.n	8003b32 <RI_GetRegisterMotor1+0x3e6>
 8003abc:	3381      	adds	r3, #129	@ 0x81
 8003abe:	33ff      	adds	r3, #255	@ 0xff
 8003ac0:	429c      	cmp	r4, r3
 8003ac2:	d042      	beq.n	8003b4a <RI_GetRegisterMotor1+0x3fe>
 8003ac4:	3bc1      	subs	r3, #193	@ 0xc1
 8003ac6:	3bff      	subs	r3, #255	@ 0xff
 8003ac8:	429c      	cmp	r4, r3
 8003aca:	d000      	beq.n	8003ace <RI_GetRegisterMotor1+0x382>
 8003acc:	e668      	b.n	80037a0 <RI_GetRegisterMotor1+0x54>
 8003ace:	4f25      	ldr	r7, [pc, #148]	@ (8003b64 <RI_GetRegisterMotor1+0x418>)
 8003ad0:	2406      	movs	r4, #6
 8003ad2:	0038      	movs	r0, r7
 8003ad4:	f7fd fc18 	bl	8001308 <MCI_GetLastRampFinalSpeed>
 8003ad8:	4360      	muls	r0, r4
 8003ada:	8068      	strh	r0, [r5, #2]
 8003adc:	1400      	asrs	r0, r0, #16
 8003ade:	80a8      	strh	r0, [r5, #4]
 8003ae0:	0038      	movs	r0, r7
 8003ae2:	f7fd fc17 	bl	8001314 <MCI_GetLastRampFinalDuration>
 8003ae6:	802c      	strh	r4, [r5, #0]
 8003ae8:	80e8      	strh	r0, [r5, #6]
 8003aea:	e00a      	b.n	8003b02 <RI_GetRegisterMotor1+0x3b6>
 8003aec:	2210      	movs	r2, #16
 8003aee:	b29b      	uxth	r3, r3
 8003af0:	802a      	strh	r2, [r5, #0]
 8003af2:	2b11      	cmp	r3, #17
 8003af4:	d801      	bhi.n	8003afa <RI_GetRegisterMotor1+0x3ae>
 8003af6:	2008      	movs	r0, #8
 8003af8:	e653      	b.n	80037a2 <RI_GetRegisterMotor1+0x56>
 8003afa:	4b1b      	ldr	r3, [pc, #108]	@ (8003b68 <RI_GetRegisterMotor1+0x41c>)
 8003afc:	6819      	ldr	r1, [r3, #0]
 8003afe:	f002 fd61 	bl	80065c4 <memcpy>
 8003b02:	2000      	movs	r0, #0
 8003b04:	e64d      	b.n	80037a2 <RI_GetRegisterMotor1+0x56>
 8003b06:	223c      	movs	r2, #60	@ 0x3c
 8003b08:	b29b      	uxth	r3, r3
 8003b0a:	802a      	strh	r2, [r5, #0]
 8003b0c:	2b3d      	cmp	r3, #61	@ 0x3d
 8003b0e:	d9f2      	bls.n	8003af6 <RI_GetRegisterMotor1+0x3aa>
 8003b10:	4b16      	ldr	r3, [pc, #88]	@ (8003b6c <RI_GetRegisterMotor1+0x420>)
 8003b12:	e7f3      	b.n	8003afc <RI_GetRegisterMotor1+0x3b0>
 8003b14:	220e      	movs	r2, #14
 8003b16:	b29b      	uxth	r3, r3
 8003b18:	802a      	strh	r2, [r5, #0]
 8003b1a:	2b0f      	cmp	r3, #15
 8003b1c:	d9eb      	bls.n	8003af6 <RI_GetRegisterMotor1+0x3aa>
 8003b1e:	4b14      	ldr	r3, [pc, #80]	@ (8003b70 <RI_GetRegisterMotor1+0x424>)
 8003b20:	e7ec      	b.n	8003afc <RI_GetRegisterMotor1+0x3b0>
 8003b22:	220c      	movs	r2, #12
 8003b24:	b29b      	uxth	r3, r3
 8003b26:	802a      	strh	r2, [r5, #0]
 8003b28:	2b0d      	cmp	r3, #13
 8003b2a:	d9e4      	bls.n	8003af6 <RI_GetRegisterMotor1+0x3aa>
 8003b2c:	4911      	ldr	r1, [pc, #68]	@ (8003b74 <RI_GetRegisterMotor1+0x428>)
 8003b2e:	3204      	adds	r2, #4
 8003b30:	e7e5      	b.n	8003afe <RI_GetRegisterMotor1+0x3b2>
 8003b32:	2304      	movs	r3, #4
 8003b34:	4c0b      	ldr	r4, [pc, #44]	@ (8003b64 <RI_GetRegisterMotor1+0x418>)
 8003b36:	802b      	strh	r3, [r5, #0]
 8003b38:	0020      	movs	r0, r4
 8003b3a:	f7fd fbe8 	bl	800130e <MCI_GetLastRampFinalTorque>
 8003b3e:	8068      	strh	r0, [r5, #2]
 8003b40:	0020      	movs	r0, r4
 8003b42:	f7fd fbe7 	bl	8001314 <MCI_GetLastRampFinalDuration>
 8003b46:	80a8      	strh	r0, [r5, #4]
 8003b48:	e7db      	b.n	8003b02 <RI_GetRegisterMotor1+0x3b6>
 8003b4a:	2304      	movs	r3, #4
 8003b4c:	4c05      	ldr	r4, [pc, #20]	@ (8003b64 <RI_GetRegisterMotor1+0x418>)
 8003b4e:	802b      	strh	r3, [r5, #0]
 8003b50:	0020      	movs	r0, r4
 8003b52:	f7fd fc1b 	bl	800138c <MCI_GetIqdref>
 8003b56:	8068      	strh	r0, [r5, #2]
 8003b58:	0020      	movs	r0, r4
 8003b5a:	f7fd fc17 	bl	800138c <MCI_GetIqdref>
 8003b5e:	0c00      	lsrs	r0, r0, #16
 8003b60:	e7f1      	b.n	8003b46 <RI_GetRegisterMotor1+0x3fa>
 8003b62:	46c0      	nop			@ (mov r8, r8)
 8003b64:	2000069c 	.word	0x2000069c
 8003b68:	200002e0 	.word	0x200002e0
 8003b6c:	200002e4 	.word	0x200002e4
 8003b70:	200002e8 	.word	0x200002e8
 8003b74:	200002f0 	.word	0x200002f0

08003b78 <RI_GetIDSize>:
 8003b78:	0003      	movs	r3, r0
 8003b7a:	2238      	movs	r2, #56	@ 0x38
 8003b7c:	4013      	ands	r3, r2
 8003b7e:	3b08      	subs	r3, #8
 8003b80:	b2db      	uxtb	r3, r3
 8003b82:	2000      	movs	r0, #0
 8003b84:	2b10      	cmp	r3, #16
 8003b86:	d801      	bhi.n	8003b8c <RI_GetIDSize+0x14>
 8003b88:	4a01      	ldr	r2, [pc, #4]	@ (8003b90 <RI_GetIDSize+0x18>)
 8003b8a:	5cd0      	ldrb	r0, [r2, r3]
 8003b8c:	4770      	bx	lr
 8003b8e:	46c0      	nop			@ (mov r8, r8)
 8003b90:	080069da 	.word	0x080069da

08003b94 <RI_GetPtrReg>:
 8003b94:	2338      	movs	r3, #56	@ 0x38
 8003b96:	0002      	movs	r2, r0
 8003b98:	b510      	push	{r4, lr}
 8003b9a:	4003      	ands	r3, r0
 8003b9c:	2b10      	cmp	r3, #16
 8003b9e:	d114      	bne.n	8003bca <RI_GetPtrReg+0x36>
 8003ba0:	3b09      	subs	r3, #9
 8003ba2:	439a      	bics	r2, r3
 8003ba4:	2399      	movs	r3, #153	@ 0x99
 8003ba6:	011b      	lsls	r3, r3, #4
 8003ba8:	429a      	cmp	r2, r3
 8003baa:	d057      	beq.n	8003c5c <RI_GetPtrReg+0xc8>
 8003bac:	d81e      	bhi.n	8003bec <RI_GetPtrReg+0x58>
 8003bae:	3b01      	subs	r3, #1
 8003bb0:	3bff      	subs	r3, #255	@ 0xff
 8003bb2:	429a      	cmp	r2, r3
 8003bb4:	d046      	beq.n	8003c44 <RI_GetPtrReg+0xb0>
 8003bb6:	d80b      	bhi.n	8003bd0 <RI_GetPtrReg+0x3c>
 8003bb8:	3b80      	subs	r3, #128	@ 0x80
 8003bba:	429a      	cmp	r2, r3
 8003bbc:	d03a      	beq.n	8003c34 <RI_GetPtrReg+0xa0>
 8003bbe:	3340      	adds	r3, #64	@ 0x40
 8003bc0:	429a      	cmp	r2, r3
 8003bc2:	d03b      	beq.n	8003c3c <RI_GetPtrReg+0xa8>
 8003bc4:	3b80      	subs	r3, #128	@ 0x80
 8003bc6:	429a      	cmp	r2, r3
 8003bc8:	d030      	beq.n	8003c2c <RI_GetPtrReg+0x98>
 8003bca:	2005      	movs	r0, #5
 8003bcc:	4b2c      	ldr	r3, [pc, #176]	@ (8003c80 <RI_GetPtrReg+0xec>)
 8003bce:	e02b      	b.n	8003c28 <RI_GetPtrReg+0x94>
 8003bd0:	2391      	movs	r3, #145	@ 0x91
 8003bd2:	011b      	lsls	r3, r3, #4
 8003bd4:	429a      	cmp	r2, r3
 8003bd6:	d039      	beq.n	8003c4c <RI_GetPtrReg+0xb8>
 8003bd8:	3340      	adds	r3, #64	@ 0x40
 8003bda:	429a      	cmp	r2, r3
 8003bdc:	d03a      	beq.n	8003c54 <RI_GetPtrReg+0xc0>
 8003bde:	3b80      	subs	r3, #128	@ 0x80
 8003be0:	429a      	cmp	r2, r3
 8003be2:	d1f2      	bne.n	8003bca <RI_GetPtrReg+0x36>
 8003be4:	4b27      	ldr	r3, [pc, #156]	@ (8003c84 <RI_GetPtrReg+0xf0>)
 8003be6:	685b      	ldr	r3, [r3, #4]
 8003be8:	330c      	adds	r3, #12
 8003bea:	e021      	b.n	8003c30 <RI_GetPtrReg+0x9c>
 8003bec:	23a9      	movs	r3, #169	@ 0xa9
 8003bee:	011b      	lsls	r3, r3, #4
 8003bf0:	429a      	cmp	r2, r3
 8003bf2:	d03f      	beq.n	8003c74 <RI_GetPtrReg+0xe0>
 8003bf4:	d80c      	bhi.n	8003c10 <RI_GetPtrReg+0x7c>
 8003bf6:	3b80      	subs	r3, #128	@ 0x80
 8003bf8:	429a      	cmp	r2, r3
 8003bfa:	d033      	beq.n	8003c64 <RI_GetPtrReg+0xd0>
 8003bfc:	3340      	adds	r3, #64	@ 0x40
 8003bfe:	429a      	cmp	r2, r3
 8003c00:	d034      	beq.n	8003c6c <RI_GetPtrReg+0xd8>
 8003c02:	3b80      	subs	r3, #128	@ 0x80
 8003c04:	429a      	cmp	r2, r3
 8003c06:	d1e0      	bne.n	8003bca <RI_GetPtrReg+0x36>
 8003c08:	4b1e      	ldr	r3, [pc, #120]	@ (8003c84 <RI_GetPtrReg+0xf0>)
 8003c0a:	685b      	ldr	r3, [r3, #4]
 8003c0c:	3316      	adds	r3, #22
 8003c0e:	e00f      	b.n	8003c30 <RI_GetPtrReg+0x9c>
 8003c10:	23ad      	movs	r3, #173	@ 0xad
 8003c12:	011b      	lsls	r3, r3, #4
 8003c14:	429a      	cmp	r2, r3
 8003c16:	d031      	beq.n	8003c7c <RI_GetPtrReg+0xe8>
 8003c18:	24b1      	movs	r4, #177	@ 0xb1
 8003c1a:	2000      	movs	r0, #0
 8003c1c:	4b1a      	ldr	r3, [pc, #104]	@ (8003c88 <RI_GetPtrReg+0xf4>)
 8003c1e:	0124      	lsls	r4, r4, #4
 8003c20:	42a2      	cmp	r2, r4
 8003c22:	d001      	beq.n	8003c28 <RI_GetPtrReg+0x94>
 8003c24:	4b16      	ldr	r3, [pc, #88]	@ (8003c80 <RI_GetPtrReg+0xec>)
 8003c26:	3005      	adds	r0, #5
 8003c28:	600b      	str	r3, [r1, #0]
 8003c2a:	bd10      	pop	{r4, pc}
 8003c2c:	4b15      	ldr	r3, [pc, #84]	@ (8003c84 <RI_GetPtrReg+0xf0>)
 8003c2e:	685b      	ldr	r3, [r3, #4]
 8003c30:	2000      	movs	r0, #0
 8003c32:	e7f9      	b.n	8003c28 <RI_GetPtrReg+0x94>
 8003c34:	4b13      	ldr	r3, [pc, #76]	@ (8003c84 <RI_GetPtrReg+0xf0>)
 8003c36:	685b      	ldr	r3, [r3, #4]
 8003c38:	3302      	adds	r3, #2
 8003c3a:	e7f9      	b.n	8003c30 <RI_GetPtrReg+0x9c>
 8003c3c:	4b11      	ldr	r3, [pc, #68]	@ (8003c84 <RI_GetPtrReg+0xf0>)
 8003c3e:	685b      	ldr	r3, [r3, #4]
 8003c40:	3304      	adds	r3, #4
 8003c42:	e7f5      	b.n	8003c30 <RI_GetPtrReg+0x9c>
 8003c44:	4b0f      	ldr	r3, [pc, #60]	@ (8003c84 <RI_GetPtrReg+0xf0>)
 8003c46:	685b      	ldr	r3, [r3, #4]
 8003c48:	3306      	adds	r3, #6
 8003c4a:	e7f1      	b.n	8003c30 <RI_GetPtrReg+0x9c>
 8003c4c:	4b0d      	ldr	r3, [pc, #52]	@ (8003c84 <RI_GetPtrReg+0xf0>)
 8003c4e:	685b      	ldr	r3, [r3, #4]
 8003c50:	330e      	adds	r3, #14
 8003c52:	e7ed      	b.n	8003c30 <RI_GetPtrReg+0x9c>
 8003c54:	4b0b      	ldr	r3, [pc, #44]	@ (8003c84 <RI_GetPtrReg+0xf0>)
 8003c56:	685b      	ldr	r3, [r3, #4]
 8003c58:	3310      	adds	r3, #16
 8003c5a:	e7e9      	b.n	8003c30 <RI_GetPtrReg+0x9c>
 8003c5c:	4b09      	ldr	r3, [pc, #36]	@ (8003c84 <RI_GetPtrReg+0xf0>)
 8003c5e:	685b      	ldr	r3, [r3, #4]
 8003c60:	3312      	adds	r3, #18
 8003c62:	e7e5      	b.n	8003c30 <RI_GetPtrReg+0x9c>
 8003c64:	4b07      	ldr	r3, [pc, #28]	@ (8003c84 <RI_GetPtrReg+0xf0>)
 8003c66:	685b      	ldr	r3, [r3, #4]
 8003c68:	3318      	adds	r3, #24
 8003c6a:	e7e1      	b.n	8003c30 <RI_GetPtrReg+0x9c>
 8003c6c:	4b05      	ldr	r3, [pc, #20]	@ (8003c84 <RI_GetPtrReg+0xf0>)
 8003c6e:	685b      	ldr	r3, [r3, #4]
 8003c70:	331a      	adds	r3, #26
 8003c72:	e7dd      	b.n	8003c30 <RI_GetPtrReg+0x9c>
 8003c74:	4b03      	ldr	r3, [pc, #12]	@ (8003c84 <RI_GetPtrReg+0xf0>)
 8003c76:	685b      	ldr	r3, [r3, #4]
 8003c78:	331c      	adds	r3, #28
 8003c7a:	e7d9      	b.n	8003c30 <RI_GetPtrReg+0x9c>
 8003c7c:	4b03      	ldr	r3, [pc, #12]	@ (8003c8c <RI_GetPtrReg+0xf8>)
 8003c7e:	e7d7      	b.n	8003c30 <RI_GetPtrReg+0x9c>
 8003c80:	2000099c 	.word	0x2000099c
 8003c84:	2000069c 	.word	0x2000069c
 8003c88:	2000009c 	.word	0x2000009c
 8003c8c:	20000094 	.word	0x20000094

08003c90 <RCM_RegisterRegConv>:
 8003c90:	2200      	movs	r2, #0
 8003c92:	23ff      	movs	r3, #255	@ 0xff
 8003c94:	b570      	push	{r4, r5, r6, lr}
 8003c96:	4c1e      	ldr	r4, [pc, #120]	@ (8003d10 <RCM_RegisterRegConv+0x80>)
 8003c98:	0091      	lsls	r1, r2, #2
 8003c9a:	5909      	ldr	r1, [r1, r4]
 8003c9c:	2900      	cmp	r1, #0
 8003c9e:	d00a      	beq.n	8003cb6 <RCM_RegisterRegConv+0x26>
 8003ca0:	790e      	ldrb	r6, [r1, #4]
 8003ca2:	7905      	ldrb	r5, [r0, #4]
 8003ca4:	42ae      	cmp	r6, r5
 8003ca6:	d109      	bne.n	8003cbc <RCM_RegisterRegConv+0x2c>
 8003ca8:	680d      	ldr	r5, [r1, #0]
 8003caa:	6801      	ldr	r1, [r0, #0]
 8003cac:	428d      	cmp	r5, r1
 8003cae:	d105      	bne.n	8003cbc <RCM_RegisterRegConv+0x2c>
 8003cb0:	0013      	movs	r3, r2
 8003cb2:	2204      	movs	r2, #4
 8003cb4:	e002      	b.n	8003cbc <RCM_RegisterRegConv+0x2c>
 8003cb6:	2b04      	cmp	r3, #4
 8003cb8:	d900      	bls.n	8003cbc <RCM_RegisterRegConv+0x2c>
 8003cba:	0013      	movs	r3, r2
 8003cbc:	3201      	adds	r2, #1
 8003cbe:	b2d2      	uxtb	r2, r2
 8003cc0:	2a03      	cmp	r2, #3
 8003cc2:	d9e9      	bls.n	8003c98 <RCM_RegisterRegConv+0x8>
 8003cc4:	2b03      	cmp	r3, #3
 8003cc6:	d820      	bhi.n	8003d0a <RCM_RegisterRegConv+0x7a>
 8003cc8:	009a      	lsls	r2, r3, #2
 8003cca:	50a0      	str	r0, [r4, r2]
 8003ccc:	2400      	movs	r4, #0
 8003cce:	4a11      	ldr	r2, [pc, #68]	@ (8003d14 <RCM_RegisterRegConv+0x84>)
 8003cd0:	00d9      	lsls	r1, r3, #3
 8003cd2:	508c      	str	r4, [r1, r2]
 8003cd4:	6802      	ldr	r2, [r0, #0]
 8003cd6:	6891      	ldr	r1, [r2, #8]
 8003cd8:	07c9      	lsls	r1, r1, #31
 8003cda:	d40e      	bmi.n	8003cfa <RCM_RegisterRegConv+0x6a>
 8003cdc:	2180      	movs	r1, #128	@ 0x80
 8003cde:	6894      	ldr	r4, [r2, #8]
 8003ce0:	4d0d      	ldr	r5, [pc, #52]	@ (8003d18 <RCM_RegisterRegConv+0x88>)
 8003ce2:	0609      	lsls	r1, r1, #24
 8003ce4:	402c      	ands	r4, r5
 8003ce6:	4321      	orrs	r1, r4
 8003ce8:	6091      	str	r1, [r2, #8]
 8003cea:	6891      	ldr	r1, [r2, #8]
 8003cec:	2900      	cmp	r1, #0
 8003cee:	dbfc      	blt.n	8003cea <RCM_RegisterRegConv+0x5a>
 8003cf0:	2101      	movs	r1, #1
 8003cf2:	6894      	ldr	r4, [r2, #8]
 8003cf4:	402c      	ands	r4, r5
 8003cf6:	4321      	orrs	r1, r4
 8003cf8:	6091      	str	r1, [r2, #8]
 8003cfa:	2106      	movs	r1, #6
 8003cfc:	2400      	movs	r4, #0
 8003cfe:	4359      	muls	r1, r3
 8003d00:	4a06      	ldr	r2, [pc, #24]	@ (8003d1c <RCM_RegisterRegConv+0x8c>)
 8003d02:	548c      	strb	r4, [r1, r2]
 8003d04:	1852      	adds	r2, r2, r1
 8003d06:	7153      	strb	r3, [r2, #5]
 8003d08:	7113      	strb	r3, [r2, #4]
 8003d0a:	7303      	strb	r3, [r0, #12]
 8003d0c:	bd70      	pop	{r4, r5, r6, pc}
 8003d0e:	46c0      	nop			@ (mov r8, r8)
 8003d10:	200009e4 	.word	0x200009e4
 8003d14:	200009c4 	.word	0x200009c4
 8003d18:	7fffffe8 	.word	0x7fffffe8
 8003d1c:	200009aa 	.word	0x200009aa

08003d20 <RCM_ExecRegularConv>:
 8003d20:	b5f0      	push	{r4, r5, r6, r7, lr}
 8003d22:	2606      	movs	r6, #6
 8003d24:	0034      	movs	r4, r6
 8003d26:	7b03      	ldrb	r3, [r0, #12]
 8003d28:	4940      	ldr	r1, [pc, #256]	@ (8003e2c <RCM_ExecRegularConv+0x10c>)
 8003d2a:	435c      	muls	r4, r3
 8003d2c:	5c62      	ldrb	r2, [r4, r1]
 8003d2e:	2a00      	cmp	r2, #0
 8003d30:	d132      	bne.n	8003d98 <RCM_ExecRegularConv+0x78>
 8003d32:	2504      	movs	r5, #4
 8003d34:	190c      	adds	r4, r1, r4
 8003d36:	0037      	movs	r7, r6
 8003d38:	4357      	muls	r7, r2
 8003d3a:	5dc8      	ldrb	r0, [r1, r7]
 8003d3c:	2800      	cmp	r0, #0
 8003d3e:	d00a      	beq.n	8003d56 <RCM_ExecRegularConv+0x36>
 8003d40:	19cf      	adds	r7, r1, r7
 8003d42:	7978      	ldrb	r0, [r7, #5]
 8003d44:	4298      	cmp	r0, r3
 8003d46:	d967      	bls.n	8003e18 <RCM_ExecRegularConv+0xf8>
 8003d48:	7122      	strb	r2, [r4, #4]
 8003d4a:	2204      	movs	r2, #4
 8003d4c:	7160      	strb	r0, [r4, #5]
 8003d4e:	4370      	muls	r0, r6
 8003d50:	1808      	adds	r0, r1, r0
 8003d52:	717b      	strb	r3, [r7, #5]
 8003d54:	7103      	strb	r3, [r0, #4]
 8003d56:	3201      	adds	r2, #1
 8003d58:	b2d2      	uxtb	r2, r2
 8003d5a:	2a04      	cmp	r2, #4
 8003d5c:	d161      	bne.n	8003e22 <RCM_ExecRegularConv+0x102>
 8003d5e:	2d04      	cmp	r5, #4
 8003d60:	d05c      	beq.n	8003e1c <RCM_ExecRegularConv+0xfc>
 8003d62:	3202      	adds	r2, #2
 8003d64:	0010      	movs	r0, r2
 8003d66:	0014      	movs	r4, r2
 8003d68:	4368      	muls	r0, r5
 8003d6a:	1808      	adds	r0, r1, r0
 8003d6c:	7946      	ldrb	r6, [r0, #5]
 8003d6e:	435c      	muls	r4, r3
 8003d70:	4372      	muls	r2, r6
 8003d72:	190c      	adds	r4, r1, r4
 8003d74:	188a      	adds	r2, r1, r2
 8003d76:	7166      	strb	r6, [r4, #5]
 8003d78:	7125      	strb	r5, [r4, #4]
 8003d7a:	7143      	strb	r3, [r0, #5]
 8003d7c:	7113      	strb	r3, [r2, #4]
 8003d7e:	2206      	movs	r2, #6
 8003d80:	0010      	movs	r0, r2
 8003d82:	2401      	movs	r4, #1
 8003d84:	4358      	muls	r0, r3
 8003d86:	520c      	strh	r4, [r1, r0]
 8003d88:	4829      	ldr	r0, [pc, #164]	@ (8003e30 <RCM_ExecRegularConv+0x110>)
 8003d8a:	7804      	ldrb	r4, [r0, #0]
 8003d8c:	4362      	muls	r2, r4
 8003d8e:	188a      	adds	r2, r1, r2
 8003d90:	7852      	ldrb	r2, [r2, #1]
 8003d92:	2a01      	cmp	r2, #1
 8003d94:	d000      	beq.n	8003d98 <RCM_ExecRegularConv+0x78>
 8003d96:	7003      	strb	r3, [r0, #0]
 8003d98:	4a26      	ldr	r2, [pc, #152]	@ (8003e34 <RCM_ExecRegularConv+0x114>)
 8003d9a:	7812      	ldrb	r2, [r2, #0]
 8003d9c:	2a00      	cmp	r2, #0
 8003d9e:	d135      	bne.n	8003e0c <RCM_ExecRegularConv+0xec>
 8003da0:	2603      	movs	r6, #3
 8003da2:	4c25      	ldr	r4, [pc, #148]	@ (8003e38 <RCM_ExecRegularConv+0x118>)
 8003da4:	009a      	lsls	r2, r3, #2
 8003da6:	5915      	ldr	r5, [r2, r4]
 8003da8:	682a      	ldr	r2, [r5, #0]
 8003daa:	68d0      	ldr	r0, [r2, #12]
 8003dac:	43b0      	bics	r0, r6
 8003dae:	60d0      	str	r0, [r2, #12]
 8003db0:	68d0      	ldr	r0, [r2, #12]
 8003db2:	4e22      	ldr	r6, [pc, #136]	@ (8003e3c <RCM_ExecRegularConv+0x11c>)
 8003db4:	4030      	ands	r0, r6
 8003db6:	2607      	movs	r6, #7
 8003db8:	60d0      	str	r0, [r2, #12]
 8003dba:	6950      	ldr	r0, [r2, #20]
 8003dbc:	43b0      	bics	r0, r6
 8003dbe:	68ae      	ldr	r6, [r5, #8]
 8003dc0:	4330      	orrs	r0, r6
 8003dc2:	6150      	str	r0, [r2, #20]
 8003dc4:	2080      	movs	r0, #128	@ 0x80
 8003dc6:	792d      	ldrb	r5, [r5, #4]
 8003dc8:	0180      	lsls	r0, r0, #6
 8003dca:	40a8      	lsls	r0, r5
 8003dcc:	2504      	movs	r5, #4
 8003dce:	0b40      	lsrs	r0, r0, #13
 8003dd0:	6290      	str	r0, [r2, #40]	@ 0x28
 8003dd2:	6015      	str	r5, [r2, #0]
 8003dd4:	6890      	ldr	r0, [r2, #8]
 8003dd6:	4e1a      	ldr	r6, [pc, #104]	@ (8003e40 <RCM_ExecRegularConv+0x120>)
 8003dd8:	4030      	ands	r0, r6
 8003dda:	4328      	orrs	r0, r5
 8003ddc:	6090      	str	r0, [r2, #8]
 8003dde:	6810      	ldr	r0, [r2, #0]
 8003de0:	4228      	tst	r0, r5
 8003de2:	d0fc      	beq.n	8003dde <RCM_ExecRegularConv+0xbe>
 8003de4:	6c10      	ldr	r0, [r2, #64]	@ 0x40
 8003de6:	2206      	movs	r2, #6
 8003de8:	435a      	muls	r2, r3
 8003dea:	4d11      	ldr	r5, [pc, #68]	@ (8003e30 <RCM_ExecRegularConv+0x110>)
 8003dec:	188a      	adds	r2, r1, r2
 8003dee:	7829      	ldrb	r1, [r5, #0]
 8003df0:	8050      	strh	r0, [r2, #2]
 8003df2:	0089      	lsls	r1, r1, #2
 8003df4:	5861      	ldr	r1, [r4, r1]
 8003df6:	680c      	ldr	r4, [r1, #0]
 8003df8:	2103      	movs	r1, #3
 8003dfa:	68e0      	ldr	r0, [r4, #12]
 8003dfc:	4388      	bics	r0, r1
 8003dfe:	3902      	subs	r1, #2
 8003e00:	4301      	orrs	r1, r0
 8003e02:	60e1      	str	r1, [r4, #12]
 8003e04:	7951      	ldrb	r1, [r2, #5]
 8003e06:	7029      	strb	r1, [r5, #0]
 8003e08:	2102      	movs	r1, #2
 8003e0a:	7051      	strb	r1, [r2, #1]
 8003e0c:	2106      	movs	r1, #6
 8003e0e:	434b      	muls	r3, r1
 8003e10:	4a06      	ldr	r2, [pc, #24]	@ (8003e2c <RCM_ExecRegularConv+0x10c>)
 8003e12:	18d2      	adds	r2, r2, r3
 8003e14:	8850      	ldrh	r0, [r2, #2]
 8003e16:	bdf0      	pop	{r4, r5, r6, r7, pc}
 8003e18:	0015      	movs	r5, r2
 8003e1a:	e79c      	b.n	8003d56 <RCM_ExecRegularConv+0x36>
 8003e1c:	4a04      	ldr	r2, [pc, #16]	@ (8003e30 <RCM_ExecRegularConv+0x110>)
 8003e1e:	7013      	strb	r3, [r2, #0]
 8003e20:	e7ad      	b.n	8003d7e <RCM_ExecRegularConv+0x5e>
 8003e22:	2a03      	cmp	r2, #3
 8003e24:	d800      	bhi.n	8003e28 <RCM_ExecRegularConv+0x108>
 8003e26:	e786      	b.n	8003d36 <RCM_ExecRegularConv+0x16>
 8003e28:	e7a9      	b.n	8003d7e <RCM_ExecRegularConv+0x5e>
 8003e2a:	46c0      	nop			@ (mov r8, r8)
 8003e2c:	200009aa 	.word	0x200009aa
 8003e30:	200009a8 	.word	0x200009a8
 8003e34:	20000212 	.word	0x20000212
 8003e38:	200009e4 	.word	0x200009e4
 8003e3c:	fffff23f 	.word	0xfffff23f
 8003e40:	7fffffe8 	.word	0x7fffffe8

08003e44 <RCM_ExecUserConv>:
 8003e44:	4b12      	ldr	r3, [pc, #72]	@ (8003e90 <RCM_ExecUserConv+0x4c>)
 8003e46:	b570      	push	{r4, r5, r6, lr}
 8003e48:	681d      	ldr	r5, [r3, #0]
 8003e4a:	2d00      	cmp	r5, #0
 8003e4c:	d01e      	beq.n	8003e8c <RCM_ExecUserConv+0x48>
 8003e4e:	4e11      	ldr	r6, [pc, #68]	@ (8003e94 <RCM_ExecUserConv+0x50>)
 8003e50:	7b2c      	ldrb	r4, [r5, #12]
 8003e52:	7833      	ldrb	r3, [r6, #0]
 8003e54:	2b01      	cmp	r3, #1
 8003e56:	d119      	bne.n	8003e8c <RCM_ExecUserConv+0x48>
 8003e58:	0028      	movs	r0, r5
 8003e5a:	f7ff ff61 	bl	8003d20 <RCM_ExecRegularConv>
 8003e5e:	2206      	movs	r2, #6
 8003e60:	4b0d      	ldr	r3, [pc, #52]	@ (8003e98 <RCM_ExecUserConv+0x54>)
 8003e62:	4362      	muls	r2, r4
 8003e64:	8018      	strh	r0, [r3, #0]
 8003e66:	4b0d      	ldr	r3, [pc, #52]	@ (8003e9c <RCM_ExecUserConv+0x58>)
 8003e68:	0001      	movs	r1, r0
 8003e6a:	189b      	adds	r3, r3, r2
 8003e6c:	785b      	ldrb	r3, [r3, #1]
 8003e6e:	2b00      	cmp	r3, #0
 8003e70:	d001      	beq.n	8003e76 <RCM_ExecUserConv+0x32>
 8003e72:	2302      	movs	r3, #2
 8003e74:	7033      	strb	r3, [r6, #0]
 8003e76:	4a0a      	ldr	r2, [pc, #40]	@ (8003ea0 <RCM_ExecUserConv+0x5c>)
 8003e78:	00e4      	lsls	r4, r4, #3
 8003e7a:	58a3      	ldr	r3, [r4, r2]
 8003e7c:	2b00      	cmp	r3, #0
 8003e7e:	d005      	beq.n	8003e8c <RCM_ExecUserConv+0x48>
 8003e80:	2000      	movs	r0, #0
 8003e82:	1912      	adds	r2, r2, r4
 8003e84:	7030      	strb	r0, [r6, #0]
 8003e86:	6852      	ldr	r2, [r2, #4]
 8003e88:	0028      	movs	r0, r5
 8003e8a:	4798      	blx	r3
 8003e8c:	bd70      	pop	{r4, r5, r6, pc}
 8003e8e:	46c0      	nop			@ (mov r8, r8)
 8003e90:	200009a0 	.word	0x200009a0
 8003e94:	200009a4 	.word	0x200009a4
 8003e98:	200009a6 	.word	0x200009a6
 8003e9c:	200009aa 	.word	0x200009aa
 8003ea0:	200009c4 	.word	0x200009c4

08003ea4 <RCM_ExecNextConv>:
 8003ea4:	2006      	movs	r0, #6
 8003ea6:	b570      	push	{r4, r5, r6, lr}
 8003ea8:	4b14      	ldr	r3, [pc, #80]	@ (8003efc <RCM_ExecNextConv+0x58>)
 8003eaa:	4915      	ldr	r1, [pc, #84]	@ (8003f00 <RCM_ExecNextConv+0x5c>)
 8003eac:	781b      	ldrb	r3, [r3, #0]
 8003eae:	4358      	muls	r0, r3
 8003eb0:	5c42      	ldrb	r2, [r0, r1]
 8003eb2:	2a00      	cmp	r2, #0
 8003eb4:	d021      	beq.n	8003efa <RCM_ExecNextConv+0x56>
 8003eb6:	2404      	movs	r4, #4
 8003eb8:	2603      	movs	r6, #3
 8003eba:	4a12      	ldr	r2, [pc, #72]	@ (8003f04 <RCM_ExecNextConv+0x60>)
 8003ebc:	009b      	lsls	r3, r3, #2
 8003ebe:	589d      	ldr	r5, [r3, r2]
 8003ec0:	1809      	adds	r1, r1, r0
 8003ec2:	682b      	ldr	r3, [r5, #0]
 8003ec4:	601c      	str	r4, [r3, #0]
 8003ec6:	68da      	ldr	r2, [r3, #12]
 8003ec8:	43b2      	bics	r2, r6
 8003eca:	60da      	str	r2, [r3, #12]
 8003ecc:	68da      	ldr	r2, [r3, #12]
 8003ece:	4e0e      	ldr	r6, [pc, #56]	@ (8003f08 <RCM_ExecNextConv+0x64>)
 8003ed0:	4032      	ands	r2, r6
 8003ed2:	2607      	movs	r6, #7
 8003ed4:	60da      	str	r2, [r3, #12]
 8003ed6:	695a      	ldr	r2, [r3, #20]
 8003ed8:	43b2      	bics	r2, r6
 8003eda:	68ae      	ldr	r6, [r5, #8]
 8003edc:	4332      	orrs	r2, r6
 8003ede:	615a      	str	r2, [r3, #20]
 8003ee0:	792a      	ldrb	r2, [r5, #4]
 8003ee2:	2501      	movs	r5, #1
 8003ee4:	002e      	movs	r6, r5
 8003ee6:	4096      	lsls	r6, r2
 8003ee8:	0372      	lsls	r2, r6, #13
 8003eea:	0b52      	lsrs	r2, r2, #13
 8003eec:	629a      	str	r2, [r3, #40]	@ 0x28
 8003eee:	689a      	ldr	r2, [r3, #8]
 8003ef0:	4e06      	ldr	r6, [pc, #24]	@ (8003f0c <RCM_ExecNextConv+0x68>)
 8003ef2:	4032      	ands	r2, r6
 8003ef4:	4314      	orrs	r4, r2
 8003ef6:	609c      	str	r4, [r3, #8]
 8003ef8:	704d      	strb	r5, [r1, #1]
 8003efa:	bd70      	pop	{r4, r5, r6, pc}
 8003efc:	200009a8 	.word	0x200009a8
 8003f00:	200009aa 	.word	0x200009aa
 8003f04:	200009e4 	.word	0x200009e4
 8003f08:	fffff23f 	.word	0xfffff23f
 8003f0c:	7fffffe8 	.word	0x7fffffe8

08003f10 <RCM_ReadOngoingConv>:
 8003f10:	b5f0      	push	{r4, r5, r6, r7, lr}
 8003f12:	4c10      	ldr	r4, [pc, #64]	@ (8003f54 <RCM_ReadOngoingConv+0x44>)
 8003f14:	4b10      	ldr	r3, [pc, #64]	@ (8003f58 <RCM_ReadOngoingConv+0x48>)
 8003f16:	7820      	ldrb	r0, [r4, #0]
 8003f18:	2702      	movs	r7, #2
 8003f1a:	0082      	lsls	r2, r0, #2
 8003f1c:	58d3      	ldr	r3, [r2, r3]
 8003f1e:	4a0f      	ldr	r2, [pc, #60]	@ (8003f5c <RCM_ReadOngoingConv+0x4c>)
 8003f20:	6819      	ldr	r1, [r3, #0]
 8003f22:	2306      	movs	r3, #6
 8003f24:	4343      	muls	r3, r0
 8003f26:	18d3      	adds	r3, r2, r3
 8003f28:	785d      	ldrb	r5, [r3, #1]
 8003f2a:	680e      	ldr	r6, [r1, #0]
 8003f2c:	43bd      	bics	r5, r7
 8003f2e:	d00a      	beq.n	8003f46 <RCM_ReadOngoingConv+0x36>
 8003f30:	0776      	lsls	r6, r6, #29
 8003f32:	d508      	bpl.n	8003f46 <RCM_ReadOngoingConv+0x36>
 8003f34:	6c0d      	ldr	r5, [r1, #64]	@ 0x40
 8003f36:	705f      	strb	r7, [r3, #1]
 8003f38:	805d      	strh	r5, [r3, #2]
 8003f3a:	2303      	movs	r3, #3
 8003f3c:	68cd      	ldr	r5, [r1, #12]
 8003f3e:	439d      	bics	r5, r3
 8003f40:	3b02      	subs	r3, #2
 8003f42:	432b      	orrs	r3, r5
 8003f44:	60cb      	str	r3, [r1, #12]
 8003f46:	2306      	movs	r3, #6
 8003f48:	4343      	muls	r3, r0
 8003f4a:	18d2      	adds	r2, r2, r3
 8003f4c:	7953      	ldrb	r3, [r2, #5]
 8003f4e:	7023      	strb	r3, [r4, #0]
 8003f50:	bdf0      	pop	{r4, r5, r6, r7, pc}
 8003f52:	46c0      	nop			@ (mov r8, r8)
 8003f54:	200009a8 	.word	0x200009a8
 8003f58:	200009e4 	.word	0x200009e4
 8003f5c:	200009aa 	.word	0x200009aa

08003f60 <HAL_MspInit>:
 8003f60:	2101      	movs	r1, #1
 8003f62:	4b0a      	ldr	r3, [pc, #40]	@ (8003f8c <HAL_MspInit+0x2c>)
 8003f64:	b082      	sub	sp, #8
 8003f66:	699a      	ldr	r2, [r3, #24]
 8003f68:	430a      	orrs	r2, r1
 8003f6a:	619a      	str	r2, [r3, #24]
 8003f6c:	699a      	ldr	r2, [r3, #24]
 8003f6e:	400a      	ands	r2, r1
 8003f70:	2180      	movs	r1, #128	@ 0x80
 8003f72:	9200      	str	r2, [sp, #0]
 8003f74:	9a00      	ldr	r2, [sp, #0]
 8003f76:	69da      	ldr	r2, [r3, #28]
 8003f78:	0549      	lsls	r1, r1, #21
 8003f7a:	430a      	orrs	r2, r1
 8003f7c:	61da      	str	r2, [r3, #28]
 8003f7e:	69db      	ldr	r3, [r3, #28]
 8003f80:	400b      	ands	r3, r1
 8003f82:	9301      	str	r3, [sp, #4]
 8003f84:	9b01      	ldr	r3, [sp, #4]
 8003f86:	b002      	add	sp, #8
 8003f88:	4770      	bx	lr
 8003f8a:	46c0      	nop			@ (mov r8, r8)
 8003f8c:	40021000 	.word	0x40021000

08003f90 <HAL_ADC_MspInit>:
 8003f90:	b5f0      	push	{r4, r5, r6, r7, lr}
 8003f92:	0005      	movs	r5, r0
 8003f94:	b089      	sub	sp, #36	@ 0x24
 8003f96:	2214      	movs	r2, #20
 8003f98:	2100      	movs	r1, #0
 8003f9a:	a803      	add	r0, sp, #12
 8003f9c:	f002 fae5 	bl	800656a <memset>
 8003fa0:	4b25      	ldr	r3, [pc, #148]	@ (8004038 <HAL_ADC_MspInit+0xa8>)
 8003fa2:	682a      	ldr	r2, [r5, #0]
 8003fa4:	429a      	cmp	r2, r3
 8003fa6:	d144      	bne.n	8004032 <HAL_ADC_MspInit+0xa2>
 8003fa8:	2180      	movs	r1, #128	@ 0x80
 8003faa:	4b24      	ldr	r3, [pc, #144]	@ (800403c <HAL_ADC_MspInit+0xac>)
 8003fac:	0089      	lsls	r1, r1, #2
 8003fae:	699a      	ldr	r2, [r3, #24]
 8003fb0:	2090      	movs	r0, #144	@ 0x90
 8003fb2:	430a      	orrs	r2, r1
 8003fb4:	619a      	str	r2, [r3, #24]
 8003fb6:	699a      	ldr	r2, [r3, #24]
 8003fb8:	2403      	movs	r4, #3
 8003fba:	400a      	ands	r2, r1
 8003fbc:	2180      	movs	r1, #128	@ 0x80
 8003fbe:	9200      	str	r2, [sp, #0]
 8003fc0:	9a00      	ldr	r2, [sp, #0]
 8003fc2:	695a      	ldr	r2, [r3, #20]
 8003fc4:	0289      	lsls	r1, r1, #10
 8003fc6:	430a      	orrs	r2, r1
 8003fc8:	615a      	str	r2, [r3, #20]
 8003fca:	695a      	ldr	r2, [r3, #20]
 8003fcc:	2720      	movs	r7, #32
 8003fce:	400a      	ands	r2, r1
 8003fd0:	2180      	movs	r1, #128	@ 0x80
 8003fd2:	9201      	str	r2, [sp, #4]
 8003fd4:	9a01      	ldr	r2, [sp, #4]
 8003fd6:	695a      	ldr	r2, [r3, #20]
 8003fd8:	02c9      	lsls	r1, r1, #11
 8003fda:	430a      	orrs	r2, r1
 8003fdc:	615a      	str	r2, [r3, #20]
 8003fde:	695b      	ldr	r3, [r3, #20]
 8003fe0:	05c0      	lsls	r0, r0, #23
 8003fe2:	400b      	ands	r3, r1
 8003fe4:	9302      	str	r3, [sp, #8]
 8003fe6:	a903      	add	r1, sp, #12
 8003fe8:	2600      	movs	r6, #0
 8003fea:	9b02      	ldr	r3, [sp, #8]
 8003fec:	9404      	str	r4, [sp, #16]
 8003fee:	9703      	str	r7, [sp, #12]
 8003ff0:	f000 fcdc 	bl	80049ac <HAL_GPIO_Init>
 8003ff4:	2302      	movs	r3, #2
 8003ff6:	4812      	ldr	r0, [pc, #72]	@ (8004040 <HAL_ADC_MspInit+0xb0>)
 8003ff8:	a903      	add	r1, sp, #12
 8003ffa:	9303      	str	r3, [sp, #12]
 8003ffc:	9404      	str	r4, [sp, #16]
 8003ffe:	9605      	str	r6, [sp, #20]
 8004000:	f000 fcd4 	bl	80049ac <HAL_GPIO_Init>
 8004004:	4c0f      	ldr	r4, [pc, #60]	@ (8004044 <HAL_ADC_MspInit+0xb4>)
 8004006:	4b10      	ldr	r3, [pc, #64]	@ (8004048 <HAL_ADC_MspInit+0xb8>)
 8004008:	0020      	movs	r0, r4
 800400a:	6023      	str	r3, [r4, #0]
 800400c:	2380      	movs	r3, #128	@ 0x80
 800400e:	60e3      	str	r3, [r4, #12]
 8004010:	18db      	adds	r3, r3, r3
 8004012:	6123      	str	r3, [r4, #16]
 8004014:	2380      	movs	r3, #128	@ 0x80
 8004016:	00db      	lsls	r3, r3, #3
 8004018:	6066      	str	r6, [r4, #4]
 800401a:	60a6      	str	r6, [r4, #8]
 800401c:	6163      	str	r3, [r4, #20]
 800401e:	61a7      	str	r7, [r4, #24]
 8004020:	61e6      	str	r6, [r4, #28]
 8004022:	f000 fc91 	bl	8004948 <HAL_DMA_Init>
 8004026:	42b0      	cmp	r0, r6
 8004028:	d001      	beq.n	800402e <HAL_ADC_MspInit+0x9e>
 800402a:	f7fd f875 	bl	8001118 <Error_Handler>
 800402e:	632c      	str	r4, [r5, #48]	@ 0x30
 8004030:	6265      	str	r5, [r4, #36]	@ 0x24
 8004032:	b009      	add	sp, #36	@ 0x24
 8004034:	bdf0      	pop	{r4, r5, r6, r7, pc}
 8004036:	46c0      	nop			@ (mov r8, r8)
 8004038:	40012400 	.word	0x40012400
 800403c:	40021000 	.word	0x40021000
 8004040:	48000400 	.word	0x48000400
 8004044:	20000618 	.word	0x20000618
 8004048:	40020008 	.word	0x40020008

0800404c <HAL_TIM_PWM_MspInit>:
 800404c:	b530      	push	{r4, r5, lr}
 800404e:	0005      	movs	r5, r0
 8004050:	b089      	sub	sp, #36	@ 0x24
 8004052:	2214      	movs	r2, #20
 8004054:	2100      	movs	r1, #0
 8004056:	a803      	add	r0, sp, #12
 8004058:	f002 fa87 	bl	800656a <memset>
 800405c:	4b2f      	ldr	r3, [pc, #188]	@ (800411c <HAL_TIM_PWM_MspInit+0xd0>)
 800405e:	682a      	ldr	r2, [r5, #0]
 8004060:	429a      	cmp	r2, r3
 8004062:	d159      	bne.n	8004118 <HAL_TIM_PWM_MspInit+0xcc>
 8004064:	2180      	movs	r1, #128	@ 0x80
 8004066:	4b2e      	ldr	r3, [pc, #184]	@ (8004120 <HAL_TIM_PWM_MspInit+0xd4>)
 8004068:	0109      	lsls	r1, r1, #4
 800406a:	699a      	ldr	r2, [r3, #24]
 800406c:	482d      	ldr	r0, [pc, #180]	@ (8004124 <HAL_TIM_PWM_MspInit+0xd8>)
 800406e:	430a      	orrs	r2, r1
 8004070:	619a      	str	r2, [r3, #24]
 8004072:	699a      	ldr	r2, [r3, #24]
 8004074:	400a      	ands	r2, r1
 8004076:	2180      	movs	r1, #128	@ 0x80
 8004078:	9201      	str	r2, [sp, #4]
 800407a:	9a01      	ldr	r2, [sp, #4]
 800407c:	695a      	ldr	r2, [r3, #20]
 800407e:	02c9      	lsls	r1, r1, #11
 8004080:	430a      	orrs	r2, r1
 8004082:	615a      	str	r2, [r3, #20]
 8004084:	695b      	ldr	r3, [r3, #20]
 8004086:	2201      	movs	r2, #1
 8004088:	400b      	ands	r3, r1
 800408a:	9302      	str	r3, [sp, #8]
 800408c:	9b02      	ldr	r3, [sp, #8]
 800408e:	2380      	movs	r3, #128	@ 0x80
 8004090:	015b      	lsls	r3, r3, #5
 8004092:	9303      	str	r3, [sp, #12]
 8004094:	2302      	movs	r3, #2
 8004096:	a903      	add	r1, sp, #12
 8004098:	9304      	str	r3, [sp, #16]
 800409a:	9307      	str	r3, [sp, #28]
 800409c:	9205      	str	r2, [sp, #20]
 800409e:	f000 fc85 	bl	80049ac <HAL_GPIO_Init>
 80040a2:	4c21      	ldr	r4, [pc, #132]	@ (8004128 <HAL_TIM_PWM_MspInit+0xdc>)
 80040a4:	4b21      	ldr	r3, [pc, #132]	@ (800412c <HAL_TIM_PWM_MspInit+0xe0>)
 80040a6:	0020      	movs	r0, r4
 80040a8:	6023      	str	r3, [r4, #0]
 80040aa:	2310      	movs	r3, #16
 80040ac:	6063      	str	r3, [r4, #4]
 80040ae:	2300      	movs	r3, #0
 80040b0:	60a3      	str	r3, [r4, #8]
 80040b2:	3380      	adds	r3, #128	@ 0x80
 80040b4:	60e3      	str	r3, [r4, #12]
 80040b6:	3380      	adds	r3, #128	@ 0x80
 80040b8:	6123      	str	r3, [r4, #16]
 80040ba:	2380      	movs	r3, #128	@ 0x80
 80040bc:	00db      	lsls	r3, r3, #3
 80040be:	6163      	str	r3, [r4, #20]
 80040c0:	2320      	movs	r3, #32
 80040c2:	61a3      	str	r3, [r4, #24]
 80040c4:	2380      	movs	r3, #128	@ 0x80
 80040c6:	019b      	lsls	r3, r3, #6
 80040c8:	61e3      	str	r3, [r4, #28]
 80040ca:	f000 fc3d 	bl	8004948 <HAL_DMA_Init>
 80040ce:	2800      	cmp	r0, #0
 80040d0:	d001      	beq.n	80040d6 <HAL_TIM_PWM_MspInit+0x8a>
 80040d2:	f7fd f821 	bl	8001118 <Error_Handler>
 80040d6:	4b16      	ldr	r3, [pc, #88]	@ (8004130 <HAL_TIM_PWM_MspInit+0xe4>)
 80040d8:	632c      	str	r4, [r5, #48]	@ 0x30
 80040da:	6265      	str	r5, [r4, #36]	@ 0x24
 80040dc:	63ac      	str	r4, [r5, #56]	@ 0x38
 80040de:	636c      	str	r4, [r5, #52]	@ 0x34
 80040e0:	4c14      	ldr	r4, [pc, #80]	@ (8004134 <HAL_TIM_PWM_MspInit+0xe8>)
 80040e2:	6023      	str	r3, [r4, #0]
 80040e4:	2310      	movs	r3, #16
 80040e6:	6063      	str	r3, [r4, #4]
 80040e8:	2300      	movs	r3, #0
 80040ea:	60a3      	str	r3, [r4, #8]
 80040ec:	3380      	adds	r3, #128	@ 0x80
 80040ee:	60e3      	str	r3, [r4, #12]
 80040f0:	3380      	adds	r3, #128	@ 0x80
 80040f2:	6123      	str	r3, [r4, #16]
 80040f4:	2380      	movs	r3, #128	@ 0x80
 80040f6:	00db      	lsls	r3, r3, #3
 80040f8:	6163      	str	r3, [r4, #20]
 80040fa:	2320      	movs	r3, #32
 80040fc:	61a3      	str	r3, [r4, #24]
 80040fe:	2380      	movs	r3, #128	@ 0x80
 8004100:	0020      	movs	r0, r4
 8004102:	019b      	lsls	r3, r3, #6
 8004104:	61e3      	str	r3, [r4, #28]
 8004106:	f000 fc1f 	bl	8004948 <HAL_DMA_Init>
 800410a:	2800      	cmp	r0, #0
 800410c:	d001      	beq.n	8004112 <HAL_TIM_PWM_MspInit+0xc6>
 800410e:	f7fd f803 	bl	8001118 <Error_Handler>
 8004112:	622c      	str	r4, [r5, #32]
 8004114:	62ec      	str	r4, [r5, #44]	@ 0x2c
 8004116:	6265      	str	r5, [r4, #36]	@ 0x24
 8004118:	b009      	add	sp, #36	@ 0x24
 800411a:	bd30      	pop	{r4, r5, pc}
 800411c:	40012c00 	.word	0x40012c00
 8004120:	40021000 	.word	0x40021000
 8004124:	48000400 	.word	0x48000400
 8004128:	20000544 	.word	0x20000544
 800412c:	40020044 	.word	0x40020044
 8004130:	40020058 	.word	0x40020058
 8004134:	20000500 	.word	0x20000500

08004138 <HAL_TIM_Encoder_MspInit>:
 8004138:	b510      	push	{r4, lr}
 800413a:	0004      	movs	r4, r0
 800413c:	b088      	sub	sp, #32
 800413e:	2214      	movs	r2, #20
 8004140:	2100      	movs	r1, #0
 8004142:	a803      	add	r0, sp, #12
 8004144:	f002 fa11 	bl	800656a <memset>
 8004148:	2380      	movs	r3, #128	@ 0x80
 800414a:	6822      	ldr	r2, [r4, #0]
 800414c:	05db      	lsls	r3, r3, #23
 800414e:	429a      	cmp	r2, r3
 8004150:	d11b      	bne.n	800418a <HAL_TIM_Encoder_MspInit+0x52>
 8004152:	2101      	movs	r1, #1
 8004154:	4b0e      	ldr	r3, [pc, #56]	@ (8004190 <HAL_TIM_Encoder_MspInit+0x58>)
 8004156:	2090      	movs	r0, #144	@ 0x90
 8004158:	69da      	ldr	r2, [r3, #28]
 800415a:	05c0      	lsls	r0, r0, #23
 800415c:	430a      	orrs	r2, r1
 800415e:	61da      	str	r2, [r3, #28]
 8004160:	69da      	ldr	r2, [r3, #28]
 8004162:	400a      	ands	r2, r1
 8004164:	2180      	movs	r1, #128	@ 0x80
 8004166:	9201      	str	r2, [sp, #4]
 8004168:	9a01      	ldr	r2, [sp, #4]
 800416a:	695a      	ldr	r2, [r3, #20]
 800416c:	0289      	lsls	r1, r1, #10
 800416e:	430a      	orrs	r2, r1
 8004170:	615a      	str	r2, [r3, #20]
 8004172:	695b      	ldr	r3, [r3, #20]
 8004174:	400b      	ands	r3, r1
 8004176:	9302      	str	r3, [sp, #8]
 8004178:	9b02      	ldr	r3, [sp, #8]
 800417a:	2303      	movs	r3, #3
 800417c:	a903      	add	r1, sp, #12
 800417e:	9303      	str	r3, [sp, #12]
 8004180:	3b01      	subs	r3, #1
 8004182:	9304      	str	r3, [sp, #16]
 8004184:	9307      	str	r3, [sp, #28]
 8004186:	f000 fc11 	bl	80049ac <HAL_GPIO_Init>
 800418a:	b008      	add	sp, #32
 800418c:	bd10      	pop	{r4, pc}
 800418e:	46c0      	nop			@ (mov r8, r8)
 8004190:	40021000 	.word	0x40021000

08004194 <HAL_TIM_MspPostInit>:
 8004194:	b570      	push	{r4, r5, r6, lr}
 8004196:	0004      	movs	r4, r0
 8004198:	b088      	sub	sp, #32
 800419a:	2214      	movs	r2, #20
 800419c:	2100      	movs	r1, #0
 800419e:	a803      	add	r0, sp, #12
 80041a0:	f002 f9e3 	bl	800656a <memset>
 80041a4:	4b19      	ldr	r3, [pc, #100]	@ (800420c <HAL_TIM_MspPostInit+0x78>)
 80041a6:	6822      	ldr	r2, [r4, #0]
 80041a8:	429a      	cmp	r2, r3
 80041aa:	d12c      	bne.n	8004206 <HAL_TIM_MspPostInit+0x72>
 80041ac:	2180      	movs	r1, #128	@ 0x80
 80041ae:	4b18      	ldr	r3, [pc, #96]	@ (8004210 <HAL_TIM_MspPostInit+0x7c>)
 80041b0:	02c9      	lsls	r1, r1, #11
 80041b2:	695a      	ldr	r2, [r3, #20]
 80041b4:	2402      	movs	r4, #2
 80041b6:	430a      	orrs	r2, r1
 80041b8:	615a      	str	r2, [r3, #20]
 80041ba:	695a      	ldr	r2, [r3, #20]
 80041bc:	2601      	movs	r6, #1
 80041be:	400a      	ands	r2, r1
 80041c0:	2180      	movs	r1, #128	@ 0x80
 80041c2:	9201      	str	r2, [sp, #4]
 80041c4:	9a01      	ldr	r2, [sp, #4]
 80041c6:	695a      	ldr	r2, [r3, #20]
 80041c8:	0289      	lsls	r1, r1, #10
 80041ca:	430a      	orrs	r2, r1
 80041cc:	615a      	str	r2, [r3, #20]
 80041ce:	695b      	ldr	r3, [r3, #20]
 80041d0:	2503      	movs	r5, #3
 80041d2:	400b      	ands	r3, r1
 80041d4:	9302      	str	r3, [sp, #8]
 80041d6:	9b02      	ldr	r3, [sp, #8]
 80041d8:	23e0      	movs	r3, #224	@ 0xe0
 80041da:	480e      	ldr	r0, [pc, #56]	@ (8004214 <HAL_TIM_MspPostInit+0x80>)
 80041dc:	021b      	lsls	r3, r3, #8
 80041de:	a903      	add	r1, sp, #12
 80041e0:	9303      	str	r3, [sp, #12]
 80041e2:	9404      	str	r4, [sp, #16]
 80041e4:	9605      	str	r6, [sp, #20]
 80041e6:	9506      	str	r5, [sp, #24]
 80041e8:	9407      	str	r4, [sp, #28]
 80041ea:	f000 fbdf 	bl	80049ac <HAL_GPIO_Init>
 80041ee:	23e0      	movs	r3, #224	@ 0xe0
 80041f0:	2090      	movs	r0, #144	@ 0x90
 80041f2:	00db      	lsls	r3, r3, #3
 80041f4:	a903      	add	r1, sp, #12
 80041f6:	05c0      	lsls	r0, r0, #23
 80041f8:	9303      	str	r3, [sp, #12]
 80041fa:	9404      	str	r4, [sp, #16]
 80041fc:	9605      	str	r6, [sp, #20]
 80041fe:	9506      	str	r5, [sp, #24]
 8004200:	9407      	str	r4, [sp, #28]
 8004202:	f000 fbd3 	bl	80049ac <HAL_GPIO_Init>
 8004206:	b008      	add	sp, #32
 8004208:	bd70      	pop	{r4, r5, r6, pc}
 800420a:	46c0      	nop			@ (mov r8, r8)
 800420c:	40012c00 	.word	0x40012c00
 8004210:	40021000 	.word	0x40021000
 8004214:	48000400 	.word	0x48000400

08004218 <HAL_UART_MspInit>:
 8004218:	b530      	push	{r4, r5, lr}
 800421a:	0005      	movs	r5, r0
 800421c:	b089      	sub	sp, #36	@ 0x24
 800421e:	2214      	movs	r2, #20
 8004220:	2100      	movs	r1, #0
 8004222:	a803      	add	r0, sp, #12
 8004224:	f002 f9a1 	bl	800656a <memset>
 8004228:	4b25      	ldr	r3, [pc, #148]	@ (80042c0 <HAL_UART_MspInit+0xa8>)
 800422a:	682a      	ldr	r2, [r5, #0]
 800422c:	429a      	cmp	r2, r3
 800422e:	d145      	bne.n	80042bc <HAL_UART_MspInit+0xa4>
 8004230:	2180      	movs	r1, #128	@ 0x80
 8004232:	4b24      	ldr	r3, [pc, #144]	@ (80042c4 <HAL_UART_MspInit+0xac>)
 8004234:	01c9      	lsls	r1, r1, #7
 8004236:	699a      	ldr	r2, [r3, #24]
 8004238:	4823      	ldr	r0, [pc, #140]	@ (80042c8 <HAL_UART_MspInit+0xb0>)
 800423a:	430a      	orrs	r2, r1
 800423c:	619a      	str	r2, [r3, #24]
 800423e:	699a      	ldr	r2, [r3, #24]
 8004240:	400a      	ands	r2, r1
 8004242:	2180      	movs	r1, #128	@ 0x80
 8004244:	9201      	str	r2, [sp, #4]
 8004246:	9a01      	ldr	r2, [sp, #4]
 8004248:	695a      	ldr	r2, [r3, #20]
 800424a:	02c9      	lsls	r1, r1, #11
 800424c:	430a      	orrs	r2, r1
 800424e:	615a      	str	r2, [r3, #20]
 8004250:	695b      	ldr	r3, [r3, #20]
 8004252:	400b      	ands	r3, r1
 8004254:	9302      	str	r3, [sp, #8]
 8004256:	9b02      	ldr	r3, [sp, #8]
 8004258:	23c0      	movs	r3, #192	@ 0xc0
 800425a:	a903      	add	r1, sp, #12
 800425c:	9303      	str	r3, [sp, #12]
 800425e:	3bbe      	subs	r3, #190	@ 0xbe
 8004260:	9304      	str	r3, [sp, #16]
 8004262:	f000 fba3 	bl	80049ac <HAL_GPIO_Init>
 8004266:	4c19      	ldr	r4, [pc, #100]	@ (80042cc <HAL_UART_MspInit+0xb4>)
 8004268:	4b19      	ldr	r3, [pc, #100]	@ (80042d0 <HAL_UART_MspInit+0xb8>)
 800426a:	2280      	movs	r2, #128	@ 0x80
 800426c:	6023      	str	r3, [r4, #0]
 800426e:	2300      	movs	r3, #0
 8004270:	0020      	movs	r0, r4
 8004272:	6063      	str	r3, [r4, #4]
 8004274:	60a3      	str	r3, [r4, #8]
 8004276:	60e2      	str	r2, [r4, #12]
 8004278:	6123      	str	r3, [r4, #16]
 800427a:	6163      	str	r3, [r4, #20]
 800427c:	61a3      	str	r3, [r4, #24]
 800427e:	61e3      	str	r3, [r4, #28]
 8004280:	f000 fb62 	bl	8004948 <HAL_DMA_Init>
 8004284:	2800      	cmp	r0, #0
 8004286:	d001      	beq.n	800428c <HAL_UART_MspInit+0x74>
 8004288:	f7fc ff46 	bl	8001118 <Error_Handler>
 800428c:	4b11      	ldr	r3, [pc, #68]	@ (80042d4 <HAL_UART_MspInit+0xbc>)
 800428e:	676c      	str	r4, [r5, #116]	@ 0x74
 8004290:	6265      	str	r5, [r4, #36]	@ 0x24
 8004292:	4c11      	ldr	r4, [pc, #68]	@ (80042d8 <HAL_UART_MspInit+0xc0>)
 8004294:	2280      	movs	r2, #128	@ 0x80
 8004296:	6023      	str	r3, [r4, #0]
 8004298:	2310      	movs	r3, #16
 800429a:	6063      	str	r3, [r4, #4]
 800429c:	2300      	movs	r3, #0
 800429e:	0020      	movs	r0, r4
 80042a0:	60a3      	str	r3, [r4, #8]
 80042a2:	60e2      	str	r2, [r4, #12]
 80042a4:	6123      	str	r3, [r4, #16]
 80042a6:	6163      	str	r3, [r4, #20]
 80042a8:	61a3      	str	r3, [r4, #24]
 80042aa:	61e3      	str	r3, [r4, #28]
 80042ac:	f000 fb4c 	bl	8004948 <HAL_DMA_Init>
 80042b0:	2800      	cmp	r0, #0
 80042b2:	d001      	beq.n	80042b8 <HAL_UART_MspInit+0xa0>
 80042b4:	f7fc ff30 	bl	8001118 <Error_Handler>
 80042b8:	672c      	str	r4, [r5, #112]	@ 0x70
 80042ba:	6265      	str	r5, [r4, #36]	@ 0x24
 80042bc:	b009      	add	sp, #36	@ 0x24
 80042be:	bd30      	pop	{r4, r5, pc}
 80042c0:	40013800 	.word	0x40013800
 80042c4:	40021000 	.word	0x40021000
 80042c8:	48000400 	.word	0x48000400
 80042cc:	20000434 	.word	0x20000434
 80042d0:	40020030 	.word	0x40020030
 80042d4:	4002001c 	.word	0x4002001c
 80042d8:	200003f0 	.word	0x200003f0

080042dc <NMI_Handler>:
 80042dc:	e7fe      	b.n	80042dc <NMI_Handler>

080042de <PendSV_Handler>:
 80042de:	4770      	bx	lr

080042e0 <DMA1_Channel1_IRQHandler>:
 80042e0:	2207      	movs	r2, #7
 80042e2:	b510      	push	{r4, lr}
 80042e4:	4b02      	ldr	r3, [pc, #8]	@ (80042f0 <DMA1_Channel1_IRQHandler+0x10>)
 80042e6:	605a      	str	r2, [r3, #4]
 80042e8:	f7fd fbf0 	bl	8001acc <TSK_HighFrequencyTask>
 80042ec:	bd10      	pop	{r4, pc}
 80042ee:	46c0      	nop			@ (mov r8, r8)
 80042f0:	40020000 	.word	0x40020000

080042f4 <TIM1_BRK_UP_TRG_COM_IRQHandler>:
 80042f4:	2301      	movs	r3, #1
 80042f6:	b510      	push	{r4, lr}
 80042f8:	4c0d      	ldr	r4, [pc, #52]	@ (8004330 <TIM1_BRK_UP_TRG_COM_IRQHandler+0x3c>)
 80042fa:	6922      	ldr	r2, [r4, #16]
 80042fc:	421a      	tst	r2, r3
 80042fe:	d008      	beq.n	8004312 <TIM1_BRK_UP_TRG_COM_IRQHandler+0x1e>
 8004300:	68e2      	ldr	r2, [r4, #12]
 8004302:	421a      	tst	r2, r3
 8004304:	d005      	beq.n	8004312 <TIM1_BRK_UP_TRG_COM_IRQHandler+0x1e>
 8004306:	480b      	ldr	r0, [pc, #44]	@ (8004334 <TIM1_BRK_UP_TRG_COM_IRQHandler+0x40>)
 8004308:	f7fe ff4a 	bl	80031a0 <R1_TIM1_UP_IRQHandler>
 800430c:	2302      	movs	r3, #2
 800430e:	425b      	negs	r3, r3
 8004310:	6123      	str	r3, [r4, #16]
 8004312:	2380      	movs	r3, #128	@ 0x80
 8004314:	6922      	ldr	r2, [r4, #16]
 8004316:	421a      	tst	r2, r3
 8004318:	d008      	beq.n	800432c <TIM1_BRK_UP_TRG_COM_IRQHandler+0x38>
 800431a:	68e2      	ldr	r2, [r4, #12]
 800431c:	421a      	tst	r2, r3
 800431e:	d005      	beq.n	800432c <TIM1_BRK_UP_TRG_COM_IRQHandler+0x38>
 8004320:	3b02      	subs	r3, #2
 8004322:	3bff      	subs	r3, #255	@ 0xff
 8004324:	4803      	ldr	r0, [pc, #12]	@ (8004334 <TIM1_BRK_UP_TRG_COM_IRQHandler+0x40>)
 8004326:	6123      	str	r3, [r4, #16]
 8004328:	f7fe f833 	bl	8002392 <PWMC_OCP_Handler>
 800432c:	bd10      	pop	{r4, pc}
 800432e:	46c0      	nop			@ (mov r8, r8)
 8004330:	40012c00 	.word	0x40012c00
 8004334:	20000148 	.word	0x20000148

08004338 <DMA1_Channel4_5_IRQHandler>:
 8004338:	2280      	movs	r2, #128	@ 0x80
 800433a:	4b05      	ldr	r3, [pc, #20]	@ (8004350 <DMA1_Channel4_5_IRQHandler+0x18>)
 800433c:	0292      	lsls	r2, r2, #10
 800433e:	6819      	ldr	r1, [r3, #0]
 8004340:	b510      	push	{r4, lr}
 8004342:	4211      	tst	r1, r2
 8004344:	d003      	beq.n	800434e <DMA1_Channel4_5_IRQHandler+0x16>
 8004346:	4803      	ldr	r0, [pc, #12]	@ (8004354 <DMA1_Channel4_5_IRQHandler+0x1c>)
 8004348:	605a      	str	r2, [r3, #4]
 800434a:	f7fe ff47 	bl	80031dc <R1_DMAx_TC_IRQHandler>
 800434e:	bd10      	pop	{r4, pc}
 8004350:	40020000 	.word	0x40020000
 8004354:	20000148 	.word	0x20000148

08004358 <TIM2_IRQHandler>:
 8004358:	2201      	movs	r2, #1
 800435a:	4807      	ldr	r0, [pc, #28]	@ (8004378 <TIM2_IRQHandler+0x20>)
 800435c:	b510      	push	{r4, lr}
 800435e:	6a03      	ldr	r3, [r0, #32]
 8004360:	68d9      	ldr	r1, [r3, #12]
 8004362:	4211      	tst	r1, r2
 8004364:	d006      	beq.n	8004374 <TIM2_IRQHandler+0x1c>
 8004366:	6919      	ldr	r1, [r3, #16]
 8004368:	4211      	tst	r1, r2
 800436a:	d003      	beq.n	8004374 <TIM2_IRQHandler+0x1c>
 800436c:	3a03      	subs	r2, #3
 800436e:	611a      	str	r2, [r3, #16]
 8004370:	f001 fd00 	bl	8005d74 <ENC_IRQHandler>
 8004374:	bd10      	pop	{r4, pc}
 8004376:	46c0      	nop			@ (mov r8, r8)
 8004378:	20000090 	.word	0x20000090

0800437c <DMA1_Channel2_3_IRQHandler>:
 800437c:	2280      	movs	r2, #128	@ 0x80
 800437e:	4b05      	ldr	r3, [pc, #20]	@ (8004394 <DMA1_Channel2_3_IRQHandler+0x18>)
 8004380:	0092      	lsls	r2, r2, #2
 8004382:	6819      	ldr	r1, [r3, #0]
 8004384:	b510      	push	{r4, lr}
 8004386:	4211      	tst	r1, r2
 8004388:	d003      	beq.n	8004392 <DMA1_Channel2_3_IRQHandler+0x16>
 800438a:	4803      	ldr	r0, [pc, #12]	@ (8004398 <DMA1_Channel2_3_IRQHandler+0x1c>)
 800438c:	605a      	str	r2, [r3, #4]
 800438e:	f7fc fc87 	bl	8000ca0 <ASPEP_HWDataReceivedIT>
 8004392:	bd10      	pop	{r4, pc}
 8004394:	40020000 	.word	0x40020000
 8004398:	2000033c 	.word	0x2000033c

0800439c <USART1_IRQHandler>:
 800439c:	2240      	movs	r2, #64	@ 0x40
 800439e:	b510      	push	{r4, lr}
 80043a0:	4c22      	ldr	r4, [pc, #136]	@ (800442c <USART1_IRQHandler+0x90>)
 80043a2:	69e3      	ldr	r3, [r4, #28]
 80043a4:	4213      	tst	r3, r2
 80043a6:	d008      	beq.n	80043ba <USART1_IRQHandler+0x1e>
 80043a8:	2001      	movs	r0, #1
 80043aa:	4921      	ldr	r1, [pc, #132]	@ (8004430 <USART1_IRQHandler+0x94>)
 80043ac:	680b      	ldr	r3, [r1, #0]
 80043ae:	4383      	bics	r3, r0
 80043b0:	600b      	str	r3, [r1, #0]
 80043b2:	4820      	ldr	r0, [pc, #128]	@ (8004434 <USART1_IRQHandler+0x98>)
 80043b4:	6222      	str	r2, [r4, #32]
 80043b6:	f7fc fb9c 	bl	8000af2 <ASPEP_HWDataTransmittedIT>
 80043ba:	2308      	movs	r3, #8
 80043bc:	69e2      	ldr	r2, [r4, #28]
 80043be:	421a      	tst	r2, r3
 80043c0:	d00b      	beq.n	80043da <USART1_IRQHandler+0x3e>
 80043c2:	6223      	str	r3, [r4, #32]
 80043c4:	f3ef 8210 	mrs	r2, PRIMASK
 80043c8:	3b07      	subs	r3, #7
 80043ca:	f383 8810 	msr	PRIMASK, r3
 80043ce:	6821      	ldr	r1, [r4, #0]
 80043d0:	330f      	adds	r3, #15
 80043d2:	430b      	orrs	r3, r1
 80043d4:	6023      	str	r3, [r4, #0]
 80043d6:	f382 8810 	msr	PRIMASK, r2
 80043da:	2110      	movs	r1, #16
 80043dc:	69e3      	ldr	r3, [r4, #28]
 80043de:	420b      	tst	r3, r1
 80043e0:	d023      	beq.n	800442a <USART1_IRQHandler+0x8e>
 80043e2:	6823      	ldr	r3, [r4, #0]
 80043e4:	420b      	tst	r3, r1
 80043e6:	d020      	beq.n	800442a <USART1_IRQHandler+0x8e>
 80043e8:	f3ef 8010 	mrs	r0, PRIMASK
 80043ec:	2201      	movs	r2, #1
 80043ee:	f382 8810 	msr	PRIMASK, r2
 80043f2:	6823      	ldr	r3, [r4, #0]
 80043f4:	438b      	bics	r3, r1
 80043f6:	6023      	str	r3, [r4, #0]
 80043f8:	f380 8810 	msr	PRIMASK, r0
 80043fc:	f3ef 8010 	mrs	r0, PRIMASK
 8004400:	f382 8810 	msr	PRIMASK, r2
 8004404:	2340      	movs	r3, #64	@ 0x40
 8004406:	68a1      	ldr	r1, [r4, #8]
 8004408:	4399      	bics	r1, r3
 800440a:	60a1      	str	r1, [r4, #8]
 800440c:	f380 8810 	msr	PRIMASK, r0
 8004410:	8ca1      	ldrh	r1, [r4, #36]	@ 0x24
 8004412:	f3ef 8110 	mrs	r1, PRIMASK
 8004416:	f382 8810 	msr	PRIMASK, r2
 800441a:	68a2      	ldr	r2, [r4, #8]
 800441c:	4313      	orrs	r3, r2
 800441e:	60a3      	str	r3, [r4, #8]
 8004420:	f381 8810 	msr	PRIMASK, r1
 8004424:	4803      	ldr	r0, [pc, #12]	@ (8004434 <USART1_IRQHandler+0x98>)
 8004426:	f7fc fc89 	bl	8000d3c <ASPEP_HWDMAReset>
 800442a:	bd10      	pop	{r4, pc}
 800442c:	40013800 	.word	0x40013800
 8004430:	4002001c 	.word	0x4002001c
 8004434:	2000033c 	.word	0x2000033c

08004438 <HardFault_Handler>:
 8004438:	b510      	push	{r4, lr}
 800443a:	f7fd fc49 	bl	8001cd0 <TSK_HardwareFaultTask>
 800443e:	e7fe      	b.n	800443e <HardFault_Handler+0x6>

08004440 <SysTick_Handler>:
 8004440:	b510      	push	{r4, lr}
 8004442:	4c0d      	ldr	r4, [pc, #52]	@ (8004478 <SysTick_Handler+0x38>)
 8004444:	7823      	ldrb	r3, [r4, #0]
 8004446:	2b02      	cmp	r3, #2
 8004448:	d105      	bne.n	8004456 <SysTick_Handler+0x16>
 800444a:	f000 f8ef 	bl	800462c <HAL_IncTick>
 800444e:	f000 fa76 	bl	800493e <HAL_SYSTICK_IRQHandler>
 8004452:	2300      	movs	r3, #0
 8004454:	7023      	strb	r3, [r4, #0]
 8004456:	2280      	movs	r2, #128	@ 0x80
 8004458:	7823      	ldrb	r3, [r4, #0]
 800445a:	0092      	lsls	r2, r2, #2
 800445c:	3301      	adds	r3, #1
 800445e:	7023      	strb	r3, [r4, #0]
 8004460:	4b06      	ldr	r3, [pc, #24]	@ (800447c <SysTick_Handler+0x3c>)
 8004462:	6819      	ldr	r1, [r3, #0]
 8004464:	4211      	tst	r1, r2
 8004466:	d003      	beq.n	8004470 <SysTick_Handler+0x30>
 8004468:	4805      	ldr	r0, [pc, #20]	@ (8004480 <SysTick_Handler+0x40>)
 800446a:	605a      	str	r2, [r3, #4]
 800446c:	f7fc fc18 	bl	8000ca0 <ASPEP_HWDataReceivedIT>
 8004470:	f7fd fc22 	bl	8001cb8 <MC_RunMotorControlTasks>
 8004474:	bd10      	pop	{r4, pc}
 8004476:	46c0      	nop			@ (mov r8, r8)
 8004478:	200003c4 	.word	0x200003c4
 800447c:	40020000 	.word	0x40020000
 8004480:	2000033c 	.word	0x2000033c

08004484 <EXTI4_15_IRQHandler>:
 8004484:	2280      	movs	r2, #128	@ 0x80
 8004486:	4b05      	ldr	r3, [pc, #20]	@ (800449c <EXTI4_15_IRQHandler+0x18>)
 8004488:	0212      	lsls	r2, r2, #8
 800448a:	6959      	ldr	r1, [r3, #20]
 800448c:	b510      	push	{r4, lr}
 800448e:	4211      	tst	r1, r2
 8004490:	d002      	beq.n	8004498 <EXTI4_15_IRQHandler+0x14>
 8004492:	615a      	str	r2, [r3, #20]
 8004494:	f7fd fc2c 	bl	8001cf0 <UI_HandleStartStopButton_cb>
 8004498:	bd10      	pop	{r4, pc}
 800449a:	46c0      	nop			@ (mov r8, r8)
 800449c:	40010400 	.word	0x40010400

080044a0 <UASPEP_DAMCONFIG_TX>:
 80044a0:	2340      	movs	r3, #64	@ 0x40
 80044a2:	6802      	ldr	r2, [r0, #0]
 80044a4:	b530      	push	{r4, r5, lr}
 80044a6:	6213      	str	r3, [r2, #32]
 80044a8:	f3ef 8510 	mrs	r5, PRIMASK
 80044ac:	2401      	movs	r4, #1
 80044ae:	f384 8810 	msr	PRIMASK, r4
 80044b2:	6811      	ldr	r1, [r2, #0]
 80044b4:	4319      	orrs	r1, r3
 80044b6:	6011      	str	r1, [r2, #0]
 80044b8:	f385 8810 	msr	PRIMASK, r5
 80044bc:	6801      	ldr	r1, [r0, #0]
 80044be:	f3ef 8510 	mrs	r5, PRIMASK
 80044c2:	f384 8810 	msr	PRIMASK, r4
 80044c6:	2280      	movs	r2, #128	@ 0x80
 80044c8:	688c      	ldr	r4, [r1, #8]
 80044ca:	4322      	orrs	r2, r4
 80044cc:	608a      	str	r2, [r1, #8]
 80044ce:	f385 8810 	msr	PRIMASK, r5
 80044d2:	6801      	ldr	r1, [r0, #0]
 80044d4:	6905      	ldr	r5, [r0, #16]
 80044d6:	000c      	movs	r4, r1
 80044d8:	4a03      	ldr	r2, [pc, #12]	@ (80044e8 <UASPEP_DAMCONFIG_TX+0x48>)
 80044da:	3428      	adds	r4, #40	@ 0x28
 80044dc:	5cad      	ldrb	r5, [r5, r2]
 80044de:	6882      	ldr	r2, [r0, #8]
 80044e0:	1952      	adds	r2, r2, r5
 80044e2:	6094      	str	r4, [r2, #8]
 80044e4:	620b      	str	r3, [r1, #32]
 80044e6:	bd30      	pop	{r4, r5, pc}
 80044e8:	080069ea 	.word	0x080069ea

080044ec <UASPEP_DAMCONFIG_RX>:
 80044ec:	b530      	push	{r4, r5, lr}
 80044ee:	6802      	ldr	r2, [r0, #0]
 80044f0:	f3ef 8410 	mrs	r4, PRIMASK
 80044f4:	2101      	movs	r1, #1
 80044f6:	f381 8810 	msr	PRIMASK, r1
 80044fa:	6893      	ldr	r3, [r2, #8]
 80044fc:	430b      	orrs	r3, r1
 80044fe:	6093      	str	r3, [r2, #8]
 8004500:	f384 8810 	msr	PRIMASK, r4
 8004504:	6803      	ldr	r3, [r0, #0]
 8004506:	68c5      	ldr	r5, [r0, #12]
 8004508:	001c      	movs	r4, r3
 800450a:	4a09      	ldr	r2, [pc, #36]	@ (8004530 <UASPEP_DAMCONFIG_RX+0x44>)
 800450c:	3424      	adds	r4, #36	@ 0x24
 800450e:	5cad      	ldrb	r5, [r5, r2]
 8004510:	6842      	ldr	r2, [r0, #4]
 8004512:	1952      	adds	r2, r2, r5
 8004514:	6094      	str	r4, [r2, #8]
 8004516:	2240      	movs	r2, #64	@ 0x40
 8004518:	621a      	str	r2, [r3, #32]
 800451a:	f3ef 8010 	mrs	r0, PRIMASK
 800451e:	f381 8810 	msr	PRIMASK, r1
 8004522:	6899      	ldr	r1, [r3, #8]
 8004524:	430a      	orrs	r2, r1
 8004526:	609a      	str	r2, [r3, #8]
 8004528:	f380 8810 	msr	PRIMASK, r0
 800452c:	bd30      	pop	{r4, r5, pc}
 800452e:	46c0      	nop			@ (mov r8, r8)
 8004530:	080069ea 	.word	0x080069ea

08004534 <UASPEP_INIT>:
 8004534:	b510      	push	{r4, lr}
 8004536:	0004      	movs	r4, r0
 8004538:	f7ff ffb2 	bl	80044a0 <UASPEP_DAMCONFIG_TX>
 800453c:	0020      	movs	r0, r4
 800453e:	f7ff ffd5 	bl	80044ec <UASPEP_DAMCONFIG_RX>
 8004542:	bd10      	pop	{r4, pc}

08004544 <UASPEP_SEND_PACKET>:
 8004544:	b530      	push	{r4, r5, lr}
 8004546:	2401      	movs	r4, #1
 8004548:	4b0a      	ldr	r3, [pc, #40]	@ (8004574 <UASPEP_SEND_PACKET+0x30>)
 800454a:	0015      	movs	r5, r2
 800454c:	6902      	ldr	r2, [r0, #16]
 800454e:	5cd2      	ldrb	r2, [r2, r3]
 8004550:	6883      	ldr	r3, [r0, #8]
 8004552:	2000      	movs	r0, #0
 8004554:	189b      	adds	r3, r3, r2
 8004556:	681a      	ldr	r2, [r3, #0]
 8004558:	4222      	tst	r2, r4
 800455a:	d109      	bne.n	8004570 <UASPEP_SEND_PACKET+0x2c>
 800455c:	0020      	movs	r0, r4
 800455e:	60d9      	str	r1, [r3, #12]
 8004560:	685a      	ldr	r2, [r3, #4]
 8004562:	0c12      	lsrs	r2, r2, #16
 8004564:	0412      	lsls	r2, r2, #16
 8004566:	432a      	orrs	r2, r5
 8004568:	605a      	str	r2, [r3, #4]
 800456a:	681a      	ldr	r2, [r3, #0]
 800456c:	4322      	orrs	r2, r4
 800456e:	601a      	str	r2, [r3, #0]
 8004570:	bd30      	pop	{r4, r5, pc}
 8004572:	46c0      	nop			@ (mov r8, r8)
 8004574:	080069ea 	.word	0x080069ea

08004578 <UASPEP_RECEIVE_BUFFER>:
 8004578:	b510      	push	{r4, lr}
 800457a:	4b09      	ldr	r3, [pc, #36]	@ (80045a0 <UASPEP_RECEIVE_BUFFER+0x28>)
 800457c:	68c4      	ldr	r4, [r0, #12]
 800457e:	5ce4      	ldrb	r4, [r4, r3]
 8004580:	6843      	ldr	r3, [r0, #4]
 8004582:	2001      	movs	r0, #1
 8004584:	191b      	adds	r3, r3, r4
 8004586:	681c      	ldr	r4, [r3, #0]
 8004588:	4384      	bics	r4, r0
 800458a:	601c      	str	r4, [r3, #0]
 800458c:	60d9      	str	r1, [r3, #12]
 800458e:	6859      	ldr	r1, [r3, #4]
 8004590:	0c09      	lsrs	r1, r1, #16
 8004592:	0409      	lsls	r1, r1, #16
 8004594:	4311      	orrs	r1, r2
 8004596:	6059      	str	r1, [r3, #4]
 8004598:	681a      	ldr	r2, [r3, #0]
 800459a:	4310      	orrs	r0, r2
 800459c:	6018      	str	r0, [r3, #0]
 800459e:	bd10      	pop	{r4, pc}
 80045a0:	080069ea 	.word	0x080069ea

080045a4 <UASPEP_IDLE_ENABLE>:
 80045a4:	2310      	movs	r3, #16
 80045a6:	6802      	ldr	r2, [r0, #0]
 80045a8:	6213      	str	r3, [r2, #32]
 80045aa:	f3ef 8110 	mrs	r1, PRIMASK
 80045ae:	2001      	movs	r0, #1
 80045b0:	f380 8810 	msr	PRIMASK, r0
 80045b4:	6810      	ldr	r0, [r2, #0]
 80045b6:	4303      	orrs	r3, r0
 80045b8:	6013      	str	r3, [r2, #0]
 80045ba:	f381 8810 	msr	PRIMASK, r1
 80045be:	4770      	bx	lr

080045c0 <SystemInit>:
 80045c0:	4770      	bx	lr
	...

080045c4 <HAL_InitTick>:
 80045c4:	b570      	push	{r4, r5, r6, lr}
 80045c6:	0005      	movs	r5, r0
 80045c8:	20fa      	movs	r0, #250	@ 0xfa
 80045ca:	4b0d      	ldr	r3, [pc, #52]	@ (8004600 <HAL_InitTick+0x3c>)
 80045cc:	0080      	lsls	r0, r0, #2
 80045ce:	7819      	ldrb	r1, [r3, #0]
 80045d0:	f7fb fdae 	bl	8000130 <__udivsi3>
 80045d4:	4c0b      	ldr	r4, [pc, #44]	@ (8004604 <HAL_InitTick+0x40>)
 80045d6:	0001      	movs	r1, r0
 80045d8:	6820      	ldr	r0, [r4, #0]
 80045da:	f7fb fda9 	bl	8000130 <__udivsi3>
 80045de:	f000 f993 	bl	8004908 <HAL_SYSTICK_Config>
 80045e2:	0004      	movs	r4, r0
 80045e4:	2001      	movs	r0, #1
 80045e6:	2c00      	cmp	r4, #0
 80045e8:	d109      	bne.n	80045fe <HAL_InitTick+0x3a>
 80045ea:	2d03      	cmp	r5, #3
 80045ec:	d807      	bhi.n	80045fe <HAL_InitTick+0x3a>
 80045ee:	3802      	subs	r0, #2
 80045f0:	0022      	movs	r2, r4
 80045f2:	0029      	movs	r1, r5
 80045f4:	f000 f952 	bl	800489c <HAL_NVIC_SetPriority>
 80045f8:	0020      	movs	r0, r4
 80045fa:	4b03      	ldr	r3, [pc, #12]	@ (8004608 <HAL_InitTick+0x44>)
 80045fc:	601d      	str	r5, [r3, #0]
 80045fe:	bd70      	pop	{r4, r5, r6, pc}
 8004600:	200003cc 	.word	0x200003cc
 8004604:	200003c8 	.word	0x200003c8
 8004608:	200003d0 	.word	0x200003d0

0800460c <HAL_Init>:
 800460c:	2310      	movs	r3, #16
 800460e:	4a06      	ldr	r2, [pc, #24]	@ (8004628 <HAL_Init+0x1c>)
 8004610:	b510      	push	{r4, lr}
 8004612:	6811      	ldr	r1, [r2, #0]
 8004614:	2002      	movs	r0, #2
 8004616:	430b      	orrs	r3, r1
 8004618:	6013      	str	r3, [r2, #0]
 800461a:	f7ff ffd3 	bl	80045c4 <HAL_InitTick>
 800461e:	f7ff fc9f 	bl	8003f60 <HAL_MspInit>
 8004622:	2000      	movs	r0, #0
 8004624:	bd10      	pop	{r4, pc}
 8004626:	46c0      	nop			@ (mov r8, r8)
 8004628:	40022000 	.word	0x40022000

0800462c <HAL_IncTick>:
 800462c:	4a03      	ldr	r2, [pc, #12]	@ (800463c <HAL_IncTick+0x10>)
 800462e:	4b04      	ldr	r3, [pc, #16]	@ (8004640 <HAL_IncTick+0x14>)
 8004630:	6811      	ldr	r1, [r2, #0]
 8004632:	781b      	ldrb	r3, [r3, #0]
 8004634:	185b      	adds	r3, r3, r1
 8004636:	6013      	str	r3, [r2, #0]
 8004638:	4770      	bx	lr
 800463a:	46c0      	nop			@ (mov r8, r8)
 800463c:	200009f4 	.word	0x200009f4
 8004640:	200003cc 	.word	0x200003cc

08004644 <HAL_GetTick>:
 8004644:	4b01      	ldr	r3, [pc, #4]	@ (800464c <HAL_GetTick+0x8>)
 8004646:	6818      	ldr	r0, [r3, #0]
 8004648:	4770      	bx	lr
 800464a:	46c0      	nop			@ (mov r8, r8)
 800464c:	200009f4 	.word	0x200009f4

08004650 <HAL_ADC_Init>:
 8004650:	b570      	push	{r4, r5, r6, lr}
 8004652:	1e04      	subs	r4, r0, #0
 8004654:	d100      	bne.n	8004658 <HAL_ADC_Init+0x8>
 8004656:	e090      	b.n	800477a <HAL_ADC_Init+0x12a>
 8004658:	6b83      	ldr	r3, [r0, #56]	@ 0x38
 800465a:	2b00      	cmp	r3, #0
 800465c:	d105      	bne.n	800466a <HAL_ADC_Init+0x1a>
 800465e:	0002      	movs	r2, r0
 8004660:	3234      	adds	r2, #52	@ 0x34
 8004662:	63c3      	str	r3, [r0, #60]	@ 0x3c
 8004664:	7013      	strb	r3, [r2, #0]
 8004666:	f7ff fc93 	bl	8003f90 <HAL_ADC_MspInit>
 800466a:	6ba3      	ldr	r3, [r4, #56]	@ 0x38
 800466c:	06db      	lsls	r3, r3, #27
 800466e:	d500      	bpl.n	8004672 <HAL_ADC_Init+0x22>
 8004670:	e085      	b.n	800477e <HAL_ADC_Init+0x12e>
 8004672:	6822      	ldr	r2, [r4, #0]
 8004674:	6893      	ldr	r3, [r2, #8]
 8004676:	075b      	lsls	r3, r3, #29
 8004678:	d500      	bpl.n	800467c <HAL_ADC_Init+0x2c>
 800467a:	e080      	b.n	800477e <HAL_ADC_Init+0x12e>
 800467c:	6ba1      	ldr	r1, [r4, #56]	@ 0x38
 800467e:	4b42      	ldr	r3, [pc, #264]	@ (8004788 <HAL_ADC_Init+0x138>)
 8004680:	4019      	ands	r1, r3
 8004682:	3306      	adds	r3, #6
 8004684:	33ff      	adds	r3, #255	@ 0xff
 8004686:	430b      	orrs	r3, r1
 8004688:	2103      	movs	r1, #3
 800468a:	63a3      	str	r3, [r4, #56]	@ 0x38
 800468c:	6893      	ldr	r3, [r2, #8]
 800468e:	400b      	ands	r3, r1
 8004690:	2b01      	cmp	r3, #1
 8004692:	d105      	bne.n	80046a0 <HAL_ADC_Init+0x50>
 8004694:	6811      	ldr	r1, [r2, #0]
 8004696:	4219      	tst	r1, r3
 8004698:	d10e      	bne.n	80046b8 <HAL_ADC_Init+0x68>
 800469a:	68d3      	ldr	r3, [r2, #12]
 800469c:	041b      	lsls	r3, r3, #16
 800469e:	d40b      	bmi.n	80046b8 <HAL_ADC_Init+0x68>
 80046a0:	2118      	movs	r1, #24
 80046a2:	68d3      	ldr	r3, [r2, #12]
 80046a4:	438b      	bics	r3, r1
 80046a6:	68a1      	ldr	r1, [r4, #8]
 80046a8:	430b      	orrs	r3, r1
 80046aa:	60d3      	str	r3, [r2, #12]
 80046ac:	6913      	ldr	r3, [r2, #16]
 80046ae:	6861      	ldr	r1, [r4, #4]
 80046b0:	009b      	lsls	r3, r3, #2
 80046b2:	089b      	lsrs	r3, r3, #2
 80046b4:	430b      	orrs	r3, r1
 80046b6:	6113      	str	r3, [r2, #16]
 80046b8:	68d3      	ldr	r3, [r2, #12]
 80046ba:	4934      	ldr	r1, [pc, #208]	@ (800478c <HAL_ADC_Init+0x13c>)
 80046bc:	400b      	ands	r3, r1
 80046be:	60d3      	str	r3, [r2, #12]
 80046c0:	7e23      	ldrb	r3, [r4, #24]
 80046c2:	7e60      	ldrb	r0, [r4, #25]
 80046c4:	039b      	lsls	r3, r3, #14
 80046c6:	03c0      	lsls	r0, r0, #15
 80046c8:	4303      	orrs	r3, r0
 80046ca:	7ea1      	ldrb	r1, [r4, #26]
 80046cc:	68e0      	ldr	r0, [r4, #12]
 80046ce:	4303      	orrs	r3, r0
 80046d0:	0348      	lsls	r0, r1, #13
 80046d2:	4303      	orrs	r3, r0
 80046d4:	1d60      	adds	r0, r4, #5
 80046d6:	7fc0      	ldrb	r0, [r0, #31]
 80046d8:	0040      	lsls	r0, r0, #1
 80046da:	4303      	orrs	r3, r0
 80046dc:	6aa0      	ldr	r0, [r4, #40]	@ 0x28
 80046de:	3801      	subs	r0, #1
 80046e0:	1e45      	subs	r5, r0, #1
 80046e2:	41a8      	sbcs	r0, r5
 80046e4:	0300      	lsls	r0, r0, #12
 80046e6:	4303      	orrs	r3, r0
 80046e8:	6920      	ldr	r0, [r4, #16]
 80046ea:	3802      	subs	r0, #2
 80046ec:	4245      	negs	r5, r0
 80046ee:	4168      	adcs	r0, r5
 80046f0:	0080      	lsls	r0, r0, #2
 80046f2:	4303      	orrs	r3, r0
 80046f4:	7ee0      	ldrb	r0, [r4, #27]
 80046f6:	2801      	cmp	r0, #1
 80046f8:	d104      	bne.n	8004704 <HAL_ADC_Init+0xb4>
 80046fa:	2900      	cmp	r1, #0
 80046fc:	d12b      	bne.n	8004756 <HAL_ADC_Init+0x106>
 80046fe:	2180      	movs	r1, #128	@ 0x80
 8004700:	0249      	lsls	r1, r1, #9
 8004702:	430b      	orrs	r3, r1
 8004704:	20c2      	movs	r0, #194	@ 0xc2
 8004706:	69e1      	ldr	r1, [r4, #28]
 8004708:	30ff      	adds	r0, #255	@ 0xff
 800470a:	4281      	cmp	r1, r0
 800470c:	d002      	beq.n	8004714 <HAL_ADC_Init+0xc4>
 800470e:	6a20      	ldr	r0, [r4, #32]
 8004710:	4301      	orrs	r1, r0
 8004712:	430b      	orrs	r3, r1
 8004714:	2080      	movs	r0, #128	@ 0x80
 8004716:	68d1      	ldr	r1, [r2, #12]
 8004718:	0540      	lsls	r0, r0, #21
 800471a:	4319      	orrs	r1, r3
 800471c:	60d1      	str	r1, [r2, #12]
 800471e:	6ae1      	ldr	r1, [r4, #44]	@ 0x2c
 8004720:	4281      	cmp	r1, r0
 8004722:	d002      	beq.n	800472a <HAL_ADC_Init+0xda>
 8004724:	1e48      	subs	r0, r1, #1
 8004726:	2806      	cmp	r0, #6
 8004728:	d807      	bhi.n	800473a <HAL_ADC_Init+0xea>
 800472a:	2507      	movs	r5, #7
 800472c:	6950      	ldr	r0, [r2, #20]
 800472e:	4029      	ands	r1, r5
 8004730:	43a8      	bics	r0, r5
 8004732:	6150      	str	r0, [r2, #20]
 8004734:	6950      	ldr	r0, [r2, #20]
 8004736:	4301      	orrs	r1, r0
 8004738:	6151      	str	r1, [r2, #20]
 800473a:	68d2      	ldr	r2, [r2, #12]
 800473c:	4914      	ldr	r1, [pc, #80]	@ (8004790 <HAL_ADC_Init+0x140>)
 800473e:	400a      	ands	r2, r1
 8004740:	429a      	cmp	r2, r3
 8004742:	d110      	bne.n	8004766 <HAL_ADC_Init+0x116>
 8004744:	2000      	movs	r0, #0
 8004746:	2303      	movs	r3, #3
 8004748:	63e0      	str	r0, [r4, #60]	@ 0x3c
 800474a:	6ba2      	ldr	r2, [r4, #56]	@ 0x38
 800474c:	439a      	bics	r2, r3
 800474e:	3b02      	subs	r3, #2
 8004750:	4313      	orrs	r3, r2
 8004752:	63a3      	str	r3, [r4, #56]	@ 0x38
 8004754:	bd70      	pop	{r4, r5, r6, pc}
 8004756:	2120      	movs	r1, #32
 8004758:	6ba5      	ldr	r5, [r4, #56]	@ 0x38
 800475a:	4329      	orrs	r1, r5
 800475c:	63a1      	str	r1, [r4, #56]	@ 0x38
 800475e:	6be1      	ldr	r1, [r4, #60]	@ 0x3c
 8004760:	4308      	orrs	r0, r1
 8004762:	63e0      	str	r0, [r4, #60]	@ 0x3c
 8004764:	e7ce      	b.n	8004704 <HAL_ADC_Init+0xb4>
 8004766:	2312      	movs	r3, #18
 8004768:	6ba2      	ldr	r2, [r4, #56]	@ 0x38
 800476a:	439a      	bics	r2, r3
 800476c:	3b02      	subs	r3, #2
 800476e:	4313      	orrs	r3, r2
 8004770:	63a3      	str	r3, [r4, #56]	@ 0x38
 8004772:	2301      	movs	r3, #1
 8004774:	6be2      	ldr	r2, [r4, #60]	@ 0x3c
 8004776:	4313      	orrs	r3, r2
 8004778:	63e3      	str	r3, [r4, #60]	@ 0x3c
 800477a:	2001      	movs	r0, #1
 800477c:	e7ea      	b.n	8004754 <HAL_ADC_Init+0x104>
 800477e:	2310      	movs	r3, #16
 8004780:	6ba2      	ldr	r2, [r4, #56]	@ 0x38
 8004782:	4313      	orrs	r3, r2
 8004784:	63a3      	str	r3, [r4, #56]	@ 0x38
 8004786:	e7f8      	b.n	800477a <HAL_ADC_Init+0x12a>
 8004788:	fffffefd 	.word	0xfffffefd
 800478c:	fffe0219 	.word	0xfffe0219
 8004790:	833fffe7 	.word	0x833fffe7

08004794 <HAL_ADC_ConfigChannel>:
 8004794:	b5f7      	push	{r0, r1, r2, r4, r5, r6, r7, lr}
 8004796:	2200      	movs	r2, #0
 8004798:	0004      	movs	r4, r0
 800479a:	9201      	str	r2, [sp, #4]
 800479c:	3434      	adds	r4, #52	@ 0x34
 800479e:	7822      	ldrb	r2, [r4, #0]
 80047a0:	0003      	movs	r3, r0
 80047a2:	6ac5      	ldr	r5, [r0, #44]	@ 0x2c
 80047a4:	2002      	movs	r0, #2
 80047a6:	2a01      	cmp	r2, #1
 80047a8:	d02a      	beq.n	8004800 <HAL_ADC_ConfigChannel+0x6c>
 80047aa:	3801      	subs	r0, #1
 80047ac:	7020      	strb	r0, [r4, #0]
 80047ae:	681a      	ldr	r2, [r3, #0]
 80047b0:	6896      	ldr	r6, [r2, #8]
 80047b2:	0776      	lsls	r6, r6, #29
 80047b4:	d45e      	bmi.n	8004874 <HAL_ADC_ConfigChannel+0xe0>
 80047b6:	680b      	ldr	r3, [r1, #0]
 80047b8:	684f      	ldr	r7, [r1, #4]
 80047ba:	001e      	movs	r6, r3
 80047bc:	46bc      	mov	ip, r7
 80047be:	4f30      	ldr	r7, [pc, #192]	@ (8004880 <HAL_ADC_ConfigChannel+0xec>)
 80047c0:	4098      	lsls	r0, r3
 80047c2:	3e10      	subs	r6, #16
 80047c4:	45bc      	cmp	ip, r7
 80047c6:	d03f      	beq.n	8004848 <HAL_ADC_ConfigChannel+0xb4>
 80047c8:	6a97      	ldr	r7, [r2, #40]	@ 0x28
 80047ca:	4338      	orrs	r0, r7
 80047cc:	6290      	str	r0, [r2, #40]	@ 0x28
 80047ce:	2080      	movs	r0, #128	@ 0x80
 80047d0:	0540      	lsls	r0, r0, #21
 80047d2:	4285      	cmp	r5, r0
 80047d4:	d00f      	beq.n	80047f6 <HAL_ADC_ConfigChannel+0x62>
 80047d6:	3d01      	subs	r5, #1
 80047d8:	2d06      	cmp	r5, #6
 80047da:	d90c      	bls.n	80047f6 <HAL_ADC_ConfigChannel+0x62>
 80047dc:	2007      	movs	r0, #7
 80047de:	6955      	ldr	r5, [r2, #20]
 80047e0:	6889      	ldr	r1, [r1, #8]
 80047e2:	4005      	ands	r5, r0
 80047e4:	42a9      	cmp	r1, r5
 80047e6:	d006      	beq.n	80047f6 <HAL_ADC_ConfigChannel+0x62>
 80047e8:	6955      	ldr	r5, [r2, #20]
 80047ea:	4001      	ands	r1, r0
 80047ec:	4385      	bics	r5, r0
 80047ee:	6155      	str	r5, [r2, #20]
 80047f0:	6955      	ldr	r5, [r2, #20]
 80047f2:	4329      	orrs	r1, r5
 80047f4:	6151      	str	r1, [r2, #20]
 80047f6:	2e02      	cmp	r6, #2
 80047f8:	d903      	bls.n	8004802 <HAL_ADC_ConfigChannel+0x6e>
 80047fa:	2000      	movs	r0, #0
 80047fc:	2300      	movs	r3, #0
 80047fe:	7023      	strb	r3, [r4, #0]
 8004800:	bdfe      	pop	{r1, r2, r3, r4, r5, r6, r7, pc}
 8004802:	4820      	ldr	r0, [pc, #128]	@ (8004884 <HAL_ADC_ConfigChannel+0xf0>)
 8004804:	6801      	ldr	r1, [r0, #0]
 8004806:	2b10      	cmp	r3, #16
 8004808:	d01b      	beq.n	8004842 <HAL_ADC_ConfigChannel+0xae>
 800480a:	001a      	movs	r2, r3
 800480c:	3a11      	subs	r2, #17
 800480e:	4255      	negs	r5, r2
 8004810:	416a      	adcs	r2, r5
 8004812:	4d1d      	ldr	r5, [pc, #116]	@ (8004888 <HAL_ADC_ConfigChannel+0xf4>)
 8004814:	4252      	negs	r2, r2
 8004816:	402a      	ands	r2, r5
 8004818:	2580      	movs	r5, #128	@ 0x80
 800481a:	046d      	lsls	r5, r5, #17
 800481c:	1952      	adds	r2, r2, r5
 800481e:	430a      	orrs	r2, r1
 8004820:	6002      	str	r2, [r0, #0]
 8004822:	2b10      	cmp	r3, #16
 8004824:	d1e9      	bne.n	80047fa <HAL_ADC_ConfigChannel+0x66>
 8004826:	4b19      	ldr	r3, [pc, #100]	@ (800488c <HAL_ADC_ConfigChannel+0xf8>)
 8004828:	4919      	ldr	r1, [pc, #100]	@ (8004890 <HAL_ADC_ConfigChannel+0xfc>)
 800482a:	6818      	ldr	r0, [r3, #0]
 800482c:	f7fb fc80 	bl	8000130 <__udivsi3>
 8004830:	230a      	movs	r3, #10
 8004832:	4343      	muls	r3, r0
 8004834:	9301      	str	r3, [sp, #4]
 8004836:	9b01      	ldr	r3, [sp, #4]
 8004838:	2b00      	cmp	r3, #0
 800483a:	d0de      	beq.n	80047fa <HAL_ADC_ConfigChannel+0x66>
 800483c:	9b01      	ldr	r3, [sp, #4]
 800483e:	3b01      	subs	r3, #1
 8004840:	e7f8      	b.n	8004834 <HAL_ADC_ConfigChannel+0xa0>
 8004842:	2280      	movs	r2, #128	@ 0x80
 8004844:	0412      	lsls	r2, r2, #16
 8004846:	e7ea      	b.n	800481e <HAL_ADC_ConfigChannel+0x8a>
 8004848:	6a91      	ldr	r1, [r2, #40]	@ 0x28
 800484a:	4381      	bics	r1, r0
 800484c:	6291      	str	r1, [r2, #40]	@ 0x28
 800484e:	2e02      	cmp	r6, #2
 8004850:	d8d3      	bhi.n	80047fa <HAL_ADC_ConfigChannel+0x66>
 8004852:	4a0c      	ldr	r2, [pc, #48]	@ (8004884 <HAL_ADC_ConfigChannel+0xf0>)
 8004854:	6811      	ldr	r1, [r2, #0]
 8004856:	2b10      	cmp	r3, #16
 8004858:	d00a      	beq.n	8004870 <HAL_ADC_ConfigChannel+0xdc>
 800485a:	3b11      	subs	r3, #17
 800485c:	1e58      	subs	r0, r3, #1
 800485e:	4183      	sbcs	r3, r0
 8004860:	4809      	ldr	r0, [pc, #36]	@ (8004888 <HAL_ADC_ConfigChannel+0xf4>)
 8004862:	425b      	negs	r3, r3
 8004864:	4003      	ands	r3, r0
 8004866:	480b      	ldr	r0, [pc, #44]	@ (8004894 <HAL_ADC_ConfigChannel+0x100>)
 8004868:	181b      	adds	r3, r3, r0
 800486a:	400b      	ands	r3, r1
 800486c:	6013      	str	r3, [r2, #0]
 800486e:	e7c4      	b.n	80047fa <HAL_ADC_ConfigChannel+0x66>
 8004870:	4b09      	ldr	r3, [pc, #36]	@ (8004898 <HAL_ADC_ConfigChannel+0x104>)
 8004872:	e7fa      	b.n	800486a <HAL_ADC_ConfigChannel+0xd6>
 8004874:	2220      	movs	r2, #32
 8004876:	6b99      	ldr	r1, [r3, #56]	@ 0x38
 8004878:	430a      	orrs	r2, r1
 800487a:	639a      	str	r2, [r3, #56]	@ 0x38
 800487c:	e7be      	b.n	80047fc <HAL_ADC_ConfigChannel+0x68>
 800487e:	46c0      	nop			@ (mov r8, r8)
 8004880:	00001001 	.word	0x00001001
 8004884:	40012708 	.word	0x40012708
 8004888:	ff400000 	.word	0xff400000
 800488c:	200003c8 	.word	0x200003c8
 8004890:	000f4240 	.word	0x000f4240
 8004894:	ffbfffff 	.word	0xffbfffff
 8004898:	ff7fffff 	.word	0xff7fffff

0800489c <HAL_NVIC_SetPriority>:
 800489c:	b510      	push	{r4, lr}
 800489e:	24ff      	movs	r4, #255	@ 0xff
 80048a0:	2203      	movs	r2, #3
 80048a2:	000b      	movs	r3, r1
 80048a4:	0021      	movs	r1, r4
 80048a6:	4002      	ands	r2, r0
 80048a8:	00d2      	lsls	r2, r2, #3
 80048aa:	4091      	lsls	r1, r2
 80048ac:	019b      	lsls	r3, r3, #6
 80048ae:	4023      	ands	r3, r4
 80048b0:	43c9      	mvns	r1, r1
 80048b2:	4093      	lsls	r3, r2
 80048b4:	2800      	cmp	r0, #0
 80048b6:	db0a      	blt.n	80048ce <HAL_NVIC_SetPriority+0x32>
 80048b8:	24c0      	movs	r4, #192	@ 0xc0
 80048ba:	4a0b      	ldr	r2, [pc, #44]	@ (80048e8 <HAL_NVIC_SetPriority+0x4c>)
 80048bc:	0880      	lsrs	r0, r0, #2
 80048be:	0080      	lsls	r0, r0, #2
 80048c0:	1880      	adds	r0, r0, r2
 80048c2:	00a4      	lsls	r4, r4, #2
 80048c4:	5902      	ldr	r2, [r0, r4]
 80048c6:	400a      	ands	r2, r1
 80048c8:	4313      	orrs	r3, r2
 80048ca:	5103      	str	r3, [r0, r4]
 80048cc:	bd10      	pop	{r4, pc}
 80048ce:	220f      	movs	r2, #15
 80048d0:	4010      	ands	r0, r2
 80048d2:	3808      	subs	r0, #8
 80048d4:	4a05      	ldr	r2, [pc, #20]	@ (80048ec <HAL_NVIC_SetPriority+0x50>)
 80048d6:	0880      	lsrs	r0, r0, #2
 80048d8:	0080      	lsls	r0, r0, #2
 80048da:	1880      	adds	r0, r0, r2
 80048dc:	69c2      	ldr	r2, [r0, #28]
 80048de:	4011      	ands	r1, r2
 80048e0:	4319      	orrs	r1, r3
 80048e2:	61c1      	str	r1, [r0, #28]
 80048e4:	e7f2      	b.n	80048cc <HAL_NVIC_SetPriority+0x30>
 80048e6:	46c0      	nop			@ (mov r8, r8)
 80048e8:	e000e100 	.word	0xe000e100
 80048ec:	e000ed00 	.word	0xe000ed00

080048f0 <HAL_NVIC_EnableIRQ>:
 80048f0:	2800      	cmp	r0, #0
 80048f2:	db05      	blt.n	8004900 <HAL_NVIC_EnableIRQ+0x10>
 80048f4:	231f      	movs	r3, #31
 80048f6:	4018      	ands	r0, r3
 80048f8:	3b1e      	subs	r3, #30
 80048fa:	4083      	lsls	r3, r0
 80048fc:	4a01      	ldr	r2, [pc, #4]	@ (8004904 <HAL_NVIC_EnableIRQ+0x14>)
 80048fe:	6013      	str	r3, [r2, #0]
 8004900:	4770      	bx	lr
 8004902:	46c0      	nop			@ (mov r8, r8)
 8004904:	e000e100 	.word	0xe000e100

08004908 <HAL_SYSTICK_Config>:
 8004908:	2280      	movs	r2, #128	@ 0x80
 800490a:	1e43      	subs	r3, r0, #1
 800490c:	0452      	lsls	r2, r2, #17
 800490e:	2001      	movs	r0, #1
 8004910:	4293      	cmp	r3, r2
 8004912:	d20d      	bcs.n	8004930 <HAL_SYSTICK_Config+0x28>
 8004914:	21c0      	movs	r1, #192	@ 0xc0
 8004916:	4a07      	ldr	r2, [pc, #28]	@ (8004934 <HAL_SYSTICK_Config+0x2c>)
 8004918:	4807      	ldr	r0, [pc, #28]	@ (8004938 <HAL_SYSTICK_Config+0x30>)
 800491a:	6053      	str	r3, [r2, #4]
 800491c:	6a03      	ldr	r3, [r0, #32]
 800491e:	0609      	lsls	r1, r1, #24
 8004920:	021b      	lsls	r3, r3, #8
 8004922:	0a1b      	lsrs	r3, r3, #8
 8004924:	430b      	orrs	r3, r1
 8004926:	6203      	str	r3, [r0, #32]
 8004928:	2000      	movs	r0, #0
 800492a:	2307      	movs	r3, #7
 800492c:	6090      	str	r0, [r2, #8]
 800492e:	6013      	str	r3, [r2, #0]
 8004930:	4770      	bx	lr
 8004932:	46c0      	nop			@ (mov r8, r8)
 8004934:	e000e010 	.word	0xe000e010
 8004938:	e000ed00 	.word	0xe000ed00

0800493c <HAL_SYSTICK_Callback>:
 800493c:	4770      	bx	lr

0800493e <HAL_SYSTICK_IRQHandler>:
 800493e:	b510      	push	{r4, lr}
 8004940:	f7ff fffc 	bl	800493c <HAL_SYSTICK_Callback>
 8004944:	bd10      	pop	{r4, pc}
	...

08004948 <HAL_DMA_Init>:
 8004948:	b570      	push	{r4, r5, r6, lr}
 800494a:	0004      	movs	r4, r0
 800494c:	2001      	movs	r0, #1
 800494e:	2c00      	cmp	r4, #0
 8004950:	d024      	beq.n	800499c <HAL_DMA_Init+0x54>
 8004952:	2302      	movs	r3, #2
 8004954:	1ca5      	adds	r5, r4, #2
 8004956:	77eb      	strb	r3, [r5, #31]
 8004958:	6820      	ldr	r0, [r4, #0]
 800495a:	4b11      	ldr	r3, [pc, #68]	@ (80049a0 <HAL_DMA_Init+0x58>)
 800495c:	6802      	ldr	r2, [r0, #0]
 800495e:	68a1      	ldr	r1, [r4, #8]
 8004960:	401a      	ands	r2, r3
 8004962:	6863      	ldr	r3, [r4, #4]
 8004964:	430b      	orrs	r3, r1
 8004966:	68e1      	ldr	r1, [r4, #12]
 8004968:	430b      	orrs	r3, r1
 800496a:	6921      	ldr	r1, [r4, #16]
 800496c:	430b      	orrs	r3, r1
 800496e:	6961      	ldr	r1, [r4, #20]
 8004970:	430b      	orrs	r3, r1
 8004972:	69a1      	ldr	r1, [r4, #24]
 8004974:	430b      	orrs	r3, r1
 8004976:	69e1      	ldr	r1, [r4, #28]
 8004978:	430b      	orrs	r3, r1
 800497a:	4313      	orrs	r3, r2
 800497c:	6003      	str	r3, [r0, #0]
 800497e:	4b09      	ldr	r3, [pc, #36]	@ (80049a4 <HAL_DMA_Init+0x5c>)
 8004980:	2114      	movs	r1, #20
 8004982:	18c0      	adds	r0, r0, r3
 8004984:	f7fb fbd4 	bl	8000130 <__udivsi3>
 8004988:	4b07      	ldr	r3, [pc, #28]	@ (80049a8 <HAL_DMA_Init+0x60>)
 800498a:	0080      	lsls	r0, r0, #2
 800498c:	6420      	str	r0, [r4, #64]	@ 0x40
 800498e:	63e3      	str	r3, [r4, #60]	@ 0x3c
 8004990:	2000      	movs	r0, #0
 8004992:	2301      	movs	r3, #1
 8004994:	63a0      	str	r0, [r4, #56]	@ 0x38
 8004996:	18e4      	adds	r4, r4, r3
 8004998:	77eb      	strb	r3, [r5, #31]
 800499a:	77e0      	strb	r0, [r4, #31]
 800499c:	bd70      	pop	{r4, r5, r6, pc}
 800499e:	46c0      	nop			@ (mov r8, r8)
 80049a0:	ffffc00f 	.word	0xffffc00f
 80049a4:	bffdfff8 	.word	0xbffdfff8
 80049a8:	40020000 	.word	0x40020000

080049ac <HAL_GPIO_Init>:
 80049ac:	2300      	movs	r3, #0
 80049ae:	b5f0      	push	{r4, r5, r6, r7, lr}
 80049b0:	b087      	sub	sp, #28
 80049b2:	680a      	ldr	r2, [r1, #0]
 80049b4:	0014      	movs	r4, r2
 80049b6:	40dc      	lsrs	r4, r3
 80049b8:	d101      	bne.n	80049be <HAL_GPIO_Init+0x12>
 80049ba:	b007      	add	sp, #28
 80049bc:	bdf0      	pop	{r4, r5, r6, r7, pc}
 80049be:	2501      	movs	r5, #1
 80049c0:	0014      	movs	r4, r2
 80049c2:	409d      	lsls	r5, r3
 80049c4:	402c      	ands	r4, r5
 80049c6:	9400      	str	r4, [sp, #0]
 80049c8:	422a      	tst	r2, r5
 80049ca:	d100      	bne.n	80049ce <HAL_GPIO_Init+0x22>
 80049cc:	e094      	b.n	8004af8 <HAL_GPIO_Init+0x14c>
 80049ce:	684a      	ldr	r2, [r1, #4]
 80049d0:	005f      	lsls	r7, r3, #1
 80049d2:	4694      	mov	ip, r2
 80049d4:	2203      	movs	r2, #3
 80049d6:	4664      	mov	r4, ip
 80049d8:	4022      	ands	r2, r4
 80049da:	2403      	movs	r4, #3
 80049dc:	40bc      	lsls	r4, r7
 80049de:	43e4      	mvns	r4, r4
 80049e0:	9401      	str	r4, [sp, #4]
 80049e2:	1e54      	subs	r4, r2, #1
 80049e4:	2c01      	cmp	r4, #1
 80049e6:	d82e      	bhi.n	8004a46 <HAL_GPIO_Init+0x9a>
 80049e8:	6886      	ldr	r6, [r0, #8]
 80049ea:	9c01      	ldr	r4, [sp, #4]
 80049ec:	4026      	ands	r6, r4
 80049ee:	68cc      	ldr	r4, [r1, #12]
 80049f0:	40bc      	lsls	r4, r7
 80049f2:	4334      	orrs	r4, r6
 80049f4:	6084      	str	r4, [r0, #8]
 80049f6:	6844      	ldr	r4, [r0, #4]
 80049f8:	2601      	movs	r6, #1
 80049fa:	43ac      	bics	r4, r5
 80049fc:	0025      	movs	r5, r4
 80049fe:	4664      	mov	r4, ip
 8004a00:	0924      	lsrs	r4, r4, #4
 8004a02:	4034      	ands	r4, r6
 8004a04:	409c      	lsls	r4, r3
 8004a06:	432c      	orrs	r4, r5
 8004a08:	6044      	str	r4, [r0, #4]
 8004a0a:	68c5      	ldr	r5, [r0, #12]
 8004a0c:	9c01      	ldr	r4, [sp, #4]
 8004a0e:	4025      	ands	r5, r4
 8004a10:	688c      	ldr	r4, [r1, #8]
 8004a12:	40bc      	lsls	r4, r7
 8004a14:	432c      	orrs	r4, r5
 8004a16:	60c4      	str	r4, [r0, #12]
 8004a18:	2a02      	cmp	r2, #2
 8004a1a:	d116      	bne.n	8004a4a <HAL_GPIO_Init+0x9e>
 8004a1c:	2507      	movs	r5, #7
 8004a1e:	260f      	movs	r6, #15
 8004a20:	401d      	ands	r5, r3
 8004a22:	00ad      	lsls	r5, r5, #2
 8004a24:	40ae      	lsls	r6, r5
 8004a26:	08dc      	lsrs	r4, r3, #3
 8004a28:	00a4      	lsls	r4, r4, #2
 8004a2a:	1904      	adds	r4, r0, r4
 8004a2c:	9402      	str	r4, [sp, #8]
 8004a2e:	6a24      	ldr	r4, [r4, #32]
 8004a30:	9603      	str	r6, [sp, #12]
 8004a32:	0026      	movs	r6, r4
 8004a34:	9c03      	ldr	r4, [sp, #12]
 8004a36:	43a6      	bics	r6, r4
 8004a38:	0034      	movs	r4, r6
 8004a3a:	690e      	ldr	r6, [r1, #16]
 8004a3c:	40ae      	lsls	r6, r5
 8004a3e:	4326      	orrs	r6, r4
 8004a40:	9c02      	ldr	r4, [sp, #8]
 8004a42:	6226      	str	r6, [r4, #32]
 8004a44:	e001      	b.n	8004a4a <HAL_GPIO_Init+0x9e>
 8004a46:	2a03      	cmp	r2, #3
 8004a48:	d1df      	bne.n	8004a0a <HAL_GPIO_Init+0x5e>
 8004a4a:	40ba      	lsls	r2, r7
 8004a4c:	6804      	ldr	r4, [r0, #0]
 8004a4e:	9d01      	ldr	r5, [sp, #4]
 8004a50:	4025      	ands	r5, r4
 8004a52:	432a      	orrs	r2, r5
 8004a54:	24c0      	movs	r4, #192	@ 0xc0
 8004a56:	6002      	str	r2, [r0, #0]
 8004a58:	4662      	mov	r2, ip
 8004a5a:	02a4      	lsls	r4, r4, #10
 8004a5c:	4222      	tst	r2, r4
 8004a5e:	d04b      	beq.n	8004af8 <HAL_GPIO_Init+0x14c>
 8004a60:	2501      	movs	r5, #1
 8004a62:	4a26      	ldr	r2, [pc, #152]	@ (8004afc <HAL_GPIO_Init+0x150>)
 8004a64:	2790      	movs	r7, #144	@ 0x90
 8004a66:	6994      	ldr	r4, [r2, #24]
 8004a68:	05ff      	lsls	r7, r7, #23
 8004a6a:	432c      	orrs	r4, r5
 8004a6c:	6194      	str	r4, [r2, #24]
 8004a6e:	6992      	ldr	r2, [r2, #24]
 8004a70:	089c      	lsrs	r4, r3, #2
 8004a72:	402a      	ands	r2, r5
 8004a74:	9205      	str	r2, [sp, #20]
 8004a76:	9a05      	ldr	r2, [sp, #20]
 8004a78:	4a21      	ldr	r2, [pc, #132]	@ (8004b00 <HAL_GPIO_Init+0x154>)
 8004a7a:	00a4      	lsls	r4, r4, #2
 8004a7c:	18a4      	adds	r4, r4, r2
 8004a7e:	220f      	movs	r2, #15
 8004a80:	3502      	adds	r5, #2
 8004a82:	401d      	ands	r5, r3
 8004a84:	00ad      	lsls	r5, r5, #2
 8004a86:	40aa      	lsls	r2, r5
 8004a88:	68a6      	ldr	r6, [r4, #8]
 8004a8a:	4396      	bics	r6, r2
 8004a8c:	2200      	movs	r2, #0
 8004a8e:	42b8      	cmp	r0, r7
 8004a90:	d008      	beq.n	8004aa4 <HAL_GPIO_Init+0xf8>
 8004a92:	4f1c      	ldr	r7, [pc, #112]	@ (8004b04 <HAL_GPIO_Init+0x158>)
 8004a94:	3201      	adds	r2, #1
 8004a96:	42b8      	cmp	r0, r7
 8004a98:	d004      	beq.n	8004aa4 <HAL_GPIO_Init+0xf8>
 8004a9a:	4f1b      	ldr	r7, [pc, #108]	@ (8004b08 <HAL_GPIO_Init+0x15c>)
 8004a9c:	3204      	adds	r2, #4
 8004a9e:	42b8      	cmp	r0, r7
 8004aa0:	d100      	bne.n	8004aa4 <HAL_GPIO_Init+0xf8>
 8004aa2:	3a03      	subs	r2, #3
 8004aa4:	40aa      	lsls	r2, r5
 8004aa6:	4667      	mov	r7, ip
 8004aa8:	4332      	orrs	r2, r6
 8004aaa:	60a2      	str	r2, [r4, #8]
 8004aac:	4a17      	ldr	r2, [pc, #92]	@ (8004b0c <HAL_GPIO_Init+0x160>)
 8004aae:	9c00      	ldr	r4, [sp, #0]
 8004ab0:	6896      	ldr	r6, [r2, #8]
 8004ab2:	9d00      	ldr	r5, [sp, #0]
 8004ab4:	43e4      	mvns	r4, r4
 8004ab6:	4335      	orrs	r5, r6
 8004ab8:	02ff      	lsls	r7, r7, #11
 8004aba:	d401      	bmi.n	8004ac0 <HAL_GPIO_Init+0x114>
 8004abc:	0035      	movs	r5, r6
 8004abe:	4025      	ands	r5, r4
 8004ac0:	4667      	mov	r7, ip
 8004ac2:	6095      	str	r5, [r2, #8]
 8004ac4:	68d6      	ldr	r6, [r2, #12]
 8004ac6:	9d00      	ldr	r5, [sp, #0]
 8004ac8:	4335      	orrs	r5, r6
 8004aca:	02bf      	lsls	r7, r7, #10
 8004acc:	d401      	bmi.n	8004ad2 <HAL_GPIO_Init+0x126>
 8004ace:	0035      	movs	r5, r6
 8004ad0:	4025      	ands	r5, r4
 8004ad2:	4667      	mov	r7, ip
 8004ad4:	60d5      	str	r5, [r2, #12]
 8004ad6:	6856      	ldr	r6, [r2, #4]
 8004ad8:	9d00      	ldr	r5, [sp, #0]
 8004ada:	4335      	orrs	r5, r6
 8004adc:	03bf      	lsls	r7, r7, #14
 8004ade:	d401      	bmi.n	8004ae4 <HAL_GPIO_Init+0x138>
 8004ae0:	0035      	movs	r5, r6
 8004ae2:	4025      	ands	r5, r4
 8004ae4:	4667      	mov	r7, ip
 8004ae6:	6055      	str	r5, [r2, #4]
 8004ae8:	6815      	ldr	r5, [r2, #0]
 8004aea:	9e00      	ldr	r6, [sp, #0]
 8004aec:	432e      	orrs	r6, r5
 8004aee:	03ff      	lsls	r7, r7, #15
 8004af0:	d401      	bmi.n	8004af6 <HAL_GPIO_Init+0x14a>
 8004af2:	4025      	ands	r5, r4
 8004af4:	002e      	movs	r6, r5
 8004af6:	6016      	str	r6, [r2, #0]
 8004af8:	3301      	adds	r3, #1
 8004afa:	e75a      	b.n	80049b2 <HAL_GPIO_Init+0x6>
 8004afc:	40021000 	.word	0x40021000
 8004b00:	40010000 	.word	0x40010000
 8004b04:	48000400 	.word	0x48000400
 8004b08:	48000800 	.word	0x48000800
 8004b0c:	40010400 	.word	0x40010400

08004b10 <HAL_GPIO_WritePin>:
 8004b10:	2a00      	cmp	r2, #0
 8004b12:	d001      	beq.n	8004b18 <HAL_GPIO_WritePin+0x8>
 8004b14:	6181      	str	r1, [r0, #24]
 8004b16:	4770      	bx	lr
 8004b18:	6281      	str	r1, [r0, #40]	@ 0x28
 8004b1a:	e7fc      	b.n	8004b16 <HAL_GPIO_WritePin+0x6>

08004b1c <HAL_RCC_OscConfig>:
 8004b1c:	b5f0      	push	{r4, r5, r6, r7, lr}
 8004b1e:	0004      	movs	r4, r0
 8004b20:	b085      	sub	sp, #20
 8004b22:	2800      	cmp	r0, #0
 8004b24:	d045      	beq.n	8004bb2 <HAL_RCC_OscConfig+0x96>
 8004b26:	6803      	ldr	r3, [r0, #0]
 8004b28:	07db      	lsls	r3, r3, #31
 8004b2a:	d42f      	bmi.n	8004b8c <HAL_RCC_OscConfig+0x70>
 8004b2c:	6823      	ldr	r3, [r4, #0]
 8004b2e:	079b      	lsls	r3, r3, #30
 8004b30:	d500      	bpl.n	8004b34 <HAL_RCC_OscConfig+0x18>
 8004b32:	e081      	b.n	8004c38 <HAL_RCC_OscConfig+0x11c>
 8004b34:	6823      	ldr	r3, [r4, #0]
 8004b36:	071b      	lsls	r3, r3, #28
 8004b38:	d500      	bpl.n	8004b3c <HAL_RCC_OscConfig+0x20>
 8004b3a:	e0bc      	b.n	8004cb6 <HAL_RCC_OscConfig+0x19a>
 8004b3c:	6823      	ldr	r3, [r4, #0]
 8004b3e:	075b      	lsls	r3, r3, #29
 8004b40:	d500      	bpl.n	8004b44 <HAL_RCC_OscConfig+0x28>
 8004b42:	e0df      	b.n	8004d04 <HAL_RCC_OscConfig+0x1e8>
 8004b44:	6823      	ldr	r3, [r4, #0]
 8004b46:	06db      	lsls	r3, r3, #27
 8004b48:	d51a      	bpl.n	8004b80 <HAL_RCC_OscConfig+0x64>
 8004b4a:	6962      	ldr	r2, [r4, #20]
 8004b4c:	2304      	movs	r3, #4
 8004b4e:	4db4      	ldr	r5, [pc, #720]	@ (8004e20 <HAL_RCC_OscConfig+0x304>)
 8004b50:	2a01      	cmp	r2, #1
 8004b52:	d000      	beq.n	8004b56 <HAL_RCC_OscConfig+0x3a>
 8004b54:	e148      	b.n	8004de8 <HAL_RCC_OscConfig+0x2cc>
 8004b56:	6b69      	ldr	r1, [r5, #52]	@ 0x34
 8004b58:	2702      	movs	r7, #2
 8004b5a:	430b      	orrs	r3, r1
 8004b5c:	636b      	str	r3, [r5, #52]	@ 0x34
 8004b5e:	6b6b      	ldr	r3, [r5, #52]	@ 0x34
 8004b60:	431a      	orrs	r2, r3
 8004b62:	636a      	str	r2, [r5, #52]	@ 0x34
 8004b64:	f7ff fd6e 	bl	8004644 <HAL_GetTick>
 8004b68:	0006      	movs	r6, r0
 8004b6a:	6b6b      	ldr	r3, [r5, #52]	@ 0x34
 8004b6c:	423b      	tst	r3, r7
 8004b6e:	d100      	bne.n	8004b72 <HAL_RCC_OscConfig+0x56>
 8004b70:	e133      	b.n	8004dda <HAL_RCC_OscConfig+0x2be>
 8004b72:	21f8      	movs	r1, #248	@ 0xf8
 8004b74:	6b6a      	ldr	r2, [r5, #52]	@ 0x34
 8004b76:	69a3      	ldr	r3, [r4, #24]
 8004b78:	438a      	bics	r2, r1
 8004b7a:	00db      	lsls	r3, r3, #3
 8004b7c:	4313      	orrs	r3, r2
 8004b7e:	636b      	str	r3, [r5, #52]	@ 0x34
 8004b80:	6a23      	ldr	r3, [r4, #32]
 8004b82:	2b00      	cmp	r3, #0
 8004b84:	d000      	beq.n	8004b88 <HAL_RCC_OscConfig+0x6c>
 8004b86:	e157      	b.n	8004e38 <HAL_RCC_OscConfig+0x31c>
 8004b88:	2000      	movs	r0, #0
 8004b8a:	e02a      	b.n	8004be2 <HAL_RCC_OscConfig+0xc6>
 8004b8c:	220c      	movs	r2, #12
 8004b8e:	4da4      	ldr	r5, [pc, #656]	@ (8004e20 <HAL_RCC_OscConfig+0x304>)
 8004b90:	686b      	ldr	r3, [r5, #4]
 8004b92:	4013      	ands	r3, r2
 8004b94:	2b04      	cmp	r3, #4
 8004b96:	d006      	beq.n	8004ba6 <HAL_RCC_OscConfig+0x8a>
 8004b98:	686b      	ldr	r3, [r5, #4]
 8004b9a:	4013      	ands	r3, r2
 8004b9c:	2b08      	cmp	r3, #8
 8004b9e:	d10a      	bne.n	8004bb6 <HAL_RCC_OscConfig+0x9a>
 8004ba0:	686b      	ldr	r3, [r5, #4]
 8004ba2:	03db      	lsls	r3, r3, #15
 8004ba4:	d507      	bpl.n	8004bb6 <HAL_RCC_OscConfig+0x9a>
 8004ba6:	682b      	ldr	r3, [r5, #0]
 8004ba8:	039b      	lsls	r3, r3, #14
 8004baa:	d5bf      	bpl.n	8004b2c <HAL_RCC_OscConfig+0x10>
 8004bac:	6863      	ldr	r3, [r4, #4]
 8004bae:	2b00      	cmp	r3, #0
 8004bb0:	d1bc      	bne.n	8004b2c <HAL_RCC_OscConfig+0x10>
 8004bb2:	2001      	movs	r0, #1
 8004bb4:	e015      	b.n	8004be2 <HAL_RCC_OscConfig+0xc6>
 8004bb6:	6863      	ldr	r3, [r4, #4]
 8004bb8:	2b01      	cmp	r3, #1
 8004bba:	d114      	bne.n	8004be6 <HAL_RCC_OscConfig+0xca>
 8004bbc:	2380      	movs	r3, #128	@ 0x80
 8004bbe:	682a      	ldr	r2, [r5, #0]
 8004bc0:	025b      	lsls	r3, r3, #9
 8004bc2:	4313      	orrs	r3, r2
 8004bc4:	602b      	str	r3, [r5, #0]
 8004bc6:	f7ff fd3d 	bl	8004644 <HAL_GetTick>
 8004bca:	2780      	movs	r7, #128	@ 0x80
 8004bcc:	0006      	movs	r6, r0
 8004bce:	02bf      	lsls	r7, r7, #10
 8004bd0:	682b      	ldr	r3, [r5, #0]
 8004bd2:	423b      	tst	r3, r7
 8004bd4:	d1aa      	bne.n	8004b2c <HAL_RCC_OscConfig+0x10>
 8004bd6:	f7ff fd35 	bl	8004644 <HAL_GetTick>
 8004bda:	1b80      	subs	r0, r0, r6
 8004bdc:	2864      	cmp	r0, #100	@ 0x64
 8004bde:	d9f7      	bls.n	8004bd0 <HAL_RCC_OscConfig+0xb4>
 8004be0:	2003      	movs	r0, #3
 8004be2:	b005      	add	sp, #20
 8004be4:	bdf0      	pop	{r4, r5, r6, r7, pc}
 8004be6:	2b00      	cmp	r3, #0
 8004be8:	d116      	bne.n	8004c18 <HAL_RCC_OscConfig+0xfc>
 8004bea:	682b      	ldr	r3, [r5, #0]
 8004bec:	4a8d      	ldr	r2, [pc, #564]	@ (8004e24 <HAL_RCC_OscConfig+0x308>)
 8004bee:	2780      	movs	r7, #128	@ 0x80
 8004bf0:	4013      	ands	r3, r2
 8004bf2:	602b      	str	r3, [r5, #0]
 8004bf4:	682b      	ldr	r3, [r5, #0]
 8004bf6:	4a8c      	ldr	r2, [pc, #560]	@ (8004e28 <HAL_RCC_OscConfig+0x30c>)
 8004bf8:	02bf      	lsls	r7, r7, #10
 8004bfa:	4013      	ands	r3, r2
 8004bfc:	602b      	str	r3, [r5, #0]
 8004bfe:	f7ff fd21 	bl	8004644 <HAL_GetTick>
 8004c02:	0006      	movs	r6, r0
 8004c04:	682b      	ldr	r3, [r5, #0]
 8004c06:	423b      	tst	r3, r7
 8004c08:	d100      	bne.n	8004c0c <HAL_RCC_OscConfig+0xf0>
 8004c0a:	e78f      	b.n	8004b2c <HAL_RCC_OscConfig+0x10>
 8004c0c:	f7ff fd1a 	bl	8004644 <HAL_GetTick>
 8004c10:	1b80      	subs	r0, r0, r6
 8004c12:	2864      	cmp	r0, #100	@ 0x64
 8004c14:	d9f6      	bls.n	8004c04 <HAL_RCC_OscConfig+0xe8>
 8004c16:	e7e3      	b.n	8004be0 <HAL_RCC_OscConfig+0xc4>
 8004c18:	2b05      	cmp	r3, #5
 8004c1a:	d105      	bne.n	8004c28 <HAL_RCC_OscConfig+0x10c>
 8004c1c:	2380      	movs	r3, #128	@ 0x80
 8004c1e:	682a      	ldr	r2, [r5, #0]
 8004c20:	02db      	lsls	r3, r3, #11
 8004c22:	4313      	orrs	r3, r2
 8004c24:	602b      	str	r3, [r5, #0]
 8004c26:	e7c9      	b.n	8004bbc <HAL_RCC_OscConfig+0xa0>
 8004c28:	682b      	ldr	r3, [r5, #0]
 8004c2a:	4a7e      	ldr	r2, [pc, #504]	@ (8004e24 <HAL_RCC_OscConfig+0x308>)
 8004c2c:	4013      	ands	r3, r2
 8004c2e:	602b      	str	r3, [r5, #0]
 8004c30:	682b      	ldr	r3, [r5, #0]
 8004c32:	4a7d      	ldr	r2, [pc, #500]	@ (8004e28 <HAL_RCC_OscConfig+0x30c>)
 8004c34:	4013      	ands	r3, r2
 8004c36:	e7c5      	b.n	8004bc4 <HAL_RCC_OscConfig+0xa8>
 8004c38:	220c      	movs	r2, #12
 8004c3a:	4d79      	ldr	r5, [pc, #484]	@ (8004e20 <HAL_RCC_OscConfig+0x304>)
 8004c3c:	686b      	ldr	r3, [r5, #4]
 8004c3e:	4213      	tst	r3, r2
 8004c40:	d006      	beq.n	8004c50 <HAL_RCC_OscConfig+0x134>
 8004c42:	686b      	ldr	r3, [r5, #4]
 8004c44:	4013      	ands	r3, r2
 8004c46:	2b08      	cmp	r3, #8
 8004c48:	d110      	bne.n	8004c6c <HAL_RCC_OscConfig+0x150>
 8004c4a:	686b      	ldr	r3, [r5, #4]
 8004c4c:	03db      	lsls	r3, r3, #15
 8004c4e:	d40d      	bmi.n	8004c6c <HAL_RCC_OscConfig+0x150>
 8004c50:	682b      	ldr	r3, [r5, #0]
 8004c52:	079b      	lsls	r3, r3, #30
 8004c54:	d502      	bpl.n	8004c5c <HAL_RCC_OscConfig+0x140>
 8004c56:	68e3      	ldr	r3, [r4, #12]
 8004c58:	2b01      	cmp	r3, #1
 8004c5a:	d1aa      	bne.n	8004bb2 <HAL_RCC_OscConfig+0x96>
 8004c5c:	21f8      	movs	r1, #248	@ 0xf8
 8004c5e:	682a      	ldr	r2, [r5, #0]
 8004c60:	6923      	ldr	r3, [r4, #16]
 8004c62:	438a      	bics	r2, r1
 8004c64:	00db      	lsls	r3, r3, #3
 8004c66:	4313      	orrs	r3, r2
 8004c68:	602b      	str	r3, [r5, #0]
 8004c6a:	e763      	b.n	8004b34 <HAL_RCC_OscConfig+0x18>
 8004c6c:	68e2      	ldr	r2, [r4, #12]
 8004c6e:	2301      	movs	r3, #1
 8004c70:	2a00      	cmp	r2, #0
 8004c72:	d00f      	beq.n	8004c94 <HAL_RCC_OscConfig+0x178>
 8004c74:	682a      	ldr	r2, [r5, #0]
 8004c76:	2702      	movs	r7, #2
 8004c78:	4313      	orrs	r3, r2
 8004c7a:	602b      	str	r3, [r5, #0]
 8004c7c:	f7ff fce2 	bl	8004644 <HAL_GetTick>
 8004c80:	0006      	movs	r6, r0
 8004c82:	682b      	ldr	r3, [r5, #0]
 8004c84:	423b      	tst	r3, r7
 8004c86:	d1e9      	bne.n	8004c5c <HAL_RCC_OscConfig+0x140>
 8004c88:	f7ff fcdc 	bl	8004644 <HAL_GetTick>
 8004c8c:	1b80      	subs	r0, r0, r6
 8004c8e:	2802      	cmp	r0, #2
 8004c90:	d9f7      	bls.n	8004c82 <HAL_RCC_OscConfig+0x166>
 8004c92:	e7a5      	b.n	8004be0 <HAL_RCC_OscConfig+0xc4>
 8004c94:	682a      	ldr	r2, [r5, #0]
 8004c96:	2702      	movs	r7, #2
 8004c98:	439a      	bics	r2, r3
 8004c9a:	602a      	str	r2, [r5, #0]
 8004c9c:	f7ff fcd2 	bl	8004644 <HAL_GetTick>
 8004ca0:	0006      	movs	r6, r0
 8004ca2:	682b      	ldr	r3, [r5, #0]
 8004ca4:	423b      	tst	r3, r7
 8004ca6:	d100      	bne.n	8004caa <HAL_RCC_OscConfig+0x18e>
 8004ca8:	e744      	b.n	8004b34 <HAL_RCC_OscConfig+0x18>
 8004caa:	f7ff fccb 	bl	8004644 <HAL_GetTick>
 8004cae:	1b80      	subs	r0, r0, r6
 8004cb0:	2802      	cmp	r0, #2
 8004cb2:	d9f6      	bls.n	8004ca2 <HAL_RCC_OscConfig+0x186>
 8004cb4:	e794      	b.n	8004be0 <HAL_RCC_OscConfig+0xc4>
 8004cb6:	69e2      	ldr	r2, [r4, #28]
 8004cb8:	2301      	movs	r3, #1
 8004cba:	4d59      	ldr	r5, [pc, #356]	@ (8004e20 <HAL_RCC_OscConfig+0x304>)
 8004cbc:	2a00      	cmp	r2, #0
 8004cbe:	d010      	beq.n	8004ce2 <HAL_RCC_OscConfig+0x1c6>
 8004cc0:	6a6a      	ldr	r2, [r5, #36]	@ 0x24
 8004cc2:	2702      	movs	r7, #2
 8004cc4:	4313      	orrs	r3, r2
 8004cc6:	626b      	str	r3, [r5, #36]	@ 0x24
 8004cc8:	f7ff fcbc 	bl	8004644 <HAL_GetTick>
 8004ccc:	0006      	movs	r6, r0
 8004cce:	6a6b      	ldr	r3, [r5, #36]	@ 0x24
 8004cd0:	423b      	tst	r3, r7
 8004cd2:	d000      	beq.n	8004cd6 <HAL_RCC_OscConfig+0x1ba>
 8004cd4:	e732      	b.n	8004b3c <HAL_RCC_OscConfig+0x20>
 8004cd6:	f7ff fcb5 	bl	8004644 <HAL_GetTick>
 8004cda:	1b80      	subs	r0, r0, r6
 8004cdc:	2802      	cmp	r0, #2
 8004cde:	d9f6      	bls.n	8004cce <HAL_RCC_OscConfig+0x1b2>
 8004ce0:	e77e      	b.n	8004be0 <HAL_RCC_OscConfig+0xc4>
 8004ce2:	6a6a      	ldr	r2, [r5, #36]	@ 0x24
 8004ce4:	2702      	movs	r7, #2
 8004ce6:	439a      	bics	r2, r3
 8004ce8:	626a      	str	r2, [r5, #36]	@ 0x24
 8004cea:	f7ff fcab 	bl	8004644 <HAL_GetTick>
 8004cee:	0006      	movs	r6, r0
 8004cf0:	6a6b      	ldr	r3, [r5, #36]	@ 0x24
 8004cf2:	423b      	tst	r3, r7
 8004cf4:	d100      	bne.n	8004cf8 <HAL_RCC_OscConfig+0x1dc>
 8004cf6:	e721      	b.n	8004b3c <HAL_RCC_OscConfig+0x20>
 8004cf8:	f7ff fca4 	bl	8004644 <HAL_GetTick>
 8004cfc:	1b80      	subs	r0, r0, r6
 8004cfe:	2802      	cmp	r0, #2
 8004d00:	d9f6      	bls.n	8004cf0 <HAL_RCC_OscConfig+0x1d4>
 8004d02:	e76d      	b.n	8004be0 <HAL_RCC_OscConfig+0xc4>
 8004d04:	2280      	movs	r2, #128	@ 0x80
 8004d06:	2100      	movs	r1, #0
 8004d08:	4d45      	ldr	r5, [pc, #276]	@ (8004e20 <HAL_RCC_OscConfig+0x304>)
 8004d0a:	0552      	lsls	r2, r2, #21
 8004d0c:	69eb      	ldr	r3, [r5, #28]
 8004d0e:	9100      	str	r1, [sp, #0]
 8004d10:	4213      	tst	r3, r2
 8004d12:	d108      	bne.n	8004d26 <HAL_RCC_OscConfig+0x20a>
 8004d14:	69eb      	ldr	r3, [r5, #28]
 8004d16:	4313      	orrs	r3, r2
 8004d18:	61eb      	str	r3, [r5, #28]
 8004d1a:	69eb      	ldr	r3, [r5, #28]
 8004d1c:	4013      	ands	r3, r2
 8004d1e:	9303      	str	r3, [sp, #12]
 8004d20:	9b03      	ldr	r3, [sp, #12]
 8004d22:	2301      	movs	r3, #1
 8004d24:	9300      	str	r3, [sp, #0]
 8004d26:	2780      	movs	r7, #128	@ 0x80
 8004d28:	4e40      	ldr	r6, [pc, #256]	@ (8004e2c <HAL_RCC_OscConfig+0x310>)
 8004d2a:	007f      	lsls	r7, r7, #1
 8004d2c:	6833      	ldr	r3, [r6, #0]
 8004d2e:	423b      	tst	r3, r7
 8004d30:	d015      	beq.n	8004d5e <HAL_RCC_OscConfig+0x242>
 8004d32:	68a3      	ldr	r3, [r4, #8]
 8004d34:	2b01      	cmp	r3, #1
 8004d36:	d122      	bne.n	8004d7e <HAL_RCC_OscConfig+0x262>
 8004d38:	6a2a      	ldr	r2, [r5, #32]
 8004d3a:	4313      	orrs	r3, r2
 8004d3c:	622b      	str	r3, [r5, #32]
 8004d3e:	f7ff fc81 	bl	8004644 <HAL_GetTick>
 8004d42:	2702      	movs	r7, #2
 8004d44:	0006      	movs	r6, r0
 8004d46:	6a2b      	ldr	r3, [r5, #32]
 8004d48:	423b      	tst	r3, r7
 8004d4a:	d03f      	beq.n	8004dcc <HAL_RCC_OscConfig+0x2b0>
 8004d4c:	9b00      	ldr	r3, [sp, #0]
 8004d4e:	2b01      	cmp	r3, #1
 8004d50:	d000      	beq.n	8004d54 <HAL_RCC_OscConfig+0x238>
 8004d52:	e6f7      	b.n	8004b44 <HAL_RCC_OscConfig+0x28>
 8004d54:	69eb      	ldr	r3, [r5, #28]
 8004d56:	4a36      	ldr	r2, [pc, #216]	@ (8004e30 <HAL_RCC_OscConfig+0x314>)
 8004d58:	4013      	ands	r3, r2
 8004d5a:	61eb      	str	r3, [r5, #28]
 8004d5c:	e6f2      	b.n	8004b44 <HAL_RCC_OscConfig+0x28>
 8004d5e:	6833      	ldr	r3, [r6, #0]
 8004d60:	433b      	orrs	r3, r7
 8004d62:	6033      	str	r3, [r6, #0]
 8004d64:	f7ff fc6e 	bl	8004644 <HAL_GetTick>
 8004d68:	9001      	str	r0, [sp, #4]
 8004d6a:	6833      	ldr	r3, [r6, #0]
 8004d6c:	423b      	tst	r3, r7
 8004d6e:	d1e0      	bne.n	8004d32 <HAL_RCC_OscConfig+0x216>
 8004d70:	f7ff fc68 	bl	8004644 <HAL_GetTick>
 8004d74:	9b01      	ldr	r3, [sp, #4]
 8004d76:	1ac0      	subs	r0, r0, r3
 8004d78:	2864      	cmp	r0, #100	@ 0x64
 8004d7a:	d9f6      	bls.n	8004d6a <HAL_RCC_OscConfig+0x24e>
 8004d7c:	e730      	b.n	8004be0 <HAL_RCC_OscConfig+0xc4>
 8004d7e:	2201      	movs	r2, #1
 8004d80:	2b00      	cmp	r3, #0
 8004d82:	d114      	bne.n	8004dae <HAL_RCC_OscConfig+0x292>
 8004d84:	6a2b      	ldr	r3, [r5, #32]
 8004d86:	2702      	movs	r7, #2
 8004d88:	4393      	bics	r3, r2
 8004d8a:	622b      	str	r3, [r5, #32]
 8004d8c:	6a2b      	ldr	r3, [r5, #32]
 8004d8e:	3203      	adds	r2, #3
 8004d90:	4393      	bics	r3, r2
 8004d92:	622b      	str	r3, [r5, #32]
 8004d94:	f7ff fc56 	bl	8004644 <HAL_GetTick>
 8004d98:	0006      	movs	r6, r0
 8004d9a:	6a2b      	ldr	r3, [r5, #32]
 8004d9c:	423b      	tst	r3, r7
 8004d9e:	d0d5      	beq.n	8004d4c <HAL_RCC_OscConfig+0x230>
 8004da0:	f7ff fc50 	bl	8004644 <HAL_GetTick>
 8004da4:	4b23      	ldr	r3, [pc, #140]	@ (8004e34 <HAL_RCC_OscConfig+0x318>)
 8004da6:	1b80      	subs	r0, r0, r6
 8004da8:	4298      	cmp	r0, r3
 8004daa:	d9f6      	bls.n	8004d9a <HAL_RCC_OscConfig+0x27e>
 8004dac:	e718      	b.n	8004be0 <HAL_RCC_OscConfig+0xc4>
 8004dae:	2b05      	cmp	r3, #5
 8004db0:	d105      	bne.n	8004dbe <HAL_RCC_OscConfig+0x2a2>
 8004db2:	6a29      	ldr	r1, [r5, #32]
 8004db4:	3b01      	subs	r3, #1
 8004db6:	430b      	orrs	r3, r1
 8004db8:	622b      	str	r3, [r5, #32]
 8004dba:	6a2b      	ldr	r3, [r5, #32]
 8004dbc:	e7bd      	b.n	8004d3a <HAL_RCC_OscConfig+0x21e>
 8004dbe:	6a2b      	ldr	r3, [r5, #32]
 8004dc0:	4393      	bics	r3, r2
 8004dc2:	2204      	movs	r2, #4
 8004dc4:	622b      	str	r3, [r5, #32]
 8004dc6:	6a2b      	ldr	r3, [r5, #32]
 8004dc8:	4393      	bics	r3, r2
 8004dca:	e7b7      	b.n	8004d3c <HAL_RCC_OscConfig+0x220>
 8004dcc:	f7ff fc3a 	bl	8004644 <HAL_GetTick>
 8004dd0:	4b18      	ldr	r3, [pc, #96]	@ (8004e34 <HAL_RCC_OscConfig+0x318>)
 8004dd2:	1b80      	subs	r0, r0, r6
 8004dd4:	4298      	cmp	r0, r3
 8004dd6:	d9b6      	bls.n	8004d46 <HAL_RCC_OscConfig+0x22a>
 8004dd8:	e702      	b.n	8004be0 <HAL_RCC_OscConfig+0xc4>
 8004dda:	f7ff fc33 	bl	8004644 <HAL_GetTick>
 8004dde:	1b80      	subs	r0, r0, r6
 8004de0:	2802      	cmp	r0, #2
 8004de2:	d800      	bhi.n	8004de6 <HAL_RCC_OscConfig+0x2ca>
 8004de4:	e6c1      	b.n	8004b6a <HAL_RCC_OscConfig+0x4e>
 8004de6:	e6fb      	b.n	8004be0 <HAL_RCC_OscConfig+0xc4>
 8004de8:	3205      	adds	r2, #5
 8004dea:	d103      	bne.n	8004df4 <HAL_RCC_OscConfig+0x2d8>
 8004dec:	6b6a      	ldr	r2, [r5, #52]	@ 0x34
 8004dee:	439a      	bics	r2, r3
 8004df0:	636a      	str	r2, [r5, #52]	@ 0x34
 8004df2:	e6be      	b.n	8004b72 <HAL_RCC_OscConfig+0x56>
 8004df4:	6b6a      	ldr	r2, [r5, #52]	@ 0x34
 8004df6:	2702      	movs	r7, #2
 8004df8:	4313      	orrs	r3, r2
 8004dfa:	2201      	movs	r2, #1
 8004dfc:	636b      	str	r3, [r5, #52]	@ 0x34
 8004dfe:	6b6b      	ldr	r3, [r5, #52]	@ 0x34
 8004e00:	4393      	bics	r3, r2
 8004e02:	636b      	str	r3, [r5, #52]	@ 0x34
 8004e04:	f7ff fc1e 	bl	8004644 <HAL_GetTick>
 8004e08:	0006      	movs	r6, r0
 8004e0a:	6b6b      	ldr	r3, [r5, #52]	@ 0x34
 8004e0c:	423b      	tst	r3, r7
 8004e0e:	d100      	bne.n	8004e12 <HAL_RCC_OscConfig+0x2f6>
 8004e10:	e6b6      	b.n	8004b80 <HAL_RCC_OscConfig+0x64>
 8004e12:	f7ff fc17 	bl	8004644 <HAL_GetTick>
 8004e16:	1b80      	subs	r0, r0, r6
 8004e18:	2802      	cmp	r0, #2
 8004e1a:	d9f6      	bls.n	8004e0a <HAL_RCC_OscConfig+0x2ee>
 8004e1c:	e6e0      	b.n	8004be0 <HAL_RCC_OscConfig+0xc4>
 8004e1e:	46c0      	nop			@ (mov r8, r8)
 8004e20:	40021000 	.word	0x40021000
 8004e24:	fffeffff 	.word	0xfffeffff
 8004e28:	fffbffff 	.word	0xfffbffff
 8004e2c:	40007000 	.word	0x40007000
 8004e30:	efffffff 	.word	0xefffffff
 8004e34:	00001388 	.word	0x00001388
 8004e38:	210c      	movs	r1, #12
 8004e3a:	4d34      	ldr	r5, [pc, #208]	@ (8004f0c <HAL_RCC_OscConfig+0x3f0>)
 8004e3c:	686a      	ldr	r2, [r5, #4]
 8004e3e:	400a      	ands	r2, r1
 8004e40:	2a08      	cmp	r2, #8
 8004e42:	d047      	beq.n	8004ed4 <HAL_RCC_OscConfig+0x3b8>
 8004e44:	4a32      	ldr	r2, [pc, #200]	@ (8004f10 <HAL_RCC_OscConfig+0x3f4>)
 8004e46:	2b02      	cmp	r3, #2
 8004e48:	d132      	bne.n	8004eb0 <HAL_RCC_OscConfig+0x394>
 8004e4a:	682b      	ldr	r3, [r5, #0]
 8004e4c:	2780      	movs	r7, #128	@ 0x80
 8004e4e:	4013      	ands	r3, r2
 8004e50:	602b      	str	r3, [r5, #0]
 8004e52:	f7ff fbf7 	bl	8004644 <HAL_GetTick>
 8004e56:	0006      	movs	r6, r0
 8004e58:	04bf      	lsls	r7, r7, #18
 8004e5a:	682b      	ldr	r3, [r5, #0]
 8004e5c:	423b      	tst	r3, r7
 8004e5e:	d121      	bne.n	8004ea4 <HAL_RCC_OscConfig+0x388>
 8004e60:	220f      	movs	r2, #15
 8004e62:	6aeb      	ldr	r3, [r5, #44]	@ 0x2c
 8004e64:	2680      	movs	r6, #128	@ 0x80
 8004e66:	4393      	bics	r3, r2
 8004e68:	6ae2      	ldr	r2, [r4, #44]	@ 0x2c
 8004e6a:	04b6      	lsls	r6, r6, #18
 8004e6c:	4313      	orrs	r3, r2
 8004e6e:	62eb      	str	r3, [r5, #44]	@ 0x2c
 8004e70:	6a61      	ldr	r1, [r4, #36]	@ 0x24
 8004e72:	6aa3      	ldr	r3, [r4, #40]	@ 0x28
 8004e74:	686a      	ldr	r2, [r5, #4]
 8004e76:	430b      	orrs	r3, r1
 8004e78:	4926      	ldr	r1, [pc, #152]	@ (8004f14 <HAL_RCC_OscConfig+0x3f8>)
 8004e7a:	400a      	ands	r2, r1
 8004e7c:	4313      	orrs	r3, r2
 8004e7e:	606b      	str	r3, [r5, #4]
 8004e80:	2380      	movs	r3, #128	@ 0x80
 8004e82:	682a      	ldr	r2, [r5, #0]
 8004e84:	045b      	lsls	r3, r3, #17
 8004e86:	4313      	orrs	r3, r2
 8004e88:	602b      	str	r3, [r5, #0]
 8004e8a:	f7ff fbdb 	bl	8004644 <HAL_GetTick>
 8004e8e:	0004      	movs	r4, r0
 8004e90:	682b      	ldr	r3, [r5, #0]
 8004e92:	4233      	tst	r3, r6
 8004e94:	d000      	beq.n	8004e98 <HAL_RCC_OscConfig+0x37c>
 8004e96:	e677      	b.n	8004b88 <HAL_RCC_OscConfig+0x6c>
 8004e98:	f7ff fbd4 	bl	8004644 <HAL_GetTick>
 8004e9c:	1b00      	subs	r0, r0, r4
 8004e9e:	2802      	cmp	r0, #2
 8004ea0:	d9f6      	bls.n	8004e90 <HAL_RCC_OscConfig+0x374>
 8004ea2:	e69d      	b.n	8004be0 <HAL_RCC_OscConfig+0xc4>
 8004ea4:	f7ff fbce 	bl	8004644 <HAL_GetTick>
 8004ea8:	1b80      	subs	r0, r0, r6
 8004eaa:	2802      	cmp	r0, #2
 8004eac:	d9d5      	bls.n	8004e5a <HAL_RCC_OscConfig+0x33e>
 8004eae:	e697      	b.n	8004be0 <HAL_RCC_OscConfig+0xc4>
 8004eb0:	682b      	ldr	r3, [r5, #0]
 8004eb2:	2680      	movs	r6, #128	@ 0x80
 8004eb4:	4013      	ands	r3, r2
 8004eb6:	602b      	str	r3, [r5, #0]
 8004eb8:	f7ff fbc4 	bl	8004644 <HAL_GetTick>
 8004ebc:	0004      	movs	r4, r0
 8004ebe:	04b6      	lsls	r6, r6, #18
 8004ec0:	682b      	ldr	r3, [r5, #0]
 8004ec2:	4233      	tst	r3, r6
 8004ec4:	d100      	bne.n	8004ec8 <HAL_RCC_OscConfig+0x3ac>
 8004ec6:	e65f      	b.n	8004b88 <HAL_RCC_OscConfig+0x6c>
 8004ec8:	f7ff fbbc 	bl	8004644 <HAL_GetTick>
 8004ecc:	1b00      	subs	r0, r0, r4
 8004ece:	2802      	cmp	r0, #2
 8004ed0:	d9f6      	bls.n	8004ec0 <HAL_RCC_OscConfig+0x3a4>
 8004ed2:	e685      	b.n	8004be0 <HAL_RCC_OscConfig+0xc4>
 8004ed4:	2b01      	cmp	r3, #1
 8004ed6:	d100      	bne.n	8004eda <HAL_RCC_OscConfig+0x3be>
 8004ed8:	e66b      	b.n	8004bb2 <HAL_RCC_OscConfig+0x96>
 8004eda:	2280      	movs	r2, #128	@ 0x80
 8004edc:	6868      	ldr	r0, [r5, #4]
 8004ede:	6a61      	ldr	r1, [r4, #36]	@ 0x24
 8004ee0:	0252      	lsls	r2, r2, #9
 8004ee2:	6aeb      	ldr	r3, [r5, #44]	@ 0x2c
 8004ee4:	4002      	ands	r2, r0
 8004ee6:	428a      	cmp	r2, r1
 8004ee8:	d000      	beq.n	8004eec <HAL_RCC_OscConfig+0x3d0>
 8004eea:	e662      	b.n	8004bb2 <HAL_RCC_OscConfig+0x96>
 8004eec:	220f      	movs	r2, #15
 8004eee:	4013      	ands	r3, r2
 8004ef0:	6ae2      	ldr	r2, [r4, #44]	@ 0x2c
 8004ef2:	4293      	cmp	r3, r2
 8004ef4:	d000      	beq.n	8004ef8 <HAL_RCC_OscConfig+0x3dc>
 8004ef6:	e65c      	b.n	8004bb2 <HAL_RCC_OscConfig+0x96>
 8004ef8:	23f0      	movs	r3, #240	@ 0xf0
 8004efa:	039b      	lsls	r3, r3, #14
 8004efc:	4018      	ands	r0, r3
 8004efe:	6aa3      	ldr	r3, [r4, #40]	@ 0x28
 8004f00:	1ac0      	subs	r0, r0, r3
 8004f02:	1e43      	subs	r3, r0, #1
 8004f04:	4198      	sbcs	r0, r3
 8004f06:	b2c0      	uxtb	r0, r0
 8004f08:	e66b      	b.n	8004be2 <HAL_RCC_OscConfig+0xc6>
 8004f0a:	46c0      	nop			@ (mov r8, r8)
 8004f0c:	40021000 	.word	0x40021000
 8004f10:	feffffff 	.word	0xfeffffff
 8004f14:	ffc2ffff 	.word	0xffc2ffff

08004f18 <HAL_RCC_EnableCSS>:
 8004f18:	2380      	movs	r3, #128	@ 0x80
 8004f1a:	4a03      	ldr	r2, [pc, #12]	@ (8004f28 <HAL_RCC_EnableCSS+0x10>)
 8004f1c:	031b      	lsls	r3, r3, #12
 8004f1e:	6811      	ldr	r1, [r2, #0]
 8004f20:	430b      	orrs	r3, r1
 8004f22:	6013      	str	r3, [r2, #0]
 8004f24:	4770      	bx	lr
 8004f26:	46c0      	nop			@ (mov r8, r8)
 8004f28:	40021000 	.word	0x40021000

08004f2c <HAL_RCC_GetSysClockFreq>:
 8004f2c:	220c      	movs	r2, #12
 8004f2e:	b570      	push	{r4, r5, r6, lr}
 8004f30:	4d0c      	ldr	r5, [pc, #48]	@ (8004f64 <HAL_RCC_GetSysClockFreq+0x38>)
 8004f32:	686b      	ldr	r3, [r5, #4]
 8004f34:	401a      	ands	r2, r3
 8004f36:	2a08      	cmp	r2, #8
 8004f38:	d111      	bne.n	8004f5e <HAL_RCC_GetSysClockFreq+0x32>
 8004f3a:	200f      	movs	r0, #15
 8004f3c:	490a      	ldr	r1, [pc, #40]	@ (8004f68 <HAL_RCC_GetSysClockFreq+0x3c>)
 8004f3e:	0c9a      	lsrs	r2, r3, #18
 8004f40:	4002      	ands	r2, r0
 8004f42:	5c8c      	ldrb	r4, [r1, r2]
 8004f44:	6aea      	ldr	r2, [r5, #44]	@ 0x2c
 8004f46:	03db      	lsls	r3, r3, #15
 8004f48:	d507      	bpl.n	8004f5a <HAL_RCC_GetSysClockFreq+0x2e>
 8004f4a:	4908      	ldr	r1, [pc, #32]	@ (8004f6c <HAL_RCC_GetSysClockFreq+0x40>)
 8004f4c:	4002      	ands	r2, r0
 8004f4e:	5c89      	ldrb	r1, [r1, r2]
 8004f50:	4807      	ldr	r0, [pc, #28]	@ (8004f70 <HAL_RCC_GetSysClockFreq+0x44>)
 8004f52:	f7fb f8ed 	bl	8000130 <__udivsi3>
 8004f56:	4360      	muls	r0, r4
 8004f58:	bd70      	pop	{r4, r5, r6, pc}
 8004f5a:	4806      	ldr	r0, [pc, #24]	@ (8004f74 <HAL_RCC_GetSysClockFreq+0x48>)
 8004f5c:	e7fb      	b.n	8004f56 <HAL_RCC_GetSysClockFreq+0x2a>
 8004f5e:	4804      	ldr	r0, [pc, #16]	@ (8004f70 <HAL_RCC_GetSysClockFreq+0x44>)
 8004f60:	e7fa      	b.n	8004f58 <HAL_RCC_GetSysClockFreq+0x2c>
 8004f62:	46c0      	nop			@ (mov r8, r8)
 8004f64:	40021000 	.word	0x40021000
 8004f68:	08006a18 	.word	0x08006a18
 8004f6c:	08006a08 	.word	0x08006a08
 8004f70:	007a1200 	.word	0x007a1200
 8004f74:	003d0900 	.word	0x003d0900

08004f78 <HAL_RCC_ClockConfig>:
 8004f78:	b5f7      	push	{r0, r1, r2, r4, r5, r6, r7, lr}
 8004f7a:	0004      	movs	r4, r0
 8004f7c:	000e      	movs	r6, r1
 8004f7e:	2800      	cmp	r0, #0
 8004f80:	d101      	bne.n	8004f86 <HAL_RCC_ClockConfig+0xe>
 8004f82:	2001      	movs	r0, #1
 8004f84:	bdfe      	pop	{r1, r2, r3, r4, r5, r6, r7, pc}
 8004f86:	2201      	movs	r2, #1
 8004f88:	4d37      	ldr	r5, [pc, #220]	@ (8005068 <HAL_RCC_ClockConfig+0xf0>)
 8004f8a:	682b      	ldr	r3, [r5, #0]
 8004f8c:	4013      	ands	r3, r2
 8004f8e:	428b      	cmp	r3, r1
 8004f90:	d31c      	bcc.n	8004fcc <HAL_RCC_ClockConfig+0x54>
 8004f92:	6822      	ldr	r2, [r4, #0]
 8004f94:	0793      	lsls	r3, r2, #30
 8004f96:	d422      	bmi.n	8004fde <HAL_RCC_ClockConfig+0x66>
 8004f98:	07d2      	lsls	r2, r2, #31
 8004f9a:	d42f      	bmi.n	8004ffc <HAL_RCC_ClockConfig+0x84>
 8004f9c:	2301      	movs	r3, #1
 8004f9e:	682a      	ldr	r2, [r5, #0]
 8004fa0:	401a      	ands	r2, r3
 8004fa2:	42b2      	cmp	r2, r6
 8004fa4:	d851      	bhi.n	800504a <HAL_RCC_ClockConfig+0xd2>
 8004fa6:	6823      	ldr	r3, [r4, #0]
 8004fa8:	4d30      	ldr	r5, [pc, #192]	@ (800506c <HAL_RCC_ClockConfig+0xf4>)
 8004faa:	075b      	lsls	r3, r3, #29
 8004fac:	d454      	bmi.n	8005058 <HAL_RCC_ClockConfig+0xe0>
 8004fae:	f7ff ffbd 	bl	8004f2c <HAL_RCC_GetSysClockFreq>
 8004fb2:	686b      	ldr	r3, [r5, #4]
 8004fb4:	4a2e      	ldr	r2, [pc, #184]	@ (8005070 <HAL_RCC_ClockConfig+0xf8>)
 8004fb6:	061b      	lsls	r3, r3, #24
 8004fb8:	0f1b      	lsrs	r3, r3, #28
 8004fba:	5cd3      	ldrb	r3, [r2, r3]
 8004fbc:	492d      	ldr	r1, [pc, #180]	@ (8005074 <HAL_RCC_ClockConfig+0xfc>)
 8004fbe:	40d8      	lsrs	r0, r3
 8004fc0:	6008      	str	r0, [r1, #0]
 8004fc2:	2002      	movs	r0, #2
 8004fc4:	f7ff fafe 	bl	80045c4 <HAL_InitTick>
 8004fc8:	2000      	movs	r0, #0
 8004fca:	e7db      	b.n	8004f84 <HAL_RCC_ClockConfig+0xc>
 8004fcc:	682b      	ldr	r3, [r5, #0]
 8004fce:	4393      	bics	r3, r2
 8004fd0:	430b      	orrs	r3, r1
 8004fd2:	602b      	str	r3, [r5, #0]
 8004fd4:	682b      	ldr	r3, [r5, #0]
 8004fd6:	4013      	ands	r3, r2
 8004fd8:	428b      	cmp	r3, r1
 8004fda:	d1d2      	bne.n	8004f82 <HAL_RCC_ClockConfig+0xa>
 8004fdc:	e7d9      	b.n	8004f92 <HAL_RCC_ClockConfig+0x1a>
 8004fde:	4923      	ldr	r1, [pc, #140]	@ (800506c <HAL_RCC_ClockConfig+0xf4>)
 8004fe0:	0753      	lsls	r3, r2, #29
 8004fe2:	d504      	bpl.n	8004fee <HAL_RCC_ClockConfig+0x76>
 8004fe4:	23e0      	movs	r3, #224	@ 0xe0
 8004fe6:	6848      	ldr	r0, [r1, #4]
 8004fe8:	00db      	lsls	r3, r3, #3
 8004fea:	4303      	orrs	r3, r0
 8004fec:	604b      	str	r3, [r1, #4]
 8004fee:	20f0      	movs	r0, #240	@ 0xf0
 8004ff0:	684b      	ldr	r3, [r1, #4]
 8004ff2:	4383      	bics	r3, r0
 8004ff4:	68a0      	ldr	r0, [r4, #8]
 8004ff6:	4303      	orrs	r3, r0
 8004ff8:	604b      	str	r3, [r1, #4]
 8004ffa:	e7cd      	b.n	8004f98 <HAL_RCC_ClockConfig+0x20>
 8004ffc:	4f1b      	ldr	r7, [pc, #108]	@ (800506c <HAL_RCC_ClockConfig+0xf4>)
 8004ffe:	6862      	ldr	r2, [r4, #4]
 8005000:	683b      	ldr	r3, [r7, #0]
 8005002:	2a01      	cmp	r2, #1
 8005004:	d119      	bne.n	800503a <HAL_RCC_ClockConfig+0xc2>
 8005006:	039b      	lsls	r3, r3, #14
 8005008:	d5bb      	bpl.n	8004f82 <HAL_RCC_ClockConfig+0xa>
 800500a:	2103      	movs	r1, #3
 800500c:	687b      	ldr	r3, [r7, #4]
 800500e:	438b      	bics	r3, r1
 8005010:	4313      	orrs	r3, r2
 8005012:	607b      	str	r3, [r7, #4]
 8005014:	f7ff fb16 	bl	8004644 <HAL_GetTick>
 8005018:	9001      	str	r0, [sp, #4]
 800501a:	230c      	movs	r3, #12
 800501c:	687a      	ldr	r2, [r7, #4]
 800501e:	401a      	ands	r2, r3
 8005020:	6863      	ldr	r3, [r4, #4]
 8005022:	009b      	lsls	r3, r3, #2
 8005024:	429a      	cmp	r2, r3
 8005026:	d0b9      	beq.n	8004f9c <HAL_RCC_ClockConfig+0x24>
 8005028:	f7ff fb0c 	bl	8004644 <HAL_GetTick>
 800502c:	9b01      	ldr	r3, [sp, #4]
 800502e:	1ac0      	subs	r0, r0, r3
 8005030:	4b11      	ldr	r3, [pc, #68]	@ (8005078 <HAL_RCC_ClockConfig+0x100>)
 8005032:	4298      	cmp	r0, r3
 8005034:	d9f1      	bls.n	800501a <HAL_RCC_ClockConfig+0xa2>
 8005036:	2003      	movs	r0, #3
 8005038:	e7a4      	b.n	8004f84 <HAL_RCC_ClockConfig+0xc>
 800503a:	2a02      	cmp	r2, #2
 800503c:	d102      	bne.n	8005044 <HAL_RCC_ClockConfig+0xcc>
 800503e:	019b      	lsls	r3, r3, #6
 8005040:	d4e3      	bmi.n	800500a <HAL_RCC_ClockConfig+0x92>
 8005042:	e79e      	b.n	8004f82 <HAL_RCC_ClockConfig+0xa>
 8005044:	079b      	lsls	r3, r3, #30
 8005046:	d4e0      	bmi.n	800500a <HAL_RCC_ClockConfig+0x92>
 8005048:	e79b      	b.n	8004f82 <HAL_RCC_ClockConfig+0xa>
 800504a:	682a      	ldr	r2, [r5, #0]
 800504c:	439a      	bics	r2, r3
 800504e:	602a      	str	r2, [r5, #0]
 8005050:	682a      	ldr	r2, [r5, #0]
 8005052:	421a      	tst	r2, r3
 8005054:	d0a7      	beq.n	8004fa6 <HAL_RCC_ClockConfig+0x2e>
 8005056:	e794      	b.n	8004f82 <HAL_RCC_ClockConfig+0xa>
 8005058:	686b      	ldr	r3, [r5, #4]
 800505a:	4a08      	ldr	r2, [pc, #32]	@ (800507c <HAL_RCC_ClockConfig+0x104>)
 800505c:	4013      	ands	r3, r2
 800505e:	68e2      	ldr	r2, [r4, #12]
 8005060:	4313      	orrs	r3, r2
 8005062:	606b      	str	r3, [r5, #4]
 8005064:	e7a3      	b.n	8004fae <HAL_RCC_ClockConfig+0x36>
 8005066:	46c0      	nop			@ (mov r8, r8)
 8005068:	40022000 	.word	0x40022000
 800506c:	40021000 	.word	0x40021000
 8005070:	080069f8 	.word	0x080069f8
 8005074:	200003c8 	.word	0x200003c8
 8005078:	00001388 	.word	0x00001388
 800507c:	fffff8ff 	.word	0xfffff8ff

08005080 <HAL_RCC_GetHCLKFreq>:
 8005080:	4b01      	ldr	r3, [pc, #4]	@ (8005088 <HAL_RCC_GetHCLKFreq+0x8>)
 8005082:	6818      	ldr	r0, [r3, #0]
 8005084:	4770      	bx	lr
 8005086:	46c0      	nop			@ (mov r8, r8)
 8005088:	200003c8 	.word	0x200003c8

0800508c <HAL_RCC_GetPCLK1Freq>:
 800508c:	4b04      	ldr	r3, [pc, #16]	@ (80050a0 <HAL_RCC_GetPCLK1Freq+0x14>)
 800508e:	4a05      	ldr	r2, [pc, #20]	@ (80050a4 <HAL_RCC_GetPCLK1Freq+0x18>)
 8005090:	685b      	ldr	r3, [r3, #4]
 8005092:	4905      	ldr	r1, [pc, #20]	@ (80050a8 <HAL_RCC_GetPCLK1Freq+0x1c>)
 8005094:	055b      	lsls	r3, r3, #21
 8005096:	0f5b      	lsrs	r3, r3, #29
 8005098:	5ccb      	ldrb	r3, [r1, r3]
 800509a:	6810      	ldr	r0, [r2, #0]
 800509c:	40d8      	lsrs	r0, r3
 800509e:	4770      	bx	lr
 80050a0:	40021000 	.word	0x40021000
 80050a4:	200003c8 	.word	0x200003c8
 80050a8:	080069f0 	.word	0x080069f0

080050ac <HAL_RCCEx_PeriphCLKConfig>:
 80050ac:	b5f0      	push	{r4, r5, r6, r7, lr}
 80050ae:	6803      	ldr	r3, [r0, #0]
 80050b0:	0005      	movs	r5, r0
 80050b2:	b085      	sub	sp, #20
 80050b4:	03db      	lsls	r3, r3, #15
 80050b6:	d52b      	bpl.n	8005110 <HAL_RCCEx_PeriphCLKConfig+0x64>
 80050b8:	2280      	movs	r2, #128	@ 0x80
 80050ba:	2100      	movs	r1, #0
 80050bc:	4c38      	ldr	r4, [pc, #224]	@ (80051a0 <HAL_RCCEx_PeriphCLKConfig+0xf4>)
 80050be:	0552      	lsls	r2, r2, #21
 80050c0:	69e3      	ldr	r3, [r4, #28]
 80050c2:	9100      	str	r1, [sp, #0]
 80050c4:	4213      	tst	r3, r2
 80050c6:	d108      	bne.n	80050da <HAL_RCCEx_PeriphCLKConfig+0x2e>
 80050c8:	69e3      	ldr	r3, [r4, #28]
 80050ca:	4313      	orrs	r3, r2
 80050cc:	61e3      	str	r3, [r4, #28]
 80050ce:	69e3      	ldr	r3, [r4, #28]
 80050d0:	4013      	ands	r3, r2
 80050d2:	9303      	str	r3, [sp, #12]
 80050d4:	9b03      	ldr	r3, [sp, #12]
 80050d6:	2301      	movs	r3, #1
 80050d8:	9300      	str	r3, [sp, #0]
 80050da:	2780      	movs	r7, #128	@ 0x80
 80050dc:	4e31      	ldr	r6, [pc, #196]	@ (80051a4 <HAL_RCCEx_PeriphCLKConfig+0xf8>)
 80050de:	007f      	lsls	r7, r7, #1
 80050e0:	6833      	ldr	r3, [r6, #0]
 80050e2:	423b      	tst	r3, r7
 80050e4:	d022      	beq.n	800512c <HAL_RCCEx_PeriphCLKConfig+0x80>
 80050e6:	6a21      	ldr	r1, [r4, #32]
 80050e8:	22c0      	movs	r2, #192	@ 0xc0
 80050ea:	0008      	movs	r0, r1
 80050ec:	0092      	lsls	r2, r2, #2
 80050ee:	686b      	ldr	r3, [r5, #4]
 80050f0:	4e2d      	ldr	r6, [pc, #180]	@ (80051a8 <HAL_RCCEx_PeriphCLKConfig+0xfc>)
 80050f2:	4010      	ands	r0, r2
 80050f4:	4211      	tst	r1, r2
 80050f6:	d12b      	bne.n	8005150 <HAL_RCCEx_PeriphCLKConfig+0xa4>
 80050f8:	6a23      	ldr	r3, [r4, #32]
 80050fa:	686a      	ldr	r2, [r5, #4]
 80050fc:	4033      	ands	r3, r6
 80050fe:	4313      	orrs	r3, r2
 8005100:	6223      	str	r3, [r4, #32]
 8005102:	9b00      	ldr	r3, [sp, #0]
 8005104:	2b01      	cmp	r3, #1
 8005106:	d103      	bne.n	8005110 <HAL_RCCEx_PeriphCLKConfig+0x64>
 8005108:	69e3      	ldr	r3, [r4, #28]
 800510a:	4a28      	ldr	r2, [pc, #160]	@ (80051ac <HAL_RCCEx_PeriphCLKConfig+0x100>)
 800510c:	4013      	ands	r3, r2
 800510e:	61e3      	str	r3, [r4, #28]
 8005110:	682a      	ldr	r2, [r5, #0]
 8005112:	07d3      	lsls	r3, r2, #31
 8005114:	d506      	bpl.n	8005124 <HAL_RCCEx_PeriphCLKConfig+0x78>
 8005116:	2003      	movs	r0, #3
 8005118:	4921      	ldr	r1, [pc, #132]	@ (80051a0 <HAL_RCCEx_PeriphCLKConfig+0xf4>)
 800511a:	6b0b      	ldr	r3, [r1, #48]	@ 0x30
 800511c:	4383      	bics	r3, r0
 800511e:	68a8      	ldr	r0, [r5, #8]
 8005120:	4303      	orrs	r3, r0
 8005122:	630b      	str	r3, [r1, #48]	@ 0x30
 8005124:	0692      	lsls	r2, r2, #26
 8005126:	d433      	bmi.n	8005190 <HAL_RCCEx_PeriphCLKConfig+0xe4>
 8005128:	2000      	movs	r0, #0
 800512a:	e00f      	b.n	800514c <HAL_RCCEx_PeriphCLKConfig+0xa0>
 800512c:	6833      	ldr	r3, [r6, #0]
 800512e:	433b      	orrs	r3, r7
 8005130:	6033      	str	r3, [r6, #0]
 8005132:	f7ff fa87 	bl	8004644 <HAL_GetTick>
 8005136:	9001      	str	r0, [sp, #4]
 8005138:	6833      	ldr	r3, [r6, #0]
 800513a:	423b      	tst	r3, r7
 800513c:	d1d3      	bne.n	80050e6 <HAL_RCCEx_PeriphCLKConfig+0x3a>
 800513e:	f7ff fa81 	bl	8004644 <HAL_GetTick>
 8005142:	9b01      	ldr	r3, [sp, #4]
 8005144:	1ac0      	subs	r0, r0, r3
 8005146:	2864      	cmp	r0, #100	@ 0x64
 8005148:	d9f6      	bls.n	8005138 <HAL_RCCEx_PeriphCLKConfig+0x8c>
 800514a:	2003      	movs	r0, #3
 800514c:	b005      	add	sp, #20
 800514e:	bdf0      	pop	{r4, r5, r6, r7, pc}
 8005150:	4013      	ands	r3, r2
 8005152:	4283      	cmp	r3, r0
 8005154:	d0d0      	beq.n	80050f8 <HAL_RCCEx_PeriphCLKConfig+0x4c>
 8005156:	2280      	movs	r2, #128	@ 0x80
 8005158:	6a23      	ldr	r3, [r4, #32]
 800515a:	6a20      	ldr	r0, [r4, #32]
 800515c:	0019      	movs	r1, r3
 800515e:	0252      	lsls	r2, r2, #9
 8005160:	4302      	orrs	r2, r0
 8005162:	6222      	str	r2, [r4, #32]
 8005164:	6a22      	ldr	r2, [r4, #32]
 8005166:	4812      	ldr	r0, [pc, #72]	@ (80051b0 <HAL_RCCEx_PeriphCLKConfig+0x104>)
 8005168:	4031      	ands	r1, r6
 800516a:	4002      	ands	r2, r0
 800516c:	6222      	str	r2, [r4, #32]
 800516e:	6221      	str	r1, [r4, #32]
 8005170:	07db      	lsls	r3, r3, #31
 8005172:	d5c1      	bpl.n	80050f8 <HAL_RCCEx_PeriphCLKConfig+0x4c>
 8005174:	f7ff fa66 	bl	8004644 <HAL_GetTick>
 8005178:	0007      	movs	r7, r0
 800517a:	2202      	movs	r2, #2
 800517c:	6a23      	ldr	r3, [r4, #32]
 800517e:	4213      	tst	r3, r2
 8005180:	d1ba      	bne.n	80050f8 <HAL_RCCEx_PeriphCLKConfig+0x4c>
 8005182:	f7ff fa5f 	bl	8004644 <HAL_GetTick>
 8005186:	4b0b      	ldr	r3, [pc, #44]	@ (80051b4 <HAL_RCCEx_PeriphCLKConfig+0x108>)
 8005188:	1bc0      	subs	r0, r0, r7
 800518a:	4298      	cmp	r0, r3
 800518c:	d9f5      	bls.n	800517a <HAL_RCCEx_PeriphCLKConfig+0xce>
 800518e:	e7dc      	b.n	800514a <HAL_RCCEx_PeriphCLKConfig+0x9e>
 8005190:	2110      	movs	r1, #16
 8005192:	4a03      	ldr	r2, [pc, #12]	@ (80051a0 <HAL_RCCEx_PeriphCLKConfig+0xf4>)
 8005194:	6b13      	ldr	r3, [r2, #48]	@ 0x30
 8005196:	438b      	bics	r3, r1
 8005198:	68e9      	ldr	r1, [r5, #12]
 800519a:	430b      	orrs	r3, r1
 800519c:	6313      	str	r3, [r2, #48]	@ 0x30
 800519e:	e7c3      	b.n	8005128 <HAL_RCCEx_PeriphCLKConfig+0x7c>
 80051a0:	40021000 	.word	0x40021000
 80051a4:	40007000 	.word	0x40007000
 80051a8:	fffffcff 	.word	0xfffffcff
 80051ac:	efffffff 	.word	0xefffffff
 80051b0:	fffeffff 	.word	0xfffeffff
 80051b4:	00001388 	.word	0x00001388

080051b8 <TIM_OC1_SetConfig>:
 80051b8:	2201      	movs	r2, #1
 80051ba:	6a03      	ldr	r3, [r0, #32]
 80051bc:	b570      	push	{r4, r5, r6, lr}
 80051be:	4393      	bics	r3, r2
 80051c0:	6203      	str	r3, [r0, #32]
 80051c2:	6a03      	ldr	r3, [r0, #32]
 80051c4:	6844      	ldr	r4, [r0, #4]
 80051c6:	6985      	ldr	r5, [r0, #24]
 80051c8:	3272      	adds	r2, #114	@ 0x72
 80051ca:	4395      	bics	r5, r2
 80051cc:	680a      	ldr	r2, [r1, #0]
 80051ce:	4315      	orrs	r5, r2
 80051d0:	2202      	movs	r2, #2
 80051d2:	4393      	bics	r3, r2
 80051d4:	688a      	ldr	r2, [r1, #8]
 80051d6:	4313      	orrs	r3, r2
 80051d8:	4a11      	ldr	r2, [pc, #68]	@ (8005220 <TIM_OC1_SetConfig+0x68>)
 80051da:	4290      	cmp	r0, r2
 80051dc:	d005      	beq.n	80051ea <TIM_OC1_SetConfig+0x32>
 80051de:	4e11      	ldr	r6, [pc, #68]	@ (8005224 <TIM_OC1_SetConfig+0x6c>)
 80051e0:	42b0      	cmp	r0, r6
 80051e2:	d002      	beq.n	80051ea <TIM_OC1_SetConfig+0x32>
 80051e4:	4e10      	ldr	r6, [pc, #64]	@ (8005228 <TIM_OC1_SetConfig+0x70>)
 80051e6:	42b0      	cmp	r0, r6
 80051e8:	d113      	bne.n	8005212 <TIM_OC1_SetConfig+0x5a>
 80051ea:	2608      	movs	r6, #8
 80051ec:	43b3      	bics	r3, r6
 80051ee:	68ce      	ldr	r6, [r1, #12]
 80051f0:	4333      	orrs	r3, r6
 80051f2:	2604      	movs	r6, #4
 80051f4:	43b3      	bics	r3, r6
 80051f6:	4290      	cmp	r0, r2
 80051f8:	d005      	beq.n	8005206 <TIM_OC1_SetConfig+0x4e>
 80051fa:	4a0a      	ldr	r2, [pc, #40]	@ (8005224 <TIM_OC1_SetConfig+0x6c>)
 80051fc:	4290      	cmp	r0, r2
 80051fe:	d002      	beq.n	8005206 <TIM_OC1_SetConfig+0x4e>
 8005200:	4a09      	ldr	r2, [pc, #36]	@ (8005228 <TIM_OC1_SetConfig+0x70>)
 8005202:	4290      	cmp	r0, r2
 8005204:	d105      	bne.n	8005212 <TIM_OC1_SetConfig+0x5a>
 8005206:	4a09      	ldr	r2, [pc, #36]	@ (800522c <TIM_OC1_SetConfig+0x74>)
 8005208:	698e      	ldr	r6, [r1, #24]
 800520a:	4022      	ands	r2, r4
 800520c:	694c      	ldr	r4, [r1, #20]
 800520e:	4334      	orrs	r4, r6
 8005210:	4314      	orrs	r4, r2
 8005212:	684a      	ldr	r2, [r1, #4]
 8005214:	6044      	str	r4, [r0, #4]
 8005216:	6185      	str	r5, [r0, #24]
 8005218:	6342      	str	r2, [r0, #52]	@ 0x34
 800521a:	6203      	str	r3, [r0, #32]
 800521c:	bd70      	pop	{r4, r5, r6, pc}
 800521e:	46c0      	nop			@ (mov r8, r8)
 8005220:	40012c00 	.word	0x40012c00
 8005224:	40014400 	.word	0x40014400
 8005228:	40014800 	.word	0x40014800
 800522c:	fffffcff 	.word	0xfffffcff

08005230 <TIM_OC3_SetConfig>:
 8005230:	6a03      	ldr	r3, [r0, #32]
 8005232:	4a17      	ldr	r2, [pc, #92]	@ (8005290 <TIM_OC3_SetConfig+0x60>)
 8005234:	b570      	push	{r4, r5, r6, lr}
 8005236:	4013      	ands	r3, r2
 8005238:	6203      	str	r3, [r0, #32]
 800523a:	2373      	movs	r3, #115	@ 0x73
 800523c:	6a05      	ldr	r5, [r0, #32]
 800523e:	6842      	ldr	r2, [r0, #4]
 8005240:	69c4      	ldr	r4, [r0, #28]
 8005242:	439c      	bics	r4, r3
 8005244:	680b      	ldr	r3, [r1, #0]
 8005246:	431c      	orrs	r4, r3
 8005248:	4b12      	ldr	r3, [pc, #72]	@ (8005294 <TIM_OC3_SetConfig+0x64>)
 800524a:	401d      	ands	r5, r3
 800524c:	688b      	ldr	r3, [r1, #8]
 800524e:	021b      	lsls	r3, r3, #8
 8005250:	432b      	orrs	r3, r5
 8005252:	4d11      	ldr	r5, [pc, #68]	@ (8005298 <TIM_OC3_SetConfig+0x68>)
 8005254:	42a8      	cmp	r0, r5
 8005256:	d10e      	bne.n	8005276 <TIM_OC3_SetConfig+0x46>
 8005258:	4d10      	ldr	r5, [pc, #64]	@ (800529c <TIM_OC3_SetConfig+0x6c>)
 800525a:	401d      	ands	r5, r3
 800525c:	68cb      	ldr	r3, [r1, #12]
 800525e:	021b      	lsls	r3, r3, #8
 8005260:	432b      	orrs	r3, r5
 8005262:	4d0f      	ldr	r5, [pc, #60]	@ (80052a0 <TIM_OC3_SetConfig+0x70>)
 8005264:	402b      	ands	r3, r5
 8005266:	4d0f      	ldr	r5, [pc, #60]	@ (80052a4 <TIM_OC3_SetConfig+0x74>)
 8005268:	694e      	ldr	r6, [r1, #20]
 800526a:	4015      	ands	r5, r2
 800526c:	698a      	ldr	r2, [r1, #24]
 800526e:	4332      	orrs	r2, r6
 8005270:	0112      	lsls	r2, r2, #4
 8005272:	432a      	orrs	r2, r5
 8005274:	e005      	b.n	8005282 <TIM_OC3_SetConfig+0x52>
 8005276:	4d0c      	ldr	r5, [pc, #48]	@ (80052a8 <TIM_OC3_SetConfig+0x78>)
 8005278:	42a8      	cmp	r0, r5
 800527a:	d0f4      	beq.n	8005266 <TIM_OC3_SetConfig+0x36>
 800527c:	4d0b      	ldr	r5, [pc, #44]	@ (80052ac <TIM_OC3_SetConfig+0x7c>)
 800527e:	42a8      	cmp	r0, r5
 8005280:	d0f1      	beq.n	8005266 <TIM_OC3_SetConfig+0x36>
 8005282:	6042      	str	r2, [r0, #4]
 8005284:	684a      	ldr	r2, [r1, #4]
 8005286:	61c4      	str	r4, [r0, #28]
 8005288:	63c2      	str	r2, [r0, #60]	@ 0x3c
 800528a:	6203      	str	r3, [r0, #32]
 800528c:	bd70      	pop	{r4, r5, r6, pc}
 800528e:	46c0      	nop			@ (mov r8, r8)
 8005290:	fffffeff 	.word	0xfffffeff
 8005294:	fffffdff 	.word	0xfffffdff
 8005298:	40012c00 	.word	0x40012c00
 800529c:	fffff7ff 	.word	0xfffff7ff
 80052a0:	fffffbff 	.word	0xfffffbff
 80052a4:	ffffcfff 	.word	0xffffcfff
 80052a8:	40014400 	.word	0x40014400
 80052ac:	40014800 	.word	0x40014800

080052b0 <TIM_OC4_SetConfig>:
 80052b0:	6a03      	ldr	r3, [r0, #32]
 80052b2:	4a12      	ldr	r2, [pc, #72]	@ (80052fc <TIM_OC4_SetConfig+0x4c>)
 80052b4:	b530      	push	{r4, r5, lr}
 80052b6:	4013      	ands	r3, r2
 80052b8:	6203      	str	r3, [r0, #32]
 80052ba:	6a04      	ldr	r4, [r0, #32]
 80052bc:	4d10      	ldr	r5, [pc, #64]	@ (8005300 <TIM_OC4_SetConfig+0x50>)
 80052be:	6843      	ldr	r3, [r0, #4]
 80052c0:	69c2      	ldr	r2, [r0, #28]
 80052c2:	402a      	ands	r2, r5
 80052c4:	680d      	ldr	r5, [r1, #0]
 80052c6:	022d      	lsls	r5, r5, #8
 80052c8:	4315      	orrs	r5, r2
 80052ca:	4a0e      	ldr	r2, [pc, #56]	@ (8005304 <TIM_OC4_SetConfig+0x54>)
 80052cc:	4014      	ands	r4, r2
 80052ce:	688a      	ldr	r2, [r1, #8]
 80052d0:	0312      	lsls	r2, r2, #12
 80052d2:	4322      	orrs	r2, r4
 80052d4:	4c0c      	ldr	r4, [pc, #48]	@ (8005308 <TIM_OC4_SetConfig+0x58>)
 80052d6:	42a0      	cmp	r0, r4
 80052d8:	d005      	beq.n	80052e6 <TIM_OC4_SetConfig+0x36>
 80052da:	4c0c      	ldr	r4, [pc, #48]	@ (800530c <TIM_OC4_SetConfig+0x5c>)
 80052dc:	42a0      	cmp	r0, r4
 80052de:	d002      	beq.n	80052e6 <TIM_OC4_SetConfig+0x36>
 80052e0:	4c0b      	ldr	r4, [pc, #44]	@ (8005310 <TIM_OC4_SetConfig+0x60>)
 80052e2:	42a0      	cmp	r0, r4
 80052e4:	d104      	bne.n	80052f0 <TIM_OC4_SetConfig+0x40>
 80052e6:	4c0b      	ldr	r4, [pc, #44]	@ (8005314 <TIM_OC4_SetConfig+0x64>)
 80052e8:	401c      	ands	r4, r3
 80052ea:	694b      	ldr	r3, [r1, #20]
 80052ec:	019b      	lsls	r3, r3, #6
 80052ee:	4323      	orrs	r3, r4
 80052f0:	6043      	str	r3, [r0, #4]
 80052f2:	684b      	ldr	r3, [r1, #4]
 80052f4:	61c5      	str	r5, [r0, #28]
 80052f6:	6403      	str	r3, [r0, #64]	@ 0x40
 80052f8:	6202      	str	r2, [r0, #32]
 80052fa:	bd30      	pop	{r4, r5, pc}
 80052fc:	ffffefff 	.word	0xffffefff
 8005300:	ffff8cff 	.word	0xffff8cff
 8005304:	ffffdfff 	.word	0xffffdfff
 8005308:	40012c00 	.word	0x40012c00
 800530c:	40014400 	.word	0x40014400
 8005310:	40014800 	.word	0x40014800
 8005314:	ffffbfff 	.word	0xffffbfff

08005318 <TIM_Base_SetConfig>:
 8005318:	4a1d      	ldr	r2, [pc, #116]	@ (8005390 <TIM_Base_SetConfig+0x78>)
 800531a:	b510      	push	{r4, lr}
 800531c:	6803      	ldr	r3, [r0, #0]
 800531e:	4290      	cmp	r0, r2
 8005320:	d006      	beq.n	8005330 <TIM_Base_SetConfig+0x18>
 8005322:	2480      	movs	r4, #128	@ 0x80
 8005324:	05e4      	lsls	r4, r4, #23
 8005326:	42a0      	cmp	r0, r4
 8005328:	d002      	beq.n	8005330 <TIM_Base_SetConfig+0x18>
 800532a:	4c1a      	ldr	r4, [pc, #104]	@ (8005394 <TIM_Base_SetConfig+0x7c>)
 800532c:	42a0      	cmp	r0, r4
 800532e:	d10c      	bne.n	800534a <TIM_Base_SetConfig+0x32>
 8005330:	2470      	movs	r4, #112	@ 0x70
 8005332:	43a3      	bics	r3, r4
 8005334:	684c      	ldr	r4, [r1, #4]
 8005336:	4323      	orrs	r3, r4
 8005338:	4290      	cmp	r0, r2
 800533a:	d00f      	beq.n	800535c <TIM_Base_SetConfig+0x44>
 800533c:	2480      	movs	r4, #128	@ 0x80
 800533e:	05e4      	lsls	r4, r4, #23
 8005340:	42a0      	cmp	r0, r4
 8005342:	d00b      	beq.n	800535c <TIM_Base_SetConfig+0x44>
 8005344:	4c13      	ldr	r4, [pc, #76]	@ (8005394 <TIM_Base_SetConfig+0x7c>)
 8005346:	42a0      	cmp	r0, r4
 8005348:	d008      	beq.n	800535c <TIM_Base_SetConfig+0x44>
 800534a:	4c13      	ldr	r4, [pc, #76]	@ (8005398 <TIM_Base_SetConfig+0x80>)
 800534c:	42a0      	cmp	r0, r4
 800534e:	d005      	beq.n	800535c <TIM_Base_SetConfig+0x44>
 8005350:	4c12      	ldr	r4, [pc, #72]	@ (800539c <TIM_Base_SetConfig+0x84>)
 8005352:	42a0      	cmp	r0, r4
 8005354:	d002      	beq.n	800535c <TIM_Base_SetConfig+0x44>
 8005356:	4c12      	ldr	r4, [pc, #72]	@ (80053a0 <TIM_Base_SetConfig+0x88>)
 8005358:	42a0      	cmp	r0, r4
 800535a:	d103      	bne.n	8005364 <TIM_Base_SetConfig+0x4c>
 800535c:	4c11      	ldr	r4, [pc, #68]	@ (80053a4 <TIM_Base_SetConfig+0x8c>)
 800535e:	401c      	ands	r4, r3
 8005360:	68cb      	ldr	r3, [r1, #12]
 8005362:	4323      	orrs	r3, r4
 8005364:	2480      	movs	r4, #128	@ 0x80
 8005366:	43a3      	bics	r3, r4
 8005368:	694c      	ldr	r4, [r1, #20]
 800536a:	4323      	orrs	r3, r4
 800536c:	6003      	str	r3, [r0, #0]
 800536e:	688b      	ldr	r3, [r1, #8]
 8005370:	62c3      	str	r3, [r0, #44]	@ 0x2c
 8005372:	680b      	ldr	r3, [r1, #0]
 8005374:	6283      	str	r3, [r0, #40]	@ 0x28
 8005376:	4290      	cmp	r0, r2
 8005378:	d005      	beq.n	8005386 <TIM_Base_SetConfig+0x6e>
 800537a:	4b08      	ldr	r3, [pc, #32]	@ (800539c <TIM_Base_SetConfig+0x84>)
 800537c:	4298      	cmp	r0, r3
 800537e:	d002      	beq.n	8005386 <TIM_Base_SetConfig+0x6e>
 8005380:	4b07      	ldr	r3, [pc, #28]	@ (80053a0 <TIM_Base_SetConfig+0x88>)
 8005382:	4298      	cmp	r0, r3
 8005384:	d101      	bne.n	800538a <TIM_Base_SetConfig+0x72>
 8005386:	690b      	ldr	r3, [r1, #16]
 8005388:	6303      	str	r3, [r0, #48]	@ 0x30
 800538a:	2301      	movs	r3, #1
 800538c:	6143      	str	r3, [r0, #20]
 800538e:	bd10      	pop	{r4, pc}
 8005390:	40012c00 	.word	0x40012c00
 8005394:	40000400 	.word	0x40000400
 8005398:	40002000 	.word	0x40002000
 800539c:	40014400 	.word	0x40014400
 80053a0:	40014800 	.word	0x40014800
 80053a4:	fffffcff 	.word	0xfffffcff

080053a8 <HAL_TIM_PWM_Init>:
 80053a8:	b570      	push	{r4, r5, r6, lr}
 80053aa:	0004      	movs	r4, r0
 80053ac:	2001      	movs	r0, #1
 80053ae:	2c00      	cmp	r4, #0
 80053b0:	d021      	beq.n	80053f6 <HAL_TIM_PWM_Init+0x4e>
 80053b2:	0025      	movs	r5, r4
 80053b4:	353d      	adds	r5, #61	@ 0x3d
 80053b6:	782b      	ldrb	r3, [r5, #0]
 80053b8:	b2da      	uxtb	r2, r3
 80053ba:	2b00      	cmp	r3, #0
 80053bc:	d105      	bne.n	80053ca <HAL_TIM_PWM_Init+0x22>
 80053be:	0023      	movs	r3, r4
 80053c0:	333c      	adds	r3, #60	@ 0x3c
 80053c2:	0020      	movs	r0, r4
 80053c4:	701a      	strb	r2, [r3, #0]
 80053c6:	f7fe fe41 	bl	800404c <HAL_TIM_PWM_MspInit>
 80053ca:	2302      	movs	r3, #2
 80053cc:	702b      	strb	r3, [r5, #0]
 80053ce:	6820      	ldr	r0, [r4, #0]
 80053d0:	1d21      	adds	r1, r4, #4
 80053d2:	f7ff ffa1 	bl	8005318 <TIM_Base_SetConfig>
 80053d6:	0022      	movs	r2, r4
 80053d8:	2301      	movs	r3, #1
 80053da:	2000      	movs	r0, #0
 80053dc:	3246      	adds	r2, #70	@ 0x46
 80053de:	7013      	strb	r3, [r2, #0]
 80053e0:	3445      	adds	r4, #69	@ 0x45
 80053e2:	3a08      	subs	r2, #8
 80053e4:	7013      	strb	r3, [r2, #0]
 80053e6:	7053      	strb	r3, [r2, #1]
 80053e8:	7093      	strb	r3, [r2, #2]
 80053ea:	70d3      	strb	r3, [r2, #3]
 80053ec:	7113      	strb	r3, [r2, #4]
 80053ee:	7153      	strb	r3, [r2, #5]
 80053f0:	7193      	strb	r3, [r2, #6]
 80053f2:	7023      	strb	r3, [r4, #0]
 80053f4:	702b      	strb	r3, [r5, #0]
 80053f6:	bd70      	pop	{r4, r5, r6, pc}

080053f8 <HAL_TIM_Encoder_Init>:
 80053f8:	b5f7      	push	{r0, r1, r2, r4, r5, r6, r7, lr}
 80053fa:	0004      	movs	r4, r0
 80053fc:	000d      	movs	r5, r1
 80053fe:	2001      	movs	r0, #1
 8005400:	2c00      	cmp	r4, #0
 8005402:	d047      	beq.n	8005494 <HAL_TIM_Encoder_Init+0x9c>
 8005404:	0026      	movs	r6, r4
 8005406:	363d      	adds	r6, #61	@ 0x3d
 8005408:	7833      	ldrb	r3, [r6, #0]
 800540a:	b2da      	uxtb	r2, r3
 800540c:	2b00      	cmp	r3, #0
 800540e:	d105      	bne.n	800541c <HAL_TIM_Encoder_Init+0x24>
 8005410:	0023      	movs	r3, r4
 8005412:	333c      	adds	r3, #60	@ 0x3c
 8005414:	0020      	movs	r0, r4
 8005416:	701a      	strb	r2, [r3, #0]
 8005418:	f7fe fe8e 	bl	8004138 <HAL_TIM_Encoder_MspInit>
 800541c:	2302      	movs	r3, #2
 800541e:	0021      	movs	r1, r4
 8005420:	7033      	strb	r3, [r6, #0]
 8005422:	c980      	ldmia	r1!, {r7}
 8005424:	4a1c      	ldr	r2, [pc, #112]	@ (8005498 <HAL_TIM_Encoder_Init+0xa0>)
 8005426:	68bb      	ldr	r3, [r7, #8]
 8005428:	0038      	movs	r0, r7
 800542a:	4013      	ands	r3, r2
 800542c:	60bb      	str	r3, [r7, #8]
 800542e:	f7ff ff73 	bl	8005318 <TIM_Base_SetConfig>
 8005432:	68b9      	ldr	r1, [r7, #8]
 8005434:	682a      	ldr	r2, [r5, #0]
 8005436:	69bb      	ldr	r3, [r7, #24]
 8005438:	4311      	orrs	r1, r2
 800543a:	4a18      	ldr	r2, [pc, #96]	@ (800549c <HAL_TIM_Encoder_Init+0xa4>)
 800543c:	9101      	str	r1, [sp, #4]
 800543e:	4013      	ands	r3, r2
 8005440:	69aa      	ldr	r2, [r5, #24]
 8005442:	68a9      	ldr	r1, [r5, #8]
 8005444:	0212      	lsls	r2, r2, #8
 8005446:	430a      	orrs	r2, r1
 8005448:	431a      	orrs	r2, r3
 800544a:	4b15      	ldr	r3, [pc, #84]	@ (80054a0 <HAL_TIM_Encoder_Init+0xa8>)
 800544c:	6929      	ldr	r1, [r5, #16]
 800544e:	401a      	ands	r2, r3
 8005450:	69eb      	ldr	r3, [r5, #28]
 8005452:	0109      	lsls	r1, r1, #4
 8005454:	021b      	lsls	r3, r3, #8
 8005456:	430b      	orrs	r3, r1
 8005458:	68e9      	ldr	r1, [r5, #12]
 800545a:	6a38      	ldr	r0, [r7, #32]
 800545c:	430b      	orrs	r3, r1
 800545e:	6a29      	ldr	r1, [r5, #32]
 8005460:	0309      	lsls	r1, r1, #12
 8005462:	430b      	orrs	r3, r1
 8005464:	4313      	orrs	r3, r2
 8005466:	22aa      	movs	r2, #170	@ 0xaa
 8005468:	4390      	bics	r0, r2
 800546a:	696a      	ldr	r2, [r5, #20]
 800546c:	686d      	ldr	r5, [r5, #4]
 800546e:	0112      	lsls	r2, r2, #4
 8005470:	9901      	ldr	r1, [sp, #4]
 8005472:	432a      	orrs	r2, r5
 8005474:	4302      	orrs	r2, r0
 8005476:	60b9      	str	r1, [r7, #8]
 8005478:	61bb      	str	r3, [r7, #24]
 800547a:	623a      	str	r2, [r7, #32]
 800547c:	0022      	movs	r2, r4
 800547e:	2301      	movs	r3, #1
 8005480:	2000      	movs	r0, #0
 8005482:	3246      	adds	r2, #70	@ 0x46
 8005484:	7013      	strb	r3, [r2, #0]
 8005486:	3443      	adds	r4, #67	@ 0x43
 8005488:	3a08      	subs	r2, #8
 800548a:	7013      	strb	r3, [r2, #0]
 800548c:	7053      	strb	r3, [r2, #1]
 800548e:	7113      	strb	r3, [r2, #4]
 8005490:	7023      	strb	r3, [r4, #0]
 8005492:	7033      	strb	r3, [r6, #0]
 8005494:	bdfe      	pop	{r1, r2, r3, r4, r5, r6, r7, pc}
 8005496:	46c0      	nop			@ (mov r8, r8)
 8005498:	ffffbff8 	.word	0xffffbff8
 800549c:	fffffcfc 	.word	0xfffffcfc
 80054a0:	ffff0303 	.word	0xffff0303

080054a4 <TIM_OC2_SetConfig>:
 80054a4:	2210      	movs	r2, #16
 80054a6:	6a03      	ldr	r3, [r0, #32]
 80054a8:	b570      	push	{r4, r5, r6, lr}
 80054aa:	4393      	bics	r3, r2
 80054ac:	6203      	str	r3, [r0, #32]
 80054ae:	6a05      	ldr	r5, [r0, #32]
 80054b0:	4c15      	ldr	r4, [pc, #84]	@ (8005508 <TIM_OC2_SetConfig+0x64>)
 80054b2:	6842      	ldr	r2, [r0, #4]
 80054b4:	6983      	ldr	r3, [r0, #24]
 80054b6:	4023      	ands	r3, r4
 80054b8:	680c      	ldr	r4, [r1, #0]
 80054ba:	0224      	lsls	r4, r4, #8
 80054bc:	431c      	orrs	r4, r3
 80054be:	2320      	movs	r3, #32
 80054c0:	439d      	bics	r5, r3
 80054c2:	688b      	ldr	r3, [r1, #8]
 80054c4:	011b      	lsls	r3, r3, #4
 80054c6:	432b      	orrs	r3, r5
 80054c8:	4d10      	ldr	r5, [pc, #64]	@ (800550c <TIM_OC2_SetConfig+0x68>)
 80054ca:	42a8      	cmp	r0, r5
 80054cc:	d10f      	bne.n	80054ee <TIM_OC2_SetConfig+0x4a>
 80054ce:	2580      	movs	r5, #128	@ 0x80
 80054d0:	43ab      	bics	r3, r5
 80054d2:	001e      	movs	r6, r3
 80054d4:	68cb      	ldr	r3, [r1, #12]
 80054d6:	3d40      	subs	r5, #64	@ 0x40
 80054d8:	011b      	lsls	r3, r3, #4
 80054da:	4333      	orrs	r3, r6
 80054dc:	43ab      	bics	r3, r5
 80054de:	4d0c      	ldr	r5, [pc, #48]	@ (8005510 <TIM_OC2_SetConfig+0x6c>)
 80054e0:	694e      	ldr	r6, [r1, #20]
 80054e2:	4015      	ands	r5, r2
 80054e4:	698a      	ldr	r2, [r1, #24]
 80054e6:	4332      	orrs	r2, r6
 80054e8:	0092      	lsls	r2, r2, #2
 80054ea:	432a      	orrs	r2, r5
 80054ec:	e005      	b.n	80054fa <TIM_OC2_SetConfig+0x56>
 80054ee:	4d09      	ldr	r5, [pc, #36]	@ (8005514 <TIM_OC2_SetConfig+0x70>)
 80054f0:	42a8      	cmp	r0, r5
 80054f2:	d0f4      	beq.n	80054de <TIM_OC2_SetConfig+0x3a>
 80054f4:	4d08      	ldr	r5, [pc, #32]	@ (8005518 <TIM_OC2_SetConfig+0x74>)
 80054f6:	42a8      	cmp	r0, r5
 80054f8:	d0f1      	beq.n	80054de <TIM_OC2_SetConfig+0x3a>
 80054fa:	6042      	str	r2, [r0, #4]
 80054fc:	684a      	ldr	r2, [r1, #4]
 80054fe:	6184      	str	r4, [r0, #24]
 8005500:	6382      	str	r2, [r0, #56]	@ 0x38
 8005502:	6203      	str	r3, [r0, #32]
 8005504:	bd70      	pop	{r4, r5, r6, pc}
 8005506:	46c0      	nop			@ (mov r8, r8)
 8005508:	ffff8cff 	.word	0xffff8cff
 800550c:	40012c00 	.word	0x40012c00
 8005510:	fffff3ff 	.word	0xfffff3ff
 8005514:	40014400 	.word	0x40014400
 8005518:	40014800 	.word	0x40014800

0800551c <HAL_TIM_PWM_ConfigChannel>:
 800551c:	b5f8      	push	{r3, r4, r5, r6, r7, lr}
 800551e:	0006      	movs	r6, r0
 8005520:	363c      	adds	r6, #60	@ 0x3c
 8005522:	0015      	movs	r5, r2
 8005524:	7832      	ldrb	r2, [r6, #0]
 8005526:	0003      	movs	r3, r0
 8005528:	000c      	movs	r4, r1
 800552a:	2002      	movs	r0, #2
 800552c:	2a01      	cmp	r2, #1
 800552e:	d00a      	beq.n	8005546 <HAL_TIM_PWM_ConfigChannel+0x2a>
 8005530:	3801      	subs	r0, #1
 8005532:	7030      	strb	r0, [r6, #0]
 8005534:	2d08      	cmp	r5, #8
 8005536:	d03f      	beq.n	80055b8 <HAL_TIM_PWM_ConfigChannel+0x9c>
 8005538:	d806      	bhi.n	8005548 <HAL_TIM_PWM_ConfigChannel+0x2c>
 800553a:	2d00      	cmp	r5, #0
 800553c:	d019      	beq.n	8005572 <HAL_TIM_PWM_ConfigChannel+0x56>
 800553e:	2d04      	cmp	r5, #4
 8005540:	d029      	beq.n	8005596 <HAL_TIM_PWM_ConfigChannel+0x7a>
 8005542:	2300      	movs	r3, #0
 8005544:	7033      	strb	r3, [r6, #0]
 8005546:	bdf8      	pop	{r3, r4, r5, r6, r7, pc}
 8005548:	2d0c      	cmp	r5, #12
 800554a:	d1fa      	bne.n	8005542 <HAL_TIM_PWM_ConfigChannel+0x26>
 800554c:	681d      	ldr	r5, [r3, #0]
 800554e:	0028      	movs	r0, r5
 8005550:	f7ff feae 	bl	80052b0 <TIM_OC4_SetConfig>
 8005554:	2380      	movs	r3, #128	@ 0x80
 8005556:	69ea      	ldr	r2, [r5, #28]
 8005558:	011b      	lsls	r3, r3, #4
 800555a:	4313      	orrs	r3, r2
 800555c:	61eb      	str	r3, [r5, #28]
 800555e:	69eb      	ldr	r3, [r5, #28]
 8005560:	4a1d      	ldr	r2, [pc, #116]	@ (80055d8 <HAL_TIM_PWM_ConfigChannel+0xbc>)
 8005562:	4013      	ands	r3, r2
 8005564:	61eb      	str	r3, [r5, #28]
 8005566:	6923      	ldr	r3, [r4, #16]
 8005568:	69ea      	ldr	r2, [r5, #28]
 800556a:	021b      	lsls	r3, r3, #8
 800556c:	4313      	orrs	r3, r2
 800556e:	61eb      	str	r3, [r5, #28]
 8005570:	e00f      	b.n	8005592 <HAL_TIM_PWM_ConfigChannel+0x76>
 8005572:	681d      	ldr	r5, [r3, #0]
 8005574:	0028      	movs	r0, r5
 8005576:	f7ff fe1f 	bl	80051b8 <TIM_OC1_SetConfig>
 800557a:	2308      	movs	r3, #8
 800557c:	69aa      	ldr	r2, [r5, #24]
 800557e:	4313      	orrs	r3, r2
 8005580:	2204      	movs	r2, #4
 8005582:	61ab      	str	r3, [r5, #24]
 8005584:	69ab      	ldr	r3, [r5, #24]
 8005586:	4393      	bics	r3, r2
 8005588:	61ab      	str	r3, [r5, #24]
 800558a:	69ab      	ldr	r3, [r5, #24]
 800558c:	6922      	ldr	r2, [r4, #16]
 800558e:	4313      	orrs	r3, r2
 8005590:	61ab      	str	r3, [r5, #24]
 8005592:	2000      	movs	r0, #0
 8005594:	e7d5      	b.n	8005542 <HAL_TIM_PWM_ConfigChannel+0x26>
 8005596:	681d      	ldr	r5, [r3, #0]
 8005598:	0028      	movs	r0, r5
 800559a:	f7ff ff83 	bl	80054a4 <TIM_OC2_SetConfig>
 800559e:	2380      	movs	r3, #128	@ 0x80
 80055a0:	69aa      	ldr	r2, [r5, #24]
 80055a2:	011b      	lsls	r3, r3, #4
 80055a4:	4313      	orrs	r3, r2
 80055a6:	61ab      	str	r3, [r5, #24]
 80055a8:	69ab      	ldr	r3, [r5, #24]
 80055aa:	4a0b      	ldr	r2, [pc, #44]	@ (80055d8 <HAL_TIM_PWM_ConfigChannel+0xbc>)
 80055ac:	4013      	ands	r3, r2
 80055ae:	61ab      	str	r3, [r5, #24]
 80055b0:	6923      	ldr	r3, [r4, #16]
 80055b2:	69aa      	ldr	r2, [r5, #24]
 80055b4:	021b      	lsls	r3, r3, #8
 80055b6:	e7ea      	b.n	800558e <HAL_TIM_PWM_ConfigChannel+0x72>
 80055b8:	681f      	ldr	r7, [r3, #0]
 80055ba:	0038      	movs	r0, r7
 80055bc:	f7ff fe38 	bl	8005230 <TIM_OC3_SetConfig>
 80055c0:	2204      	movs	r2, #4
 80055c2:	69fb      	ldr	r3, [r7, #28]
 80055c4:	431d      	orrs	r5, r3
 80055c6:	61fd      	str	r5, [r7, #28]
 80055c8:	69fb      	ldr	r3, [r7, #28]
 80055ca:	4393      	bics	r3, r2
 80055cc:	61fb      	str	r3, [r7, #28]
 80055ce:	69fb      	ldr	r3, [r7, #28]
 80055d0:	6922      	ldr	r2, [r4, #16]
 80055d2:	4313      	orrs	r3, r2
 80055d4:	61fb      	str	r3, [r7, #28]
 80055d6:	e7dc      	b.n	8005592 <HAL_TIM_PWM_ConfigChannel+0x76>
 80055d8:	fffffbff 	.word	0xfffffbff

080055dc <HAL_TIMEx_MasterConfigSynchronization>:
 80055dc:	b570      	push	{r4, r5, r6, lr}
 80055de:	0004      	movs	r4, r0
 80055e0:	2202      	movs	r2, #2
 80055e2:	343c      	adds	r4, #60	@ 0x3c
 80055e4:	7825      	ldrb	r5, [r4, #0]
 80055e6:	0003      	movs	r3, r0
 80055e8:	0010      	movs	r0, r2
 80055ea:	2d01      	cmp	r5, #1
 80055ec:	d01d      	beq.n	800562a <HAL_TIMEx_MasterConfigSynchronization+0x4e>
 80055ee:	001d      	movs	r5, r3
 80055f0:	2670      	movs	r6, #112	@ 0x70
 80055f2:	353d      	adds	r5, #61	@ 0x3d
 80055f4:	702a      	strb	r2, [r5, #0]
 80055f6:	681b      	ldr	r3, [r3, #0]
 80055f8:	6858      	ldr	r0, [r3, #4]
 80055fa:	689a      	ldr	r2, [r3, #8]
 80055fc:	43b0      	bics	r0, r6
 80055fe:	680e      	ldr	r6, [r1, #0]
 8005600:	4330      	orrs	r0, r6
 8005602:	6058      	str	r0, [r3, #4]
 8005604:	4809      	ldr	r0, [pc, #36]	@ (800562c <HAL_TIMEx_MasterConfigSynchronization+0x50>)
 8005606:	4283      	cmp	r3, r0
 8005608:	d006      	beq.n	8005618 <HAL_TIMEx_MasterConfigSynchronization+0x3c>
 800560a:	2080      	movs	r0, #128	@ 0x80
 800560c:	05c0      	lsls	r0, r0, #23
 800560e:	4283      	cmp	r3, r0
 8005610:	d002      	beq.n	8005618 <HAL_TIMEx_MasterConfigSynchronization+0x3c>
 8005612:	4807      	ldr	r0, [pc, #28]	@ (8005630 <HAL_TIMEx_MasterConfigSynchronization+0x54>)
 8005614:	4283      	cmp	r3, r0
 8005616:	d104      	bne.n	8005622 <HAL_TIMEx_MasterConfigSynchronization+0x46>
 8005618:	2080      	movs	r0, #128	@ 0x80
 800561a:	6849      	ldr	r1, [r1, #4]
 800561c:	4382      	bics	r2, r0
 800561e:	430a      	orrs	r2, r1
 8005620:	609a      	str	r2, [r3, #8]
 8005622:	2301      	movs	r3, #1
 8005624:	2000      	movs	r0, #0
 8005626:	702b      	strb	r3, [r5, #0]
 8005628:	7020      	strb	r0, [r4, #0]
 800562a:	bd70      	pop	{r4, r5, r6, pc}
 800562c:	40012c00 	.word	0x40012c00
 8005630:	40000400 	.word	0x40000400

08005634 <HAL_TIMEx_ConfigBreakDeadTime>:
 8005634:	b510      	push	{r4, lr}
 8005636:	0004      	movs	r4, r0
 8005638:	343c      	adds	r4, #60	@ 0x3c
 800563a:	7823      	ldrb	r3, [r4, #0]
 800563c:	0002      	movs	r2, r0
 800563e:	2002      	movs	r0, #2
 8005640:	2b01      	cmp	r3, #1
 8005642:	d01c      	beq.n	800567e <HAL_TIMEx_ConfigBreakDeadTime+0x4a>
 8005644:	68cb      	ldr	r3, [r1, #12]
 8005646:	480e      	ldr	r0, [pc, #56]	@ (8005680 <HAL_TIMEx_ConfigBreakDeadTime+0x4c>)
 8005648:	6812      	ldr	r2, [r2, #0]
 800564a:	4003      	ands	r3, r0
 800564c:	6888      	ldr	r0, [r1, #8]
 800564e:	4303      	orrs	r3, r0
 8005650:	480c      	ldr	r0, [pc, #48]	@ (8005684 <HAL_TIMEx_ConfigBreakDeadTime+0x50>)
 8005652:	4003      	ands	r3, r0
 8005654:	6848      	ldr	r0, [r1, #4]
 8005656:	4303      	orrs	r3, r0
 8005658:	480b      	ldr	r0, [pc, #44]	@ (8005688 <HAL_TIMEx_ConfigBreakDeadTime+0x54>)
 800565a:	4003      	ands	r3, r0
 800565c:	6808      	ldr	r0, [r1, #0]
 800565e:	4303      	orrs	r3, r0
 8005660:	480a      	ldr	r0, [pc, #40]	@ (800568c <HAL_TIMEx_ConfigBreakDeadTime+0x58>)
 8005662:	4003      	ands	r3, r0
 8005664:	6908      	ldr	r0, [r1, #16]
 8005666:	4303      	orrs	r3, r0
 8005668:	4809      	ldr	r0, [pc, #36]	@ (8005690 <HAL_TIMEx_ConfigBreakDeadTime+0x5c>)
 800566a:	4003      	ands	r3, r0
 800566c:	6948      	ldr	r0, [r1, #20]
 800566e:	69c9      	ldr	r1, [r1, #28]
 8005670:	4303      	orrs	r3, r0
 8005672:	4808      	ldr	r0, [pc, #32]	@ (8005694 <HAL_TIMEx_ConfigBreakDeadTime+0x60>)
 8005674:	4003      	ands	r3, r0
 8005676:	2000      	movs	r0, #0
 8005678:	430b      	orrs	r3, r1
 800567a:	6453      	str	r3, [r2, #68]	@ 0x44
 800567c:	7020      	strb	r0, [r4, #0]
 800567e:	bd10      	pop	{r4, pc}
 8005680:	fffffcff 	.word	0xfffffcff
 8005684:	fffffbff 	.word	0xfffffbff
 8005688:	fffff7ff 	.word	0xfffff7ff
 800568c:	ffffefff 	.word	0xffffefff
 8005690:	ffffdfff 	.word	0xffffdfff
 8005694:	ffffbfff 	.word	0xffffbfff

08005698 <UART_EndRxTransfer>:
 8005698:	b530      	push	{r4, r5, lr}
 800569a:	f3ef 8410 	mrs	r4, PRIMASK
 800569e:	2201      	movs	r2, #1
 80056a0:	f382 8810 	msr	PRIMASK, r2
 80056a4:	6801      	ldr	r1, [r0, #0]
 80056a6:	4d12      	ldr	r5, [pc, #72]	@ (80056f0 <UART_EndRxTransfer+0x58>)
 80056a8:	680b      	ldr	r3, [r1, #0]
 80056aa:	402b      	ands	r3, r5
 80056ac:	600b      	str	r3, [r1, #0]
 80056ae:	f384 8810 	msr	PRIMASK, r4
 80056b2:	f3ef 8410 	mrs	r4, PRIMASK
 80056b6:	f382 8810 	msr	PRIMASK, r2
 80056ba:	6801      	ldr	r1, [r0, #0]
 80056bc:	688b      	ldr	r3, [r1, #8]
 80056be:	4393      	bics	r3, r2
 80056c0:	608b      	str	r3, [r1, #8]
 80056c2:	f384 8810 	msr	PRIMASK, r4
 80056c6:	6e03      	ldr	r3, [r0, #96]	@ 0x60
 80056c8:	4293      	cmp	r3, r2
 80056ca:	d10a      	bne.n	80056e2 <UART_EndRxTransfer+0x4a>
 80056cc:	f3ef 8110 	mrs	r1, PRIMASK
 80056d0:	f383 8810 	msr	PRIMASK, r3
 80056d4:	2410      	movs	r4, #16
 80056d6:	6802      	ldr	r2, [r0, #0]
 80056d8:	6813      	ldr	r3, [r2, #0]
 80056da:	43a3      	bics	r3, r4
 80056dc:	6013      	str	r3, [r2, #0]
 80056de:	f381 8810 	msr	PRIMASK, r1
 80056e2:	2220      	movs	r2, #32
 80056e4:	1d03      	adds	r3, r0, #4
 80056e6:	67da      	str	r2, [r3, #124]	@ 0x7c
 80056e8:	2300      	movs	r3, #0
 80056ea:	6603      	str	r3, [r0, #96]	@ 0x60
 80056ec:	6683      	str	r3, [r0, #104]	@ 0x68
 80056ee:	bd30      	pop	{r4, r5, pc}
 80056f0:	fffffedf 	.word	0xfffffedf

080056f4 <UART_SetConfig>:
 80056f4:	b570      	push	{r4, r5, r6, lr}
 80056f6:	0004      	movs	r4, r0
 80056f8:	6925      	ldr	r5, [r4, #16]
 80056fa:	68a2      	ldr	r2, [r4, #8]
 80056fc:	6801      	ldr	r1, [r0, #0]
 80056fe:	432a      	orrs	r2, r5
 8005700:	6965      	ldr	r5, [r4, #20]
 8005702:	69c3      	ldr	r3, [r0, #28]
 8005704:	432a      	orrs	r2, r5
 8005706:	6808      	ldr	r0, [r1, #0]
 8005708:	4d38      	ldr	r5, [pc, #224]	@ (80057ec <UART_SetConfig+0xf8>)
 800570a:	431a      	orrs	r2, r3
 800570c:	4028      	ands	r0, r5
 800570e:	4302      	orrs	r2, r0
 8005710:	600a      	str	r2, [r1, #0]
 8005712:	684a      	ldr	r2, [r1, #4]
 8005714:	4836      	ldr	r0, [pc, #216]	@ (80057f0 <UART_SetConfig+0xfc>)
 8005716:	6a25      	ldr	r5, [r4, #32]
 8005718:	4002      	ands	r2, r0
 800571a:	68e0      	ldr	r0, [r4, #12]
 800571c:	4302      	orrs	r2, r0
 800571e:	604a      	str	r2, [r1, #4]
 8005720:	69a2      	ldr	r2, [r4, #24]
 8005722:	6888      	ldr	r0, [r1, #8]
 8005724:	432a      	orrs	r2, r5
 8005726:	4d33      	ldr	r5, [pc, #204]	@ (80057f4 <UART_SetConfig+0x100>)
 8005728:	4028      	ands	r0, r5
 800572a:	4302      	orrs	r2, r0
 800572c:	608a      	str	r2, [r1, #8]
 800572e:	2103      	movs	r1, #3
 8005730:	4a31      	ldr	r2, [pc, #196]	@ (80057f8 <UART_SetConfig+0x104>)
 8005732:	6b12      	ldr	r2, [r2, #48]	@ 0x30
 8005734:	400a      	ands	r2, r1
 8005736:	2180      	movs	r1, #128	@ 0x80
 8005738:	3a01      	subs	r2, #1
 800573a:	0209      	lsls	r1, r1, #8
 800573c:	2a02      	cmp	r2, #2
 800573e:	d849      	bhi.n	80057d4 <UART_SetConfig+0xe0>
 8005740:	482e      	ldr	r0, [pc, #184]	@ (80057fc <UART_SetConfig+0x108>)
 8005742:	5c80      	ldrb	r0, [r0, r2]
 8005744:	428b      	cmp	r3, r1
 8005746:	d121      	bne.n	800578c <UART_SetConfig+0x98>
 8005748:	2808      	cmp	r0, #8
 800574a:	d841      	bhi.n	80057d0 <UART_SetConfig+0xdc>
 800574c:	f7fa fcdc 	bl	8000108 <__gnu_thumb1_case_uqi>
 8005750:	40084044 	.word	0x40084044
 8005754:	40404005 	.word	0x40404005
 8005758:	09          	.byte	0x09
 8005759:	00          	.byte	0x00
 800575a:	f7ff fbe7 	bl	8004f2c <HAL_RCC_GetSysClockFreq>
 800575e:	e03d      	b.n	80057dc <UART_SetConfig+0xe8>
 8005760:	4b27      	ldr	r3, [pc, #156]	@ (8005800 <UART_SetConfig+0x10c>)
 8005762:	6861      	ldr	r1, [r4, #4]
 8005764:	005b      	lsls	r3, r3, #1
 8005766:	0848      	lsrs	r0, r1, #1
 8005768:	1818      	adds	r0, r3, r0
 800576a:	f7fa fce1 	bl	8000130 <__udivsi3>
 800576e:	0002      	movs	r2, r0
 8005770:	4b24      	ldr	r3, [pc, #144]	@ (8005804 <UART_SetConfig+0x110>)
 8005772:	3a10      	subs	r2, #16
 8005774:	429a      	cmp	r2, r3
 8005776:	d82b      	bhi.n	80057d0 <UART_SetConfig+0xdc>
 8005778:	230f      	movs	r3, #15
 800577a:	0002      	movs	r2, r0
 800577c:	0700      	lsls	r0, r0, #28
 800577e:	439a      	bics	r2, r3
 8005780:	b293      	uxth	r3, r2
 8005782:	0f40      	lsrs	r0, r0, #29
 8005784:	6822      	ldr	r2, [r4, #0]
 8005786:	4303      	orrs	r3, r0
 8005788:	60d3      	str	r3, [r2, #12]
 800578a:	e029      	b.n	80057e0 <UART_SetConfig+0xec>
 800578c:	2808      	cmp	r0, #8
 800578e:	d81f      	bhi.n	80057d0 <UART_SetConfig+0xdc>
 8005790:	f7fa fcba 	bl	8000108 <__gnu_thumb1_case_uqi>
 8005794:	1e051e13 	.word	0x1e051e13
 8005798:	1e1e1e18 	.word	0x1e1e1e18
 800579c:	1b          	.byte	0x1b
 800579d:	00          	.byte	0x00
 800579e:	4818      	ldr	r0, [pc, #96]	@ (8005800 <UART_SetConfig+0x10c>)
 80057a0:	6861      	ldr	r1, [r4, #4]
 80057a2:	084b      	lsrs	r3, r1, #1
 80057a4:	1818      	adds	r0, r3, r0
 80057a6:	f7fa fcc3 	bl	8000130 <__udivsi3>
 80057aa:	0002      	movs	r2, r0
 80057ac:	4b15      	ldr	r3, [pc, #84]	@ (8005804 <UART_SetConfig+0x110>)
 80057ae:	3a10      	subs	r2, #16
 80057b0:	429a      	cmp	r2, r3
 80057b2:	d80d      	bhi.n	80057d0 <UART_SetConfig+0xdc>
 80057b4:	6823      	ldr	r3, [r4, #0]
 80057b6:	60d8      	str	r0, [r3, #12]
 80057b8:	e012      	b.n	80057e0 <UART_SetConfig+0xec>
 80057ba:	f7ff fc67 	bl	800508c <HAL_RCC_GetPCLK1Freq>
 80057be:	2800      	cmp	r0, #0
 80057c0:	d00e      	beq.n	80057e0 <UART_SetConfig+0xec>
 80057c2:	e7ed      	b.n	80057a0 <UART_SetConfig+0xac>
 80057c4:	f7ff fbb2 	bl	8004f2c <HAL_RCC_GetSysClockFreq>
 80057c8:	e7f9      	b.n	80057be <UART_SetConfig+0xca>
 80057ca:	2080      	movs	r0, #128	@ 0x80
 80057cc:	0200      	lsls	r0, r0, #8
 80057ce:	e7e7      	b.n	80057a0 <UART_SetConfig+0xac>
 80057d0:	2001      	movs	r0, #1
 80057d2:	e006      	b.n	80057e2 <UART_SetConfig+0xee>
 80057d4:	428b      	cmp	r3, r1
 80057d6:	d1f0      	bne.n	80057ba <UART_SetConfig+0xc6>
 80057d8:	f7ff fc58 	bl	800508c <HAL_RCC_GetPCLK1Freq>
 80057dc:	1e03      	subs	r3, r0, #0
 80057de:	d1c0      	bne.n	8005762 <UART_SetConfig+0x6e>
 80057e0:	2000      	movs	r0, #0
 80057e2:	2300      	movs	r3, #0
 80057e4:	66a3      	str	r3, [r4, #104]	@ 0x68
 80057e6:	66e3      	str	r3, [r4, #108]	@ 0x6c
 80057e8:	bd70      	pop	{r4, r5, r6, pc}
 80057ea:	46c0      	nop			@ (mov r8, r8)
 80057ec:	ffff69f3 	.word	0xffff69f3
 80057f0:	ffffcfff 	.word	0xffffcfff
 80057f4:	fffff4ff 	.word	0xfffff4ff
 80057f8:	40021000 	.word	0x40021000
 80057fc:	08006a28 	.word	0x08006a28
 8005800:	007a1200 	.word	0x007a1200
 8005804:	0000ffef 	.word	0x0000ffef

08005808 <UART_AdvFeatureConfig>:
 8005808:	6a43      	ldr	r3, [r0, #36]	@ 0x24
 800580a:	b530      	push	{r4, r5, lr}
 800580c:	07da      	lsls	r2, r3, #31
 800580e:	d506      	bpl.n	800581e <UART_AdvFeatureConfig+0x16>
 8005810:	6801      	ldr	r1, [r0, #0]
 8005812:	4c28      	ldr	r4, [pc, #160]	@ (80058b4 <UART_AdvFeatureConfig+0xac>)
 8005814:	684a      	ldr	r2, [r1, #4]
 8005816:	4022      	ands	r2, r4
 8005818:	6a84      	ldr	r4, [r0, #40]	@ 0x28
 800581a:	4322      	orrs	r2, r4
 800581c:	604a      	str	r2, [r1, #4]
 800581e:	079a      	lsls	r2, r3, #30
 8005820:	d506      	bpl.n	8005830 <UART_AdvFeatureConfig+0x28>
 8005822:	6801      	ldr	r1, [r0, #0]
 8005824:	4c24      	ldr	r4, [pc, #144]	@ (80058b8 <UART_AdvFeatureConfig+0xb0>)
 8005826:	684a      	ldr	r2, [r1, #4]
 8005828:	4022      	ands	r2, r4
 800582a:	6ac4      	ldr	r4, [r0, #44]	@ 0x2c
 800582c:	4322      	orrs	r2, r4
 800582e:	604a      	str	r2, [r1, #4]
 8005830:	075a      	lsls	r2, r3, #29
 8005832:	d506      	bpl.n	8005842 <UART_AdvFeatureConfig+0x3a>
 8005834:	6801      	ldr	r1, [r0, #0]
 8005836:	4c21      	ldr	r4, [pc, #132]	@ (80058bc <UART_AdvFeatureConfig+0xb4>)
 8005838:	684a      	ldr	r2, [r1, #4]
 800583a:	4022      	ands	r2, r4
 800583c:	6b04      	ldr	r4, [r0, #48]	@ 0x30
 800583e:	4322      	orrs	r2, r4
 8005840:	604a      	str	r2, [r1, #4]
 8005842:	071a      	lsls	r2, r3, #28
 8005844:	d506      	bpl.n	8005854 <UART_AdvFeatureConfig+0x4c>
 8005846:	6801      	ldr	r1, [r0, #0]
 8005848:	4c1d      	ldr	r4, [pc, #116]	@ (80058c0 <UART_AdvFeatureConfig+0xb8>)
 800584a:	684a      	ldr	r2, [r1, #4]
 800584c:	4022      	ands	r2, r4
 800584e:	6b44      	ldr	r4, [r0, #52]	@ 0x34
 8005850:	4322      	orrs	r2, r4
 8005852:	604a      	str	r2, [r1, #4]
 8005854:	06da      	lsls	r2, r3, #27
 8005856:	d506      	bpl.n	8005866 <UART_AdvFeatureConfig+0x5e>
 8005858:	6801      	ldr	r1, [r0, #0]
 800585a:	4c1a      	ldr	r4, [pc, #104]	@ (80058c4 <UART_AdvFeatureConfig+0xbc>)
 800585c:	688a      	ldr	r2, [r1, #8]
 800585e:	4022      	ands	r2, r4
 8005860:	6b84      	ldr	r4, [r0, #56]	@ 0x38
 8005862:	4322      	orrs	r2, r4
 8005864:	608a      	str	r2, [r1, #8]
 8005866:	069a      	lsls	r2, r3, #26
 8005868:	d506      	bpl.n	8005878 <UART_AdvFeatureConfig+0x70>
 800586a:	6801      	ldr	r1, [r0, #0]
 800586c:	4c16      	ldr	r4, [pc, #88]	@ (80058c8 <UART_AdvFeatureConfig+0xc0>)
 800586e:	688a      	ldr	r2, [r1, #8]
 8005870:	4022      	ands	r2, r4
 8005872:	6bc4      	ldr	r4, [r0, #60]	@ 0x3c
 8005874:	4322      	orrs	r2, r4
 8005876:	608a      	str	r2, [r1, #8]
 8005878:	065a      	lsls	r2, r3, #25
 800587a:	d510      	bpl.n	800589e <UART_AdvFeatureConfig+0x96>
 800587c:	6801      	ldr	r1, [r0, #0]
 800587e:	4d13      	ldr	r5, [pc, #76]	@ (80058cc <UART_AdvFeatureConfig+0xc4>)
 8005880:	684a      	ldr	r2, [r1, #4]
 8005882:	6c04      	ldr	r4, [r0, #64]	@ 0x40
 8005884:	402a      	ands	r2, r5
 8005886:	4322      	orrs	r2, r4
 8005888:	604a      	str	r2, [r1, #4]
 800588a:	2280      	movs	r2, #128	@ 0x80
 800588c:	0352      	lsls	r2, r2, #13
 800588e:	4294      	cmp	r4, r2
 8005890:	d105      	bne.n	800589e <UART_AdvFeatureConfig+0x96>
 8005892:	684a      	ldr	r2, [r1, #4]
 8005894:	4c0e      	ldr	r4, [pc, #56]	@ (80058d0 <UART_AdvFeatureConfig+0xc8>)
 8005896:	4022      	ands	r2, r4
 8005898:	6c44      	ldr	r4, [r0, #68]	@ 0x44
 800589a:	4322      	orrs	r2, r4
 800589c:	604a      	str	r2, [r1, #4]
 800589e:	061b      	lsls	r3, r3, #24
 80058a0:	d506      	bpl.n	80058b0 <UART_AdvFeatureConfig+0xa8>
 80058a2:	6802      	ldr	r2, [r0, #0]
 80058a4:	490b      	ldr	r1, [pc, #44]	@ (80058d4 <UART_AdvFeatureConfig+0xcc>)
 80058a6:	6853      	ldr	r3, [r2, #4]
 80058a8:	400b      	ands	r3, r1
 80058aa:	6c81      	ldr	r1, [r0, #72]	@ 0x48
 80058ac:	430b      	orrs	r3, r1
 80058ae:	6053      	str	r3, [r2, #4]
 80058b0:	bd30      	pop	{r4, r5, pc}
 80058b2:	46c0      	nop			@ (mov r8, r8)
 80058b4:	fffdffff 	.word	0xfffdffff
 80058b8:	fffeffff 	.word	0xfffeffff
 80058bc:	fffbffff 	.word	0xfffbffff
 80058c0:	ffff7fff 	.word	0xffff7fff
 80058c4:	ffffefff 	.word	0xffffefff
 80058c8:	ffffdfff 	.word	0xffffdfff
 80058cc:	ffefffff 	.word	0xffefffff
 80058d0:	ff9fffff 	.word	0xff9fffff
 80058d4:	fff7ffff 	.word	0xfff7ffff

080058d8 <UART_WaitOnFlagUntilTimeout>:
 80058d8:	b5f7      	push	{r0, r1, r2, r4, r5, r6, r7, lr}
 80058da:	0004      	movs	r4, r0
 80058dc:	000d      	movs	r5, r1
 80058de:	0017      	movs	r7, r2
 80058e0:	9300      	str	r3, [sp, #0]
 80058e2:	6822      	ldr	r2, [r4, #0]
 80058e4:	69d3      	ldr	r3, [r2, #28]
 80058e6:	402b      	ands	r3, r5
 80058e8:	1b5b      	subs	r3, r3, r5
 80058ea:	4259      	negs	r1, r3
 80058ec:	414b      	adcs	r3, r1
 80058ee:	42bb      	cmp	r3, r7
 80058f0:	d001      	beq.n	80058f6 <UART_WaitOnFlagUntilTimeout+0x1e>
 80058f2:	2000      	movs	r0, #0
 80058f4:	e020      	b.n	8005938 <UART_WaitOnFlagUntilTimeout+0x60>
 80058f6:	9b08      	ldr	r3, [sp, #32]
 80058f8:	3301      	adds	r3, #1
 80058fa:	d0f3      	beq.n	80058e4 <UART_WaitOnFlagUntilTimeout+0xc>
 80058fc:	f7fe fea2 	bl	8004644 <HAL_GetTick>
 8005900:	9b00      	ldr	r3, [sp, #0]
 8005902:	1ac0      	subs	r0, r0, r3
 8005904:	9b08      	ldr	r3, [sp, #32]
 8005906:	4298      	cmp	r0, r3
 8005908:	d827      	bhi.n	800595a <UART_WaitOnFlagUntilTimeout+0x82>
 800590a:	2b00      	cmp	r3, #0
 800590c:	d025      	beq.n	800595a <UART_WaitOnFlagUntilTimeout+0x82>
 800590e:	6823      	ldr	r3, [r4, #0]
 8005910:	681a      	ldr	r2, [r3, #0]
 8005912:	0752      	lsls	r2, r2, #29
 8005914:	d5e5      	bpl.n	80058e2 <UART_WaitOnFlagUntilTimeout+0xa>
 8005916:	69da      	ldr	r2, [r3, #28]
 8005918:	2608      	movs	r6, #8
 800591a:	0011      	movs	r1, r2
 800591c:	4031      	ands	r1, r6
 800591e:	9101      	str	r1, [sp, #4]
 8005920:	4232      	tst	r2, r6
 8005922:	d00a      	beq.n	800593a <UART_WaitOnFlagUntilTimeout+0x62>
 8005924:	0020      	movs	r0, r4
 8005926:	621e      	str	r6, [r3, #32]
 8005928:	f7ff feb6 	bl	8005698 <UART_EndRxTransfer>
 800592c:	19a3      	adds	r3, r4, r6
 800592e:	67de      	str	r6, [r3, #124]	@ 0x7c
 8005930:	2300      	movs	r3, #0
 8005932:	2001      	movs	r0, #1
 8005934:	3478      	adds	r4, #120	@ 0x78
 8005936:	7023      	strb	r3, [r4, #0]
 8005938:	bdfe      	pop	{r1, r2, r3, r4, r5, r6, r7, pc}
 800593a:	2280      	movs	r2, #128	@ 0x80
 800593c:	69d9      	ldr	r1, [r3, #28]
 800593e:	0112      	lsls	r2, r2, #4
 8005940:	4211      	tst	r1, r2
 8005942:	d0ce      	beq.n	80058e2 <UART_WaitOnFlagUntilTimeout+0xa>
 8005944:	621a      	str	r2, [r3, #32]
 8005946:	0020      	movs	r0, r4
 8005948:	f7ff fea6 	bl	8005698 <UART_EndRxTransfer>
 800594c:	0023      	movs	r3, r4
 800594e:	2220      	movs	r2, #32
 8005950:	3308      	adds	r3, #8
 8005952:	67da      	str	r2, [r3, #124]	@ 0x7c
 8005954:	9b01      	ldr	r3, [sp, #4]
 8005956:	3478      	adds	r4, #120	@ 0x78
 8005958:	7023      	strb	r3, [r4, #0]
 800595a:	2003      	movs	r0, #3
 800595c:	e7ec      	b.n	8005938 <UART_WaitOnFlagUntilTimeout+0x60>
	...

08005960 <UART_CheckIdleState>:
 8005960:	0003      	movs	r3, r0
 8005962:	b573      	push	{r0, r1, r4, r5, r6, lr}
 8005964:	2500      	movs	r5, #0
 8005966:	0004      	movs	r4, r0
 8005968:	3308      	adds	r3, #8
 800596a:	67dd      	str	r5, [r3, #124]	@ 0x7c
 800596c:	f7fe fe6a 	bl	8004644 <HAL_GetTick>
 8005970:	6823      	ldr	r3, [r4, #0]
 8005972:	0006      	movs	r6, r0
 8005974:	681b      	ldr	r3, [r3, #0]
 8005976:	071b      	lsls	r3, r3, #28
 8005978:	d51d      	bpl.n	80059b6 <UART_CheckIdleState+0x56>
 800597a:	2180      	movs	r1, #128	@ 0x80
 800597c:	4b26      	ldr	r3, [pc, #152]	@ (8005a18 <UART_CheckIdleState+0xb8>)
 800597e:	002a      	movs	r2, r5
 8005980:	9300      	str	r3, [sp, #0]
 8005982:	0389      	lsls	r1, r1, #14
 8005984:	0003      	movs	r3, r0
 8005986:	0020      	movs	r0, r4
 8005988:	f7ff ffa6 	bl	80058d8 <UART_WaitOnFlagUntilTimeout>
 800598c:	42a8      	cmp	r0, r5
 800598e:	d012      	beq.n	80059b6 <UART_CheckIdleState+0x56>
 8005990:	f3ef 8110 	mrs	r1, PRIMASK
 8005994:	2301      	movs	r3, #1
 8005996:	f383 8810 	msr	PRIMASK, r3
 800599a:	2080      	movs	r0, #128	@ 0x80
 800599c:	6822      	ldr	r2, [r4, #0]
 800599e:	6813      	ldr	r3, [r2, #0]
 80059a0:	4383      	bics	r3, r0
 80059a2:	6013      	str	r3, [r2, #0]
 80059a4:	f381 8810 	msr	PRIMASK, r1
 80059a8:	2320      	movs	r3, #32
 80059aa:	67e3      	str	r3, [r4, #124]	@ 0x7c
 80059ac:	2003      	movs	r0, #3
 80059ae:	2300      	movs	r3, #0
 80059b0:	3478      	adds	r4, #120	@ 0x78
 80059b2:	7023      	strb	r3, [r4, #0]
 80059b4:	bd76      	pop	{r1, r2, r4, r5, r6, pc}
 80059b6:	0025      	movs	r5, r4
 80059b8:	cd08      	ldmia	r5!, {r3}
 80059ba:	681b      	ldr	r3, [r3, #0]
 80059bc:	075b      	lsls	r3, r3, #29
 80059be:	d523      	bpl.n	8005a08 <UART_CheckIdleState+0xa8>
 80059c0:	2180      	movs	r1, #128	@ 0x80
 80059c2:	4b15      	ldr	r3, [pc, #84]	@ (8005a18 <UART_CheckIdleState+0xb8>)
 80059c4:	2200      	movs	r2, #0
 80059c6:	9300      	str	r3, [sp, #0]
 80059c8:	0020      	movs	r0, r4
 80059ca:	0033      	movs	r3, r6
 80059cc:	03c9      	lsls	r1, r1, #15
 80059ce:	f7ff ff83 	bl	80058d8 <UART_WaitOnFlagUntilTimeout>
 80059d2:	2800      	cmp	r0, #0
 80059d4:	d018      	beq.n	8005a08 <UART_CheckIdleState+0xa8>
 80059d6:	f3ef 8010 	mrs	r0, PRIMASK
 80059da:	2201      	movs	r2, #1
 80059dc:	f382 8810 	msr	PRIMASK, r2
 80059e0:	6821      	ldr	r1, [r4, #0]
 80059e2:	4e0e      	ldr	r6, [pc, #56]	@ (8005a1c <UART_CheckIdleState+0xbc>)
 80059e4:	680b      	ldr	r3, [r1, #0]
 80059e6:	4033      	ands	r3, r6
 80059e8:	600b      	str	r3, [r1, #0]
 80059ea:	f380 8810 	msr	PRIMASK, r0
 80059ee:	f3ef 8010 	mrs	r0, PRIMASK
 80059f2:	f382 8810 	msr	PRIMASK, r2
 80059f6:	6821      	ldr	r1, [r4, #0]
 80059f8:	688b      	ldr	r3, [r1, #8]
 80059fa:	4393      	bics	r3, r2
 80059fc:	608b      	str	r3, [r1, #8]
 80059fe:	f380 8810 	msr	PRIMASK, r0
 8005a02:	2320      	movs	r3, #32
 8005a04:	67eb      	str	r3, [r5, #124]	@ 0x7c
 8005a06:	e7d1      	b.n	80059ac <UART_CheckIdleState+0x4c>
 8005a08:	2320      	movs	r3, #32
 8005a0a:	2000      	movs	r0, #0
 8005a0c:	67e3      	str	r3, [r4, #124]	@ 0x7c
 8005a0e:	67eb      	str	r3, [r5, #124]	@ 0x7c
 8005a10:	6620      	str	r0, [r4, #96]	@ 0x60
 8005a12:	6660      	str	r0, [r4, #100]	@ 0x64
 8005a14:	e7cb      	b.n	80059ae <UART_CheckIdleState+0x4e>
 8005a16:	46c0      	nop			@ (mov r8, r8)
 8005a18:	01ffffff 	.word	0x01ffffff
 8005a1c:	fffffedf 	.word	0xfffffedf

08005a20 <HAL_UART_Init>:
 8005a20:	b510      	push	{r4, lr}
 8005a22:	1e04      	subs	r4, r0, #0
 8005a24:	d101      	bne.n	8005a2a <HAL_UART_Init+0xa>
 8005a26:	2001      	movs	r0, #1
 8005a28:	bd10      	pop	{r4, pc}
 8005a2a:	6fc3      	ldr	r3, [r0, #124]	@ 0x7c
 8005a2c:	2b00      	cmp	r3, #0
 8005a2e:	d104      	bne.n	8005a3a <HAL_UART_Init+0x1a>
 8005a30:	0002      	movs	r2, r0
 8005a32:	3278      	adds	r2, #120	@ 0x78
 8005a34:	7013      	strb	r3, [r2, #0]
 8005a36:	f7fe fbef 	bl	8004218 <HAL_UART_MspInit>
 8005a3a:	2324      	movs	r3, #36	@ 0x24
 8005a3c:	2101      	movs	r1, #1
 8005a3e:	6822      	ldr	r2, [r4, #0]
 8005a40:	67e3      	str	r3, [r4, #124]	@ 0x7c
 8005a42:	6813      	ldr	r3, [r2, #0]
 8005a44:	0020      	movs	r0, r4
 8005a46:	438b      	bics	r3, r1
 8005a48:	6013      	str	r3, [r2, #0]
 8005a4a:	f7ff fe53 	bl	80056f4 <UART_SetConfig>
 8005a4e:	2801      	cmp	r0, #1
 8005a50:	d0e9      	beq.n	8005a26 <HAL_UART_Init+0x6>
 8005a52:	6a63      	ldr	r3, [r4, #36]	@ 0x24
 8005a54:	2b00      	cmp	r3, #0
 8005a56:	d002      	beq.n	8005a5e <HAL_UART_Init+0x3e>
 8005a58:	0020      	movs	r0, r4
 8005a5a:	f7ff fed5 	bl	8005808 <UART_AdvFeatureConfig>
 8005a5e:	6823      	ldr	r3, [r4, #0]
 8005a60:	4907      	ldr	r1, [pc, #28]	@ (8005a80 <HAL_UART_Init+0x60>)
 8005a62:	685a      	ldr	r2, [r3, #4]
 8005a64:	0020      	movs	r0, r4
 8005a66:	400a      	ands	r2, r1
 8005a68:	212a      	movs	r1, #42	@ 0x2a
 8005a6a:	605a      	str	r2, [r3, #4]
 8005a6c:	689a      	ldr	r2, [r3, #8]
 8005a6e:	438a      	bics	r2, r1
 8005a70:	609a      	str	r2, [r3, #8]
 8005a72:	2201      	movs	r2, #1
 8005a74:	6819      	ldr	r1, [r3, #0]
 8005a76:	430a      	orrs	r2, r1
 8005a78:	601a      	str	r2, [r3, #0]
 8005a7a:	f7ff ff71 	bl	8005960 <UART_CheckIdleState>
 8005a7e:	e7d3      	b.n	8005a28 <HAL_UART_Init+0x8>
 8005a80:	ffffb7ff 	.word	0xffffb7ff

08005a84 <VBS_GetAvBusVoltage_V>:
 8005a84:	0003      	movs	r3, r0
 8005a86:	88c0      	ldrh	r0, [r0, #6]
 8005a88:	885b      	ldrh	r3, [r3, #2]
 8005a8a:	4358      	muls	r0, r3
 8005a8c:	0c00      	lsrs	r0, r0, #16
 8005a8e:	4770      	bx	lr

08005a90 <Circle_Limitation>:
 8005a90:	b20b      	sxth	r3, r1
 8005a92:	1409      	asrs	r1, r1, #16
 8005a94:	b5f0      	push	{r4, r5, r6, r7, lr}
 8005a96:	000e      	movs	r6, r1
 8005a98:	001d      	movs	r5, r3
 8005a9a:	8802      	ldrh	r2, [r0, #0]
 8005a9c:	434e      	muls	r6, r1
 8005a9e:	435d      	muls	r5, r3
 8005aa0:	4352      	muls	r2, r2
 8005aa2:	19ad      	adds	r5, r5, r6
 8005aa4:	000c      	movs	r4, r1
 8005aa6:	8840      	ldrh	r0, [r0, #2]
 8005aa8:	b085      	sub	sp, #20
 8005aaa:	42aa      	cmp	r2, r5
 8005aac:	da11      	bge.n	8005ad2 <Circle_Limitation+0x42>
 8005aae:	0007      	movs	r7, r0
 8005ab0:	4347      	muls	r7, r0
 8005ab2:	4d0f      	ldr	r5, [pc, #60]	@ (8005af0 <Circle_Limitation+0x60>)
 8005ab4:	42be      	cmp	r6, r7
 8005ab6:	dc11      	bgt.n	8005adc <Circle_Limitation+0x4c>
 8005ab8:	1b96      	subs	r6, r2, r6
 8005aba:	17f2      	asrs	r2, r6, #31
 8005abc:	0312      	lsls	r2, r2, #12
 8005abe:	0b12      	lsrs	r2, r2, #12
 8005ac0:	1992      	adds	r2, r2, r6
 8005ac2:	1512      	asrs	r2, r2, #20
 8005ac4:	0052      	lsls	r2, r2, #1
 8005ac6:	5aaa      	ldrh	r2, [r5, r2]
 8005ac8:	2b00      	cmp	r3, #0
 8005aca:	da00      	bge.n	8005ace <Circle_Limitation+0x3e>
 8005acc:	4252      	negs	r2, r2
 8005ace:	b213      	sxth	r3, r2
 8005ad0:	b221      	sxth	r1, r4
 8005ad2:	0409      	lsls	r1, r1, #16
 8005ad4:	b298      	uxth	r0, r3
 8005ad6:	4308      	orrs	r0, r1
 8005ad8:	b005      	add	sp, #20
 8005ada:	bdf0      	pop	{r4, r5, r6, r7, pc}
 8005adc:	0004      	movs	r4, r0
 8005ade:	2900      	cmp	r1, #0
 8005ae0:	da00      	bge.n	8005ae4 <Circle_Limitation+0x54>
 8005ae2:	4244      	negs	r4, r0
 8005ae4:	1bd7      	subs	r7, r2, r7
 8005ae6:	17fa      	asrs	r2, r7, #31
 8005ae8:	0312      	lsls	r2, r2, #12
 8005aea:	0b12      	lsrs	r2, r2, #12
 8005aec:	19d2      	adds	r2, r2, r7
 8005aee:	e7e8      	b.n	8005ac2 <Circle_Limitation+0x32>
 8005af0:	08006a2c 	.word	0x08006a2c

08005af4 <EAC_Init>:
 8005af4:	6083      	str	r3, [r0, #8]
 8005af6:	2300      	movs	r3, #0
 8005af8:	6001      	str	r1, [r0, #0]
 8005afa:	6042      	str	r2, [r0, #4]
 8005afc:	81c3      	strh	r3, [r0, #14]
 8005afe:	4770      	bx	lr

08005b00 <EAC_StartAlignment>:
 8005b00:	2200      	movs	r2, #0
 8005b02:	b510      	push	{r4, lr}
 8005b04:	0004      	movs	r4, r0
 8005b06:	0011      	movs	r1, r2
 8005b08:	6840      	ldr	r0, [r0, #4]
 8005b0a:	f000 fcef 	bl	80064ec <VSS_SetMecAcceleration>
 8005b0e:	2314      	movs	r3, #20
 8005b10:	5ee1      	ldrsh	r1, [r4, r3]
 8005b12:	6860      	ldr	r0, [r4, #4]
 8005b14:	f000 fcdf 	bl	80064d6 <VSS_SetMecAngle>
 8005b18:	6820      	ldr	r0, [r4, #0]
 8005b1a:	2104      	movs	r1, #4
 8005b1c:	f000 fc4b 	bl	80063b6 <STC_SetControlMode>
 8005b20:	2200      	movs	r2, #0
 8005b22:	6820      	ldr	r0, [r4, #0]
 8005b24:	0011      	movs	r1, r2
 8005b26:	f000 fc4a 	bl	80063be <STC_ExecRamp>
 8005b2a:	2312      	movs	r3, #18
 8005b2c:	5ee1      	ldrsh	r1, [r4, r3]
 8005b2e:	8ae2      	ldrh	r2, [r4, #22]
 8005b30:	6820      	ldr	r0, [r4, #0]
 8005b32:	f000 fc44 	bl	80063be <STC_ExecRamp>
 8005b36:	21fa      	movs	r1, #250	@ 0xfa
 8005b38:	8ae3      	ldrh	r3, [r4, #22]
 8005b3a:	8a20      	ldrh	r0, [r4, #16]
 8005b3c:	0089      	lsls	r1, r1, #2
 8005b3e:	4358      	muls	r0, r3
 8005b40:	f7fa faf6 	bl	8000130 <__udivsi3>
 8005b44:	3001      	adds	r0, #1
 8005b46:	81a0      	strh	r0, [r4, #12]
 8005b48:	bd10      	pop	{r4, pc}

08005b4a <EAC_Exec>:
 8005b4a:	b510      	push	{r4, lr}
 8005b4c:	8983      	ldrh	r3, [r0, #12]
 8005b4e:	0004      	movs	r4, r0
 8005b50:	2b00      	cmp	r3, #0
 8005b52:	d010      	beq.n	8005b76 <EAC_Exec+0x2c>
 8005b54:	3b01      	subs	r3, #1
 8005b56:	b29b      	uxth	r3, r3
 8005b58:	8183      	strh	r3, [r0, #12]
 8005b5a:	2000      	movs	r0, #0
 8005b5c:	4283      	cmp	r3, r0
 8005b5e:	d10b      	bne.n	8005b78 <EAC_Exec+0x2e>
 8005b60:	2314      	movs	r3, #20
 8005b62:	5ee0      	ldrsh	r0, [r4, r3]
 8005b64:	7e21      	ldrb	r1, [r4, #24]
 8005b66:	f7fa fb6d 	bl	8000244 <__divsi3>
 8005b6a:	b201      	sxth	r1, r0
 8005b6c:	68a0      	ldr	r0, [r4, #8]
 8005b6e:	f000 f8eb 	bl	8005d48 <ENC_SetMecAngle>
 8005b72:	2301      	movs	r3, #1
 8005b74:	73a3      	strb	r3, [r4, #14]
 8005b76:	2001      	movs	r0, #1
 8005b78:	bd10      	pop	{r4, pc}

08005b7a <EAC_IsAligned>:
 8005b7a:	7b80      	ldrb	r0, [r0, #14]
 8005b7c:	4770      	bx	lr

08005b7e <EAC_SetRestartState>:
 8005b7e:	73c1      	strb	r1, [r0, #15]
 8005b80:	4770      	bx	lr
	...

08005b84 <ENC_Init>:
 8005b84:	b570      	push	{r4, r5, r6, lr}
 8005b86:	0003      	movs	r3, r0
 8005b88:	2600      	movs	r6, #0
 8005b8a:	6a05      	ldr	r5, [r0, #32]
 8005b8c:	0004      	movs	r4, r0
 8005b8e:	2001      	movs	r0, #1
 8005b90:	626e      	str	r6, [r5, #36]	@ 0x24
 8005b92:	336e      	adds	r3, #110	@ 0x6e
 8005b94:	8819      	ldrh	r1, [r3, #0]
 8005b96:	4240      	negs	r0, r0
 8005b98:	f7fa faca 	bl	8000130 <__udivsi3>
 8005b9c:	0023      	movs	r3, r4
 8005b9e:	66a0      	str	r0, [r4, #104]	@ 0x68
 8005ba0:	336c      	adds	r3, #108	@ 0x6c
 8005ba2:	881a      	ldrh	r2, [r3, #0]
 8005ba4:	230a      	movs	r3, #10
 8005ba6:	21f0      	movs	r1, #240	@ 0xf0
 8005ba8:	4353      	muls	r3, r2
 8005baa:	6263      	str	r3, [r4, #36]	@ 0x24
 8005bac:	69aa      	ldr	r2, [r5, #24]
 8005bae:	6fa3      	ldr	r3, [r4, #120]	@ 0x78
 8005bb0:	438a      	bics	r2, r1
 8005bb2:	0c1b      	lsrs	r3, r3, #16
 8005bb4:	4313      	orrs	r3, r2
 8005bb6:	61ab      	str	r3, [r5, #24]
 8005bb8:	6fa3      	ldr	r3, [r4, #120]	@ 0x78
 8005bba:	69aa      	ldr	r2, [r5, #24]
 8005bbc:	490c      	ldr	r1, [pc, #48]	@ (8005bf0 <ENC_Init+0x6c>)
 8005bbe:	0c1b      	lsrs	r3, r3, #16
 8005bc0:	400a      	ands	r2, r1
 8005bc2:	021b      	lsls	r3, r3, #8
 8005bc4:	4313      	orrs	r3, r2
 8005bc6:	61ab      	str	r3, [r5, #24]
 8005bc8:	2302      	movs	r3, #2
 8005bca:	425b      	negs	r3, r3
 8005bcc:	612b      	str	r3, [r5, #16]
 8005bce:	68ea      	ldr	r2, [r5, #12]
 8005bd0:	3303      	adds	r3, #3
 8005bd2:	431a      	orrs	r2, r3
 8005bd4:	60ea      	str	r2, [r5, #12]
 8005bd6:	682a      	ldr	r2, [r5, #0]
 8005bd8:	0020      	movs	r0, r4
 8005bda:	4313      	orrs	r3, r2
 8005bdc:	602b      	str	r3, [r5, #0]
 8005bde:	0023      	movs	r3, r4
 8005be0:	3374      	adds	r3, #116	@ 0x74
 8005be2:	781a      	ldrb	r2, [r3, #0]
 8005be4:	0031      	movs	r1, r6
 8005be6:	0092      	lsls	r2, r2, #2
 8005be8:	3028      	adds	r0, #40	@ 0x28
 8005bea:	f000 fcbe 	bl	800656a <memset>
 8005bee:	bd70      	pop	{r4, r5, r6, pc}
 8005bf0:	ffff0fff 	.word	0xffff0fff

08005bf4 <ENC_Clear>:
 8005bf4:	0003      	movs	r3, r0
 8005bf6:	b510      	push	{r4, lr}
 8005bf8:	3374      	adds	r3, #116	@ 0x74
 8005bfa:	781a      	ldrb	r2, [r3, #0]
 8005bfc:	0004      	movs	r4, r0
 8005bfe:	2100      	movs	r1, #0
 8005c00:	0092      	lsls	r2, r2, #2
 8005c02:	3028      	adds	r0, #40	@ 0x28
 8005c04:	f000 fcb1 	bl	800656a <memset>
 8005c08:	2301      	movs	r3, #1
 8005c0a:	3475      	adds	r4, #117	@ 0x75
 8005c0c:	7023      	strb	r3, [r4, #0]
 8005c0e:	bd10      	pop	{r4, pc}

08005c10 <ENC_CalcAngle>:
 8005c10:	0002      	movs	r2, r0
 8005c12:	6a03      	ldr	r3, [r0, #32]
 8005c14:	6a59      	ldr	r1, [r3, #36]	@ 0x24
 8005c16:	6e83      	ldr	r3, [r0, #104]	@ 0x68
 8005c18:	b289      	uxth	r1, r1
 8005c1a:	434b      	muls	r3, r1
 8005c1c:	2006      	movs	r0, #6
 8005c1e:	5e11      	ldrsh	r1, [r2, r0]
 8005c20:	141b      	asrs	r3, r3, #16
 8005c22:	7850      	ldrb	r0, [r2, #1]
 8005c24:	80d3      	strh	r3, [r2, #6]
 8005c26:	b29b      	uxth	r3, r3
 8005c28:	4358      	muls	r0, r3
 8005c2a:	1a5b      	subs	r3, r3, r1
 8005c2c:	6891      	ldr	r1, [r2, #8]
 8005c2e:	b21b      	sxth	r3, r3
 8005c30:	b200      	sxth	r0, r0
 8005c32:	18cb      	adds	r3, r1, r3
 8005c34:	8090      	strh	r0, [r2, #4]
 8005c36:	6093      	str	r3, [r2, #8]
 8005c38:	4770      	bx	lr
	...

08005c3c <ENC_CalcAvrgMecSpeedUnit>:
 8005c3c:	0002      	movs	r2, r0
 8005c3e:	b5f0      	push	{r4, r5, r6, r7, lr}
 8005c40:	6a03      	ldr	r3, [r0, #32]
 8005c42:	0004      	movs	r4, r0
 8005c44:	2000      	movs	r0, #0
 8005c46:	b085      	sub	sp, #20
 8005c48:	9101      	str	r1, [sp, #4]
 8005c4a:	3274      	adds	r2, #116	@ 0x74
 8005c4c:	7817      	ldrb	r7, [r2, #0]
 8005c4e:	3a04      	subs	r2, #4
 8005c50:	6a5d      	ldr	r5, [r3, #36]	@ 0x24
 8005c52:	8811      	ldrh	r1, [r2, #0]
 8005c54:	8010      	strh	r0, [r2, #0]
 8005c56:	681a      	ldr	r2, [r3, #0]
 8005c58:	2310      	movs	r3, #16
 8005c5a:	401a      	ands	r2, r3
 8005c5c:	2901      	cmp	r1, #1
 8005c5e:	d903      	bls.n	8005c68 <ENC_CalcAvrgMecSpeedUnit+0x2c>
 8005c60:	0023      	movs	r3, r4
 8005c62:	2101      	movs	r1, #1
 8005c64:	337d      	adds	r3, #125	@ 0x7d
 8005c66:	7019      	strb	r1, [r3, #0]
 8005c68:	0023      	movs	r3, r4
 8005c6a:	0021      	movs	r1, r4
 8005c6c:	0026      	movs	r6, r4
 8005c6e:	3372      	adds	r3, #114	@ 0x72
 8005c70:	9302      	str	r3, [sp, #8]
 8005c72:	881b      	ldrh	r3, [r3, #0]
 8005c74:	316e      	adds	r1, #110	@ 0x6e
 8005c76:	9103      	str	r1, [sp, #12]
 8005c78:	8809      	ldrh	r1, [r1, #0]
 8005c7a:	1ae8      	subs	r0, r5, r3
 8005c7c:	367c      	adds	r6, #124	@ 0x7c
 8005c7e:	2a00      	cmp	r2, #0
 8005c80:	d04e      	beq.n	8005d20 <ENC_CalcAvrgMecSpeedUnit+0xe4>
 8005c82:	42ab      	cmp	r3, r5
 8005c84:	419b      	sbcs	r3, r3
 8005c86:	7832      	ldrb	r2, [r6, #0]
 8005c88:	400b      	ands	r3, r1
 8005c8a:	320a      	adds	r2, #10
 8005c8c:	0092      	lsls	r2, r2, #2
 8005c8e:	1ac3      	subs	r3, r0, r3
 8005c90:	5113      	str	r3, [r2, r4]
 8005c92:	0023      	movs	r3, r4
 8005c94:	2200      	movs	r2, #0
 8005c96:	00b8      	lsls	r0, r7, #2
 8005c98:	1900      	adds	r0, r0, r4
 8005c9a:	4283      	cmp	r3, r0
 8005c9c:	d148      	bne.n	8005d30 <ENC_CalcAvrgMecSpeedUnit+0xf4>
 8005c9e:	4379      	muls	r1, r7
 8005ca0:	6a60      	ldr	r0, [r4, #36]	@ 0x24
 8005ca2:	4350      	muls	r0, r2
 8005ca4:	2900      	cmp	r1, #0
 8005ca6:	d001      	beq.n	8005cac <ENC_CalcAvrgMecSpeedUnit+0x70>
 8005ca8:	f7fa facc 	bl	8000244 <__divsi3>
 8005cac:	9a01      	ldr	r2, [sp, #4]
 8005cae:	b203      	sxth	r3, r0
 8005cb0:	0026      	movs	r6, r4
 8005cb2:	8013      	strh	r3, [r2, #0]
 8005cb4:	89a2      	ldrh	r2, [r4, #12]
 8005cb6:	367c      	adds	r6, #124	@ 0x7c
 8005cb8:	1a80      	subs	r0, r0, r2
 8005cba:	0022      	movs	r2, r4
 8005cbc:	8260      	strh	r0, [r4, #18]
 8005cbe:	81a3      	strh	r3, [r4, #12]
 8005cc0:	7833      	ldrb	r3, [r6, #0]
 8005cc2:	326c      	adds	r2, #108	@ 0x6c
 8005cc4:	330a      	adds	r3, #10
 8005cc6:	009b      	lsls	r3, r3, #2
 8005cc8:	8812      	ldrh	r2, [r2, #0]
 8005cca:	591b      	ldr	r3, [r3, r4]
 8005ccc:	7860      	ldrb	r0, [r4, #1]
 8005cce:	4353      	muls	r3, r2
 8005cd0:	4358      	muls	r0, r3
 8005cd2:	9b03      	ldr	r3, [sp, #12]
 8005cd4:	8819      	ldrh	r1, [r3, #0]
 8005cd6:	f7fa fab5 	bl	8000244 <__divsi3>
 8005cda:	69e3      	ldr	r3, [r4, #28]
 8005cdc:	8b61      	ldrh	r1, [r4, #26]
 8005cde:	4358      	muls	r0, r3
 8005ce0:	f7fa fab0 	bl	8000244 <__divsi3>
 8005ce4:	2380      	movs	r3, #128	@ 0x80
 8005ce6:	81e0      	strh	r0, [r4, #14]
 8005ce8:	025b      	lsls	r3, r3, #9
 8005cea:	429d      	cmp	r5, r3
 8005cec:	d300      	bcc.n	8005cf0 <ENC_CalcAvrgMecSpeedUnit+0xb4>
 8005cee:	4d15      	ldr	r5, [pc, #84]	@ (8005d44 <ENC_CalcAvrgMecSpeedUnit+0x108>)
 8005cf0:	9b02      	ldr	r3, [sp, #8]
 8005cf2:	801d      	strh	r5, [r3, #0]
 8005cf4:	7833      	ldrb	r3, [r6, #0]
 8005cf6:	3301      	adds	r3, #1
 8005cf8:	b2db      	uxtb	r3, r3
 8005cfa:	7033      	strb	r3, [r6, #0]
 8005cfc:	7833      	ldrb	r3, [r6, #0]
 8005cfe:	42bb      	cmp	r3, r7
 8005d00:	d301      	bcc.n	8005d06 <ENC_CalcAvrgMecSpeedUnit+0xca>
 8005d02:	2300      	movs	r3, #0
 8005d04:	7033      	strb	r3, [r6, #0]
 8005d06:	0023      	movs	r3, r4
 8005d08:	337d      	adds	r3, #125	@ 0x7d
 8005d0a:	781b      	ldrb	r3, [r3, #0]
 8005d0c:	2b00      	cmp	r3, #0
 8005d0e:	d013      	beq.n	8005d38 <ENC_CalcAvrgMecSpeedUnit+0xfc>
 8005d10:	0023      	movs	r3, r4
 8005d12:	2000      	movs	r0, #0
 8005d14:	3375      	adds	r3, #117	@ 0x75
 8005d16:	7018      	strb	r0, [r3, #0]
 8005d18:	78e3      	ldrb	r3, [r4, #3]
 8005d1a:	7023      	strb	r3, [r4, #0]
 8005d1c:	b005      	add	sp, #20
 8005d1e:	bdf0      	pop	{r4, r5, r6, r7, pc}
 8005d20:	429d      	cmp	r5, r3
 8005d22:	419b      	sbcs	r3, r3
 8005d24:	7832      	ldrb	r2, [r6, #0]
 8005d26:	400b      	ands	r3, r1
 8005d28:	320a      	adds	r2, #10
 8005d2a:	0092      	lsls	r2, r2, #2
 8005d2c:	181b      	adds	r3, r3, r0
 8005d2e:	e7af      	b.n	8005c90 <ENC_CalcAvrgMecSpeedUnit+0x54>
 8005d30:	6a9e      	ldr	r6, [r3, #40]	@ 0x28
 8005d32:	3304      	adds	r3, #4
 8005d34:	1992      	adds	r2, r2, r6
 8005d36:	e7b0      	b.n	8005c9a <ENC_CalcAvrgMecSpeedUnit+0x5e>
 8005d38:	0020      	movs	r0, r4
 8005d3a:	9901      	ldr	r1, [sp, #4]
 8005d3c:	f000 fadb 	bl	80062f6 <SPD_IsMecSpeedReliable>
 8005d40:	e7ec      	b.n	8005d1c <ENC_CalcAvrgMecSpeedUnit+0xe0>
 8005d42:	46c0      	nop			@ (mov r8, r8)
 8005d44:	0000ffff 	.word	0x0000ffff

08005d48 <ENC_SetMecAngle>:
 8005d48:	0003      	movs	r3, r0
 8005d4a:	b510      	push	{r4, lr}
 8005d4c:	80c1      	strh	r1, [r0, #6]
 8005d4e:	785a      	ldrb	r2, [r3, #1]
 8005d50:	6a04      	ldr	r4, [r0, #32]
 8005d52:	b288      	uxth	r0, r1
 8005d54:	4342      	muls	r2, r0
 8005d56:	809a      	strh	r2, [r3, #4]
 8005d58:	2900      	cmp	r1, #0
 8005d5a:	da01      	bge.n	8005d60 <ENC_SetMecAngle+0x18>
 8005d5c:	3801      	subs	r0, #1
 8005d5e:	b280      	uxth	r0, r0
 8005d60:	336e      	adds	r3, #110	@ 0x6e
 8005d62:	881b      	ldrh	r3, [r3, #0]
 8005d64:	4902      	ldr	r1, [pc, #8]	@ (8005d70 <ENC_SetMecAngle+0x28>)
 8005d66:	4358      	muls	r0, r3
 8005d68:	f7fa f9e2 	bl	8000130 <__udivsi3>
 8005d6c:	6260      	str	r0, [r4, #36]	@ 0x24
 8005d6e:	bd10      	pop	{r4, pc}
 8005d70:	0000ffff 	.word	0x0000ffff

08005d74 <ENC_IRQHandler>:
 8005d74:	3070      	adds	r0, #112	@ 0x70
 8005d76:	8803      	ldrh	r3, [r0, #0]
 8005d78:	3301      	adds	r3, #1
 8005d7a:	b29b      	uxth	r3, r3
 8005d7c:	8003      	strh	r3, [r0, #0]
 8005d7e:	2000      	movs	r0, #0
 8005d80:	4770      	bx	lr

08005d82 <MCPA_stopDataLog>:
 8005d82:	0003      	movs	r3, r0
 8005d84:	2200      	movs	r2, #0
 8005d86:	b570      	push	{r4, r5, r6, lr}
 8005d88:	0005      	movs	r5, r0
 8005d8a:	3329      	adds	r3, #41	@ 0x29
 8005d8c:	701a      	strb	r2, [r3, #0]
 8005d8e:	8b03      	ldrh	r3, [r0, #24]
 8005d90:	0004      	movs	r4, r0
 8005d92:	352a      	adds	r5, #42	@ 0x2a
 8005d94:	4293      	cmp	r3, r2
 8005d96:	d009      	beq.n	8005dac <MCPA_stopDataLog+0x2a>
 8005d98:	6941      	ldr	r1, [r0, #20]
 8005d9a:	782a      	ldrb	r2, [r5, #0]
 8005d9c:	6800      	ldr	r0, [r0, #0]
 8005d9e:	52ca      	strh	r2, [r1, r3]
 8005da0:	8b22      	ldrh	r2, [r4, #24]
 8005da2:	2309      	movs	r3, #9
 8005da4:	3202      	adds	r2, #2
 8005da6:	6846      	ldr	r6, [r0, #4]
 8005da8:	b292      	uxth	r2, r2
 8005daa:	47b0      	blx	r6
 8005dac:	2300      	movs	r3, #0
 8005dae:	8323      	strh	r3, [r4, #24]
 8005db0:	702b      	strb	r3, [r5, #0]
 8005db2:	3403      	adds	r4, #3
 8005db4:	7723      	strb	r3, [r4, #28]
 8005db6:	77e3      	strb	r3, [r4, #31]
 8005db8:	bd70      	pop	{r4, r5, r6, pc}
	...

08005dbc <MCPA_dataLog>:
 8005dbc:	b5f8      	push	{r3, r4, r5, r6, r7, lr}
 8005dbe:	1cc7      	adds	r7, r0, #3
 8005dc0:	7fc3      	ldrb	r3, [r0, #31]
 8005dc2:	7ffa      	ldrb	r2, [r7, #31]
 8005dc4:	0004      	movs	r4, r0
 8005dc6:	429a      	cmp	r2, r3
 8005dc8:	d000      	beq.n	8005dcc <MCPA_dataLog+0x10>
 8005dca:	e0a1      	b.n	8005f10 <MCPA_dataLog+0x154>
 8005dcc:	2300      	movs	r3, #0
 8005dce:	8b05      	ldrh	r5, [r0, #24]
 8005dd0:	77c3      	strb	r3, [r0, #31]
 8005dd2:	429d      	cmp	r5, r3
 8005dd4:	d135      	bne.n	8005e42 <MCPA_dataLog+0x86>
 8005dd6:	0021      	movs	r1, r4
 8005dd8:	6800      	ldr	r0, [r0, #0]
 8005dda:	2209      	movs	r2, #9
 8005ddc:	6803      	ldr	r3, [r0, #0]
 8005dde:	3114      	adds	r1, #20
 8005de0:	4798      	blx	r3
 8005de2:	2800      	cmp	r0, #0
 8005de4:	d02d      	beq.n	8005e42 <MCPA_dataLog+0x86>
 8005de6:	4b4c      	ldr	r3, [pc, #304]	@ (8005f18 <MCPA_dataLog+0x15c>)
 8005de8:	681a      	ldr	r2, [r3, #0]
 8005dea:	6963      	ldr	r3, [r4, #20]
 8005dec:	601a      	str	r2, [r3, #0]
 8005dee:	2304      	movs	r3, #4
 8005df0:	8323      	strh	r3, [r4, #24]
 8005df2:	1c63      	adds	r3, r4, #1
 8005df4:	77dd      	strb	r5, [r3, #31]
 8005df6:	3328      	adds	r3, #40	@ 0x28
 8005df8:	781a      	ldrb	r2, [r3, #0]
 8005dfa:	7859      	ldrb	r1, [r3, #1]
 8005dfc:	3301      	adds	r3, #1
 8005dfe:	4291      	cmp	r1, r2
 8005e00:	d01f      	beq.n	8005e42 <MCPA_dataLog+0x86>
 8005e02:	0025      	movs	r5, r4
 8005e04:	701a      	strb	r2, [r3, #0]
 8005e06:	1d26      	adds	r6, r4, #4
 8005e08:	7ff2      	ldrb	r2, [r6, #31]
 8005e0a:	1d63      	adds	r3, r4, #5
 8005e0c:	77da      	strb	r2, [r3, #31]
 8005e0e:	3508      	adds	r5, #8
 8005e10:	7fe9      	ldrb	r1, [r5, #31]
 8005e12:	3323      	adds	r3, #35	@ 0x23
 8005e14:	7019      	strb	r1, [r3, #0]
 8005e16:	1ca3      	adds	r3, r4, #2
 8005e18:	7fdb      	ldrb	r3, [r3, #31]
 8005e1a:	1da0      	adds	r0, r4, #6
 8005e1c:	77fb      	strb	r3, [r7, #31]
 8005e1e:	7fc0      	ldrb	r0, [r0, #31]
 8005e20:	1de3      	adds	r3, r4, #7
 8005e22:	77d8      	strb	r0, [r3, #31]
 8005e24:	8b63      	ldrh	r3, [r4, #26]
 8005e26:	1852      	adds	r2, r2, r1
 8005e28:	83a3      	strh	r3, [r4, #28]
 8005e2a:	6861      	ldr	r1, [r4, #4]
 8005e2c:	0092      	lsls	r2, r2, #2
 8005e2e:	68a0      	ldr	r0, [r4, #8]
 8005e30:	f000 fbc8 	bl	80065c4 <memcpy>
 8005e34:	7ff2      	ldrb	r2, [r6, #31]
 8005e36:	7feb      	ldrb	r3, [r5, #31]
 8005e38:	6920      	ldr	r0, [r4, #16]
 8005e3a:	68e1      	ldr	r1, [r4, #12]
 8005e3c:	18d2      	adds	r2, r2, r3
 8005e3e:	f000 fbc1 	bl	80065c4 <memcpy>
 8005e42:	8b25      	ldrh	r5, [r4, #24]
 8005e44:	2d00      	cmp	r5, #0
 8005e46:	d032      	beq.n	8005eae <MCPA_dataLog+0xf2>
 8005e48:	8ba2      	ldrh	r2, [r4, #28]
 8005e4a:	42aa      	cmp	r2, r5
 8005e4c:	d31c      	bcc.n	8005e88 <MCPA_dataLog+0xcc>
 8005e4e:	2200      	movs	r2, #0
 8005e50:	6960      	ldr	r0, [r4, #20]
 8005e52:	1d63      	adds	r3, r4, #5
 8005e54:	7fdb      	ldrb	r3, [r3, #31]
 8005e56:	1945      	adds	r5, r0, r5
 8005e58:	b2d1      	uxtb	r1, r2
 8005e5a:	428b      	cmp	r3, r1
 8005e5c:	d828      	bhi.n	8005eb0 <MCPA_dataLog+0xf4>
 8005e5e:	1de2      	adds	r2, r4, #7
 8005e60:	7fd5      	ldrb	r5, [r2, #31]
 8005e62:	2dfd      	cmp	r5, #253	@ 0xfd
 8005e64:	d80c      	bhi.n	8005e80 <MCPA_dataLog+0xc4>
 8005e66:	1c61      	adds	r1, r4, #1
 8005e68:	7fca      	ldrb	r2, [r1, #31]
 8005e6a:	4295      	cmp	r5, r2
 8005e6c:	d137      	bne.n	8005ede <MCPA_dataLog+0x122>
 8005e6e:	2200      	movs	r2, #0
 8005e70:	77ca      	strb	r2, [r1, #31]
 8005e72:	0022      	movs	r2, r4
 8005e74:	3228      	adds	r2, #40	@ 0x28
 8005e76:	7811      	ldrb	r1, [r2, #0]
 8005e78:	18c9      	adds	r1, r1, r3
 8005e7a:	8b25      	ldrh	r5, [r4, #24]
 8005e7c:	428b      	cmp	r3, r1
 8005e7e:	db22      	blt.n	8005ec6 <MCPA_dataLog+0x10a>
 8005e80:	8b22      	ldrh	r2, [r4, #24]
 8005e82:	8ba3      	ldrh	r3, [r4, #28]
 8005e84:	429a      	cmp	r2, r3
 8005e86:	d912      	bls.n	8005eae <MCPA_dataLog+0xf2>
 8005e88:	1de3      	adds	r3, r4, #7
 8005e8a:	7fdb      	ldrb	r3, [r3, #31]
 8005e8c:	6961      	ldr	r1, [r4, #20]
 8005e8e:	2bfe      	cmp	r3, #254	@ 0xfe
 8005e90:	d028      	beq.n	8005ee4 <MCPA_dataLog+0x128>
 8005e92:	0022      	movs	r2, r4
 8005e94:	322a      	adds	r2, #42	@ 0x2a
 8005e96:	8b23      	ldrh	r3, [r4, #24]
 8005e98:	7812      	ldrb	r2, [r2, #0]
 8005e9a:	6820      	ldr	r0, [r4, #0]
 8005e9c:	52ca      	strh	r2, [r1, r3]
 8005e9e:	8b22      	ldrh	r2, [r4, #24]
 8005ea0:	2309      	movs	r3, #9
 8005ea2:	3202      	adds	r2, #2
 8005ea4:	6845      	ldr	r5, [r0, #4]
 8005ea6:	b292      	uxth	r2, r2
 8005ea8:	47a8      	blx	r5
 8005eaa:	2300      	movs	r3, #0
 8005eac:	8323      	strh	r3, [r4, #24]
 8005eae:	bdf8      	pop	{r3, r4, r5, r6, r7, pc}
 8005eb0:	68a1      	ldr	r1, [r4, #8]
 8005eb2:	0096      	lsls	r6, r2, #2
 8005eb4:	5871      	ldr	r1, [r6, r1]
 8005eb6:	880e      	ldrh	r6, [r1, #0]
 8005eb8:	0051      	lsls	r1, r2, #1
 8005eba:	526e      	strh	r6, [r5, r1]
 8005ebc:	8b21      	ldrh	r1, [r4, #24]
 8005ebe:	3201      	adds	r2, #1
 8005ec0:	3102      	adds	r1, #2
 8005ec2:	8321      	strh	r1, [r4, #24]
 8005ec4:	e7c8      	b.n	8005e58 <MCPA_dataLog+0x9c>
 8005ec6:	68a2      	ldr	r2, [r4, #8]
 8005ec8:	009e      	lsls	r6, r3, #2
 8005eca:	58b2      	ldr	r2, [r6, r2]
 8005ecc:	6812      	ldr	r2, [r2, #0]
 8005ece:	5142      	str	r2, [r0, r5]
 8005ed0:	6922      	ldr	r2, [r4, #16]
 8005ed2:	5cd2      	ldrb	r2, [r2, r3]
 8005ed4:	3301      	adds	r3, #1
 8005ed6:	18aa      	adds	r2, r5, r2
 8005ed8:	8322      	strh	r2, [r4, #24]
 8005eda:	b2db      	uxtb	r3, r3
 8005edc:	e7cd      	b.n	8005e7a <MCPA_dataLog+0xbe>
 8005ede:	3201      	adds	r2, #1
 8005ee0:	77ca      	strb	r2, [r1, #31]
 8005ee2:	e7cd      	b.n	8005e80 <MCPA_dataLog+0xc4>
 8005ee4:	0022      	movs	r2, r4
 8005ee6:	1d63      	adds	r3, r4, #5
 8005ee8:	3228      	adds	r2, #40	@ 0x28
 8005eea:	7fdb      	ldrb	r3, [r3, #31]
 8005eec:	7815      	ldrb	r5, [r2, #0]
 8005eee:	18ed      	adds	r5, r5, r3
 8005ef0:	8b20      	ldrh	r0, [r4, #24]
 8005ef2:	180a      	adds	r2, r1, r0
 8005ef4:	42ab      	cmp	r3, r5
 8005ef6:	dacc      	bge.n	8005e92 <MCPA_dataLog+0xd6>
 8005ef8:	68a6      	ldr	r6, [r4, #8]
 8005efa:	009f      	lsls	r7, r3, #2
 8005efc:	59be      	ldr	r6, [r7, r6]
 8005efe:	6836      	ldr	r6, [r6, #0]
 8005f00:	6016      	str	r6, [r2, #0]
 8005f02:	6922      	ldr	r2, [r4, #16]
 8005f04:	5cd2      	ldrb	r2, [r2, r3]
 8005f06:	3301      	adds	r3, #1
 8005f08:	1882      	adds	r2, r0, r2
 8005f0a:	8322      	strh	r2, [r4, #24]
 8005f0c:	b2db      	uxtb	r3, r3
 8005f0e:	e7ef      	b.n	8005ef0 <MCPA_dataLog+0x134>
 8005f10:	3301      	adds	r3, #1
 8005f12:	77c3      	strb	r3, [r0, #31]
 8005f14:	e7cb      	b.n	8005eae <MCPA_dataLog+0xf2>
 8005f16:	46c0      	nop			@ (mov r8, r8)
 8005f18:	200009f8 	.word	0x200009f8

08005f1c <MCPA_flushDataLog>:
 8005f1c:	b5f8      	push	{r3, r4, r5, r6, r7, lr}
 8005f1e:	8b03      	ldrh	r3, [r0, #24]
 8005f20:	0004      	movs	r4, r0
 8005f22:	2b00      	cmp	r3, #0
 8005f24:	d012      	beq.n	8005f4c <MCPA_flushDataLog+0x30>
 8005f26:	1dc3      	adds	r3, r0, #7
 8005f28:	7fdb      	ldrb	r3, [r3, #31]
 8005f2a:	6941      	ldr	r1, [r0, #20]
 8005f2c:	2bfe      	cmp	r3, #254	@ 0xfe
 8005f2e:	d00e      	beq.n	8005f4e <MCPA_flushDataLog+0x32>
 8005f30:	0022      	movs	r2, r4
 8005f32:	322a      	adds	r2, #42	@ 0x2a
 8005f34:	8b23      	ldrh	r3, [r4, #24]
 8005f36:	7812      	ldrb	r2, [r2, #0]
 8005f38:	6820      	ldr	r0, [r4, #0]
 8005f3a:	52ca      	strh	r2, [r1, r3]
 8005f3c:	8b22      	ldrh	r2, [r4, #24]
 8005f3e:	2309      	movs	r3, #9
 8005f40:	3202      	adds	r2, #2
 8005f42:	6845      	ldr	r5, [r0, #4]
 8005f44:	b292      	uxth	r2, r2
 8005f46:	47a8      	blx	r5
 8005f48:	2300      	movs	r3, #0
 8005f4a:	8323      	strh	r3, [r4, #24]
 8005f4c:	bdf8      	pop	{r3, r4, r5, r6, r7, pc}
 8005f4e:	0002      	movs	r2, r0
 8005f50:	1d43      	adds	r3, r0, #5
 8005f52:	3228      	adds	r2, #40	@ 0x28
 8005f54:	7fdb      	ldrb	r3, [r3, #31]
 8005f56:	7815      	ldrb	r5, [r2, #0]
 8005f58:	18ed      	adds	r5, r5, r3
 8005f5a:	8b20      	ldrh	r0, [r4, #24]
 8005f5c:	180a      	adds	r2, r1, r0
 8005f5e:	42ab      	cmp	r3, r5
 8005f60:	dae6      	bge.n	8005f30 <MCPA_flushDataLog+0x14>
 8005f62:	68a6      	ldr	r6, [r4, #8]
 8005f64:	009f      	lsls	r7, r3, #2
 8005f66:	59be      	ldr	r6, [r7, r6]
 8005f68:	6836      	ldr	r6, [r6, #0]
 8005f6a:	6016      	str	r6, [r2, #0]
 8005f6c:	6922      	ldr	r2, [r4, #16]
 8005f6e:	5cd2      	ldrb	r2, [r2, r3]
 8005f70:	3301      	adds	r3, #1
 8005f72:	1882      	adds	r2, r0, r2
 8005f74:	8322      	strh	r2, [r4, #24]
 8005f76:	b2db      	uxtb	r3, r3
 8005f78:	e7ef      	b.n	8005f5a <MCPA_flushDataLog+0x3e>

08005f7a <MCPA_cfgLog>:
 8005f7a:	b5f0      	push	{r4, r5, r6, r7, lr}
 8005f7c:	880e      	ldrh	r6, [r1, #0]
 8005f7e:	0004      	movs	r4, r0
 8005f80:	b085      	sub	sp, #20
 8005f82:	2e00      	cmp	r6, #0
 8005f84:	d104      	bne.n	8005f90 <MCPA_cfgLog+0x16>
 8005f86:	0020      	movs	r0, r4
 8005f88:	f7ff fefb 	bl	8005d82 <MCPA_stopDataLog>
 8005f8c:	2000      	movs	r0, #0
 8005f8e:	e004      	b.n	8005f9a <MCPA_cfgLog+0x20>
 8005f90:	6803      	ldr	r3, [r0, #0]
 8005f92:	89db      	ldrh	r3, [r3, #14]
 8005f94:	42b3      	cmp	r3, r6
 8005f96:	d202      	bcs.n	8005f9e <MCPA_cfgLog+0x24>
 8005f98:	2009      	movs	r0, #9
 8005f9a:	b005      	add	sp, #20
 8005f9c:	bdf0      	pop	{r4, r5, r6, r7, pc}
 8005f9e:	788a      	ldrb	r2, [r1, #2]
 8005fa0:	1c83      	adds	r3, r0, #2
 8005fa2:	77da      	strb	r2, [r3, #31]
 8005fa4:	78cb      	ldrb	r3, [r1, #3]
 8005fa6:	1d02      	adds	r2, r0, #4
 8005fa8:	77d3      	strb	r3, [r2, #31]
 8005faa:	7908      	ldrb	r0, [r1, #4]
 8005fac:	1da2      	adds	r2, r4, #6
 8005fae:	77d0      	strb	r0, [r2, #31]
 8005fb0:	0020      	movs	r0, r4
 8005fb2:	794a      	ldrb	r2, [r1, #5]
 8005fb4:	3008      	adds	r0, #8
 8005fb6:	77c2      	strb	r2, [r0, #31]
 8005fb8:	189b      	adds	r3, r3, r2
 8005fba:	7fa2      	ldrb	r2, [r4, #30]
 8005fbc:	200a      	movs	r0, #10
 8005fbe:	4293      	cmp	r3, r2
 8005fc0:	dceb      	bgt.n	8005f9a <MCPA_cfgLog+0x20>
 8005fc2:	2700      	movs	r7, #0
 8005fc4:	003d      	movs	r5, r7
 8005fc6:	1d8b      	adds	r3, r1, #6
 8005fc8:	9301      	str	r3, [sp, #4]
 8005fca:	0022      	movs	r2, r4
 8005fcc:	1d23      	adds	r3, r4, #4
 8005fce:	9303      	str	r3, [sp, #12]
 8005fd0:	3208      	adds	r2, #8
 8005fd2:	7fdb      	ldrb	r3, [r3, #31]
 8005fd4:	7fd2      	ldrb	r2, [r2, #31]
 8005fd6:	189b      	adds	r3, r3, r2
 8005fd8:	429d      	cmp	r5, r3
 8005fda:	db0d      	blt.n	8005ff8 <MCPA_cfgLog+0x7e>
 8005fdc:	1dbb      	adds	r3, r7, #6
 8005fde:	429e      	cmp	r6, r3
 8005fe0:	d3da      	bcc.n	8005f98 <MCPA_cfgLog+0x1e>
 8005fe2:	0022      	movs	r2, r4
 8005fe4:	3e02      	subs	r6, #2
 8005fe6:	9b01      	ldr	r3, [sp, #4]
 8005fe8:	1bf6      	subs	r6, r6, r7
 8005fea:	8366      	strh	r6, [r4, #26]
 8005fec:	781b      	ldrb	r3, [r3, #0]
 8005fee:	3229      	adds	r2, #41	@ 0x29
 8005ff0:	7013      	strb	r3, [r2, #0]
 8005ff2:	2b00      	cmp	r3, #0
 8005ff4:	d1ca      	bne.n	8005f8c <MCPA_cfgLog+0x12>
 8005ff6:	e7c6      	b.n	8005f86 <MCPA_cfgLog+0xc>
 8005ff8:	9b01      	ldr	r3, [sp, #4]
 8005ffa:	6861      	ldr	r1, [r4, #4]
 8005ffc:	881b      	ldrh	r3, [r3, #0]
 8005ffe:	9302      	str	r3, [sp, #8]
 8006000:	00ab      	lsls	r3, r5, #2
 8006002:	18c9      	adds	r1, r1, r3
 8006004:	9802      	ldr	r0, [sp, #8]
 8006006:	f7fd fdc5 	bl	8003b94 <RI_GetPtrReg>
 800600a:	9b03      	ldr	r3, [sp, #12]
 800600c:	2002      	movs	r0, #2
 800600e:	7fdb      	ldrb	r3, [r3, #31]
 8006010:	42ab      	cmp	r3, r5
 8006012:	d802      	bhi.n	800601a <MCPA_cfgLog+0xa0>
 8006014:	9802      	ldr	r0, [sp, #8]
 8006016:	f7fd fdaf 	bl	8003b78 <RI_GetIDSize>
 800601a:	68e3      	ldr	r3, [r4, #12]
 800601c:	5558      	strb	r0, [r3, r5]
 800601e:	9b01      	ldr	r3, [sp, #4]
 8006020:	3302      	adds	r3, #2
 8006022:	9301      	str	r3, [sp, #4]
 8006024:	68e3      	ldr	r3, [r4, #12]
 8006026:	5d5b      	ldrb	r3, [r3, r5]
 8006028:	3501      	adds	r5, #1
 800602a:	18ff      	adds	r7, r7, r3
 800602c:	b2bf      	uxth	r7, r7
 800602e:	b2ed      	uxtb	r5, r5
 8006030:	e7cb      	b.n	8005fca <MCPA_cfgLog+0x50>

08006032 <NTC_Clear>:
 8006032:	2300      	movs	r3, #0
 8006034:	8043      	strh	r3, [r0, #2]
 8006036:	4770      	bx	lr

08006038 <NTC_Init>:
 8006038:	7803      	ldrb	r3, [r0, #0]
 800603a:	b510      	push	{r4, lr}
 800603c:	2b00      	cmp	r3, #0
 800603e:	d102      	bne.n	8006046 <NTC_Init+0xe>
 8006040:	f7ff fff7 	bl	8006032 <NTC_Clear>
 8006044:	bd10      	pop	{r4, pc}
 8006046:	2300      	movs	r3, #0
 8006048:	8103      	strh	r3, [r0, #8]
 800604a:	8883      	ldrh	r3, [r0, #4]
 800604c:	8043      	strh	r3, [r0, #2]
 800604e:	e7f9      	b.n	8006044 <NTC_Init+0xc>

08006050 <NTC_GetAvTemp_C>:
 8006050:	7803      	ldrb	r3, [r0, #0]
 8006052:	2b00      	cmp	r3, #0
 8006054:	d10a      	bne.n	800606c <NTC_GetAvTemp_C+0x1c>
 8006056:	6942      	ldr	r2, [r0, #20]
 8006058:	8843      	ldrh	r3, [r0, #2]
 800605a:	1a9b      	subs	r3, r3, r2
 800605c:	2110      	movs	r1, #16
 800605e:	5e42      	ldrsh	r2, [r0, r1]
 8006060:	8b00      	ldrh	r0, [r0, #24]
 8006062:	4353      	muls	r3, r2
 8006064:	141b      	asrs	r3, r3, #16
 8006066:	18c0      	adds	r0, r0, r3
 8006068:	b200      	sxth	r0, r0
 800606a:	4770      	bx	lr
 800606c:	88c0      	ldrh	r0, [r0, #6]
 800606e:	e7fb      	b.n	8006068 <NTC_GetAvTemp_C+0x18>

08006070 <PID_HandleInit>:
 8006070:	6803      	ldr	r3, [r0, #0]
 8006072:	6043      	str	r3, [r0, #4]
 8006074:	8c03      	ldrh	r3, [r0, #32]
 8006076:	8443      	strh	r3, [r0, #34]	@ 0x22
 8006078:	2300      	movs	r3, #0
 800607a:	6083      	str	r3, [r0, #8]
 800607c:	6283      	str	r3, [r0, #40]	@ 0x28
 800607e:	4770      	bx	lr

08006080 <PID_SetKP>:
 8006080:	8081      	strh	r1, [r0, #4]
 8006082:	4770      	bx	lr

08006084 <PID_SetKI>:
 8006084:	80c1      	strh	r1, [r0, #6]
 8006086:	4770      	bx	lr

08006088 <PID_GetKP>:
 8006088:	2304      	movs	r3, #4
 800608a:	5ec0      	ldrsh	r0, [r0, r3]
 800608c:	4770      	bx	lr

0800608e <PID_GetKI>:
 800608e:	2306      	movs	r3, #6
 8006090:	5ec0      	ldrsh	r0, [r0, r3]
 8006092:	4770      	bx	lr

08006094 <PID_SetIntegralTerm>:
 8006094:	6081      	str	r1, [r0, #8]
 8006096:	4770      	bx	lr

08006098 <PID_GetKPDivisorPOW2>:
 8006098:	8b80      	ldrh	r0, [r0, #28]
 800609a:	4770      	bx	lr

0800609c <PID_SetKPDivisorPOW2>:
 800609c:	2301      	movs	r3, #1
 800609e:	408b      	lsls	r3, r1
 80060a0:	8381      	strh	r1, [r0, #28]
 80060a2:	8303      	strh	r3, [r0, #24]
 80060a4:	4770      	bx	lr

080060a6 <PID_GetKIDivisorPOW2>:
 80060a6:	8bc0      	ldrh	r0, [r0, #30]
 80060a8:	4770      	bx	lr

080060aa <PID_SetLowerIntegralTermLimit>:
 80060aa:	6101      	str	r1, [r0, #16]
 80060ac:	4770      	bx	lr

080060ae <PID_SetUpperIntegralTermLimit>:
 80060ae:	60c1      	str	r1, [r0, #12]
 80060b0:	4770      	bx	lr
	...

080060b4 <PID_SetKIDivisorPOW2>:
 80060b4:	2301      	movs	r3, #1
 80060b6:	b570      	push	{r4, r5, r6, lr}
 80060b8:	408b      	lsls	r3, r1
 80060ba:	000d      	movs	r5, r1
 80060bc:	0004      	movs	r4, r0
 80060be:	83c1      	strh	r1, [r0, #30]
 80060c0:	4905      	ldr	r1, [pc, #20]	@ (80060d8 <PID_SetKIDivisorPOW2+0x24>)
 80060c2:	8343      	strh	r3, [r0, #26]
 80060c4:	40a9      	lsls	r1, r5
 80060c6:	f7ff fff2 	bl	80060ae <PID_SetUpperIntegralTermLimit>
 80060ca:	4904      	ldr	r1, [pc, #16]	@ (80060dc <PID_SetKIDivisorPOW2+0x28>)
 80060cc:	0020      	movs	r0, r4
 80060ce:	40a9      	lsls	r1, r5
 80060d0:	f7ff ffeb 	bl	80060aa <PID_SetLowerIntegralTermLimit>
 80060d4:	bd70      	pop	{r4, r5, r6, pc}
 80060d6:	46c0      	nop			@ (mov r8, r8)
 80060d8:	00007fff 	.word	0x00007fff
 80060dc:	ffff8001 	.word	0xffff8001

080060e0 <PID_SetKD>:
 80060e0:	8441      	strh	r1, [r0, #34]	@ 0x22
 80060e2:	4770      	bx	lr

080060e4 <PID_GetKD>:
 80060e4:	2322      	movs	r3, #34	@ 0x22
 80060e6:	5ec0      	ldrsh	r0, [r0, r3]
 80060e8:	4770      	bx	lr

080060ea <PID_GetKDDivisorPOW2>:
 80060ea:	8cc0      	ldrh	r0, [r0, #38]	@ 0x26
 80060ec:	4770      	bx	lr

080060ee <PID_SetKDDivisorPOW2>:
 80060ee:	2301      	movs	r3, #1
 80060f0:	408b      	lsls	r3, r1
 80060f2:	84c1      	strh	r1, [r0, #38]	@ 0x26
 80060f4:	8483      	strh	r3, [r0, #36]	@ 0x24
 80060f6:	4770      	bx	lr

080060f8 <PI_Controller>:
 80060f8:	b570      	push	{r4, r5, r6, lr}
 80060fa:	2314      	movs	r3, #20
 80060fc:	5ec4      	ldrsh	r4, [r0, r3]
 80060fe:	2316      	movs	r3, #22
 8006100:	5ec2      	ldrsh	r2, [r0, r3]
 8006102:	2506      	movs	r5, #6
 8006104:	5f46      	ldrsh	r6, [r0, r5]
 8006106:	2504      	movs	r5, #4
 8006108:	5f43      	ldrsh	r3, [r0, r5]
 800610a:	2500      	movs	r5, #0
 800610c:	434b      	muls	r3, r1
 800610e:	42ae      	cmp	r6, r5
 8006110:	d00f      	beq.n	8006132 <PI_Controller+0x3a>
 8006112:	4371      	muls	r1, r6
 8006114:	6885      	ldr	r5, [r0, #8]
 8006116:	186e      	adds	r6, r5, r1
 8006118:	d519      	bpl.n	800614e <PI_Controller+0x56>
 800611a:	2d00      	cmp	r5, #0
 800611c:	dd02      	ble.n	8006124 <PI_Controller+0x2c>
 800611e:	2900      	cmp	r1, #0
 8006120:	dd00      	ble.n	8006124 <PI_Controller+0x2c>
 8006122:	4e10      	ldr	r6, [pc, #64]	@ (8006164 <PI_Controller+0x6c>)
 8006124:	68c5      	ldr	r5, [r0, #12]
 8006126:	42b5      	cmp	r5, r6
 8006128:	db03      	blt.n	8006132 <PI_Controller+0x3a>
 800612a:	6905      	ldr	r5, [r0, #16]
 800612c:	42b5      	cmp	r5, r6
 800612e:	da00      	bge.n	8006132 <PI_Controller+0x3a>
 8006130:	0035      	movs	r5, r6
 8006132:	002e      	movs	r6, r5
 8006134:	8b81      	ldrh	r1, [r0, #28]
 8006136:	410b      	asrs	r3, r1
 8006138:	8bc1      	ldrh	r1, [r0, #30]
 800613a:	410e      	asrs	r6, r1
 800613c:	199b      	adds	r3, r3, r6
 800613e:	429c      	cmp	r4, r3
 8006140:	da09      	bge.n	8006156 <PI_Controller+0x5e>
 8006142:	1ae1      	subs	r1, r4, r3
 8006144:	0023      	movs	r3, r4
 8006146:	1949      	adds	r1, r1, r5
 8006148:	6081      	str	r1, [r0, #8]
 800614a:	b218      	sxth	r0, r3
 800614c:	bd70      	pop	{r4, r5, r6, pc}
 800614e:	4029      	ands	r1, r5
 8006150:	d5e8      	bpl.n	8006124 <PI_Controller+0x2c>
 8006152:	4e05      	ldr	r6, [pc, #20]	@ (8006168 <PI_Controller+0x70>)
 8006154:	e7e6      	b.n	8006124 <PI_Controller+0x2c>
 8006156:	2100      	movs	r1, #0
 8006158:	429a      	cmp	r2, r3
 800615a:	ddf4      	ble.n	8006146 <PI_Controller+0x4e>
 800615c:	1ad1      	subs	r1, r2, r3
 800615e:	0013      	movs	r3, r2
 8006160:	e7f1      	b.n	8006146 <PI_Controller+0x4e>
 8006162:	46c0      	nop			@ (mov r8, r8)
 8006164:	7fffffff 	.word	0x7fffffff
 8006168:	80000001 	.word	0x80000001

0800616c <PQD_CalcElMotorPower>:
 800616c:	b510      	push	{r4, lr}
 800616e:	6883      	ldr	r3, [r0, #8]
 8006170:	210c      	movs	r1, #12
 8006172:	5e5a      	ldrsh	r2, [r3, r1]
 8006174:	2416      	movs	r4, #22
 8006176:	5f19      	ldrsh	r1, [r3, r4]
 8006178:	4351      	muls	r1, r2
 800617a:	240e      	movs	r4, #14
 800617c:	5f1a      	ldrsh	r2, [r3, r4]
 800617e:	2418      	movs	r4, #24
 8006180:	5f1b      	ldrsh	r3, [r3, r4]
 8006182:	240f      	movs	r4, #15
 8006184:	4353      	muls	r3, r2
 8006186:	18c9      	adds	r1, r1, r3
 8006188:	2300      	movs	r3, #0
 800618a:	5ec2      	ldrsh	r2, [r0, r3]
 800618c:	17cb      	asrs	r3, r1, #31
 800618e:	b29b      	uxth	r3, r3
 8006190:	185b      	adds	r3, r3, r1
 8006192:	141b      	asrs	r3, r3, #16
 8006194:	1a9b      	subs	r3, r3, r2
 8006196:	17d9      	asrs	r1, r3, #31
 8006198:	4021      	ands	r1, r4
 800619a:	18cb      	adds	r3, r1, r3
 800619c:	111b      	asrs	r3, r3, #4
 800619e:	189b      	adds	r3, r3, r2
 80061a0:	8003      	strh	r3, [r0, #0]
 80061a2:	bd10      	pop	{r4, pc}

080061a4 <PQD_Clear>:
 80061a4:	2300      	movs	r3, #0
 80061a6:	8003      	strh	r3, [r0, #0]
 80061a8:	4770      	bx	lr

080061aa <PQD_GetAvrgElMotorPowerW>:
 80061aa:	b570      	push	{r4, r5, r6, lr}
 80061ac:	0004      	movs	r4, r0
 80061ae:	2300      	movs	r3, #0
 80061b0:	5ec0      	ldrsh	r0, [r0, r3]
 80061b2:	f7fa fa71 	bl	8000698 <__aeabi_i2f>
 80061b6:	1c05      	adds	r5, r0, #0
 80061b8:	68e0      	ldr	r0, [r4, #12]
 80061ba:	f7ff fc63 	bl	8005a84 <VBS_GetAvBusVoltage_V>
 80061be:	f7fa fab7 	bl	8000730 <__aeabi_ui2f>
 80061c2:	1c29      	adds	r1, r5, #0
 80061c4:	f7fa f92a 	bl	800041c <__aeabi_fmul>
 80061c8:	6861      	ldr	r1, [r4, #4]
 80061ca:	f7fa f927 	bl	800041c <__aeabi_fmul>
 80061ce:	bd70      	pop	{r4, r5, r6, pc}

080061d0 <waitForPolarizationEnd>:
 80061d0:	3201      	adds	r2, #1
 80061d2:	b570      	push	{r4, r5, r6, lr}
 80061d4:	0854      	lsrs	r4, r2, #1
 80061d6:	2203      	movs	r2, #3
 80061d8:	4252      	negs	r2, r2
 80061da:	6102      	str	r2, [r0, #16]
 80061dc:	2602      	movs	r6, #2
 80061de:	2200      	movs	r2, #0
 80061e0:	0164      	lsls	r4, r4, #5
 80061e2:	781d      	ldrb	r5, [r3, #0]
 80061e4:	2d0f      	cmp	r5, #15
 80061e6:	d80e      	bhi.n	8006206 <waitForPolarizationEnd+0x36>
 80061e8:	6905      	ldr	r5, [r0, #16]
 80061ea:	4235      	tst	r5, r6
 80061ec:	d0f9      	beq.n	80061e2 <waitForPolarizationEnd+0x12>
 80061ee:	2503      	movs	r5, #3
 80061f0:	3201      	adds	r2, #1
 80061f2:	426d      	negs	r5, r5
 80061f4:	b292      	uxth	r2, r2
 80061f6:	6105      	str	r5, [r0, #16]
 80061f8:	4294      	cmp	r4, r2
 80061fa:	d8f2      	bhi.n	80061e2 <waitForPolarizationEnd+0x12>
 80061fc:	781d      	ldrb	r5, [r3, #0]
 80061fe:	2d0f      	cmp	r5, #15
 8006200:	d8ef      	bhi.n	80061e2 <waitForPolarizationEnd+0x12>
 8006202:	2301      	movs	r3, #1
 8006204:	800b      	strh	r3, [r1, #0]
 8006206:	bd70      	pop	{r4, r5, r6, pc}

08006208 <RVBS_Clear>:
 8006208:	8a42      	ldrh	r2, [r0, #18]
 800620a:	8983      	ldrh	r3, [r0, #12]
 800620c:	b510      	push	{r4, lr}
 800620e:	189b      	adds	r3, r3, r2
 8006210:	2200      	movs	r2, #0
 8006212:	085b      	lsrs	r3, r3, #1
 8006214:	8941      	ldrh	r1, [r0, #10]
 8006216:	4291      	cmp	r1, r2
 8006218:	d804      	bhi.n	8006224 <RVBS_Clear+0x1c>
 800621a:	8083      	strh	r3, [r0, #4]
 800621c:	80c3      	strh	r3, [r0, #6]
 800621e:	2300      	movs	r3, #0
 8006220:	7643      	strb	r3, [r0, #25]
 8006222:	bd10      	pop	{r4, pc}
 8006224:	6941      	ldr	r1, [r0, #20]
 8006226:	0054      	lsls	r4, r2, #1
 8006228:	3201      	adds	r2, #1
 800622a:	5263      	strh	r3, [r4, r1]
 800622c:	b292      	uxth	r2, r2
 800622e:	e7f1      	b.n	8006214 <RVBS_Clear+0xc>

08006230 <RVBS_Init>:
 8006230:	b510      	push	{r4, lr}
 8006232:	f7ff ffe9 	bl	8006208 <RVBS_Clear>
 8006236:	bd10      	pop	{r4, pc}

08006238 <RVBS_CheckFaultState>:
 8006238:	b530      	push	{r4, r5, lr}
 800623a:	8981      	ldrh	r1, [r0, #12]
 800623c:	89c4      	ldrh	r4, [r0, #14]
 800623e:	0003      	movs	r3, r0
 8006240:	88c2      	ldrh	r2, [r0, #6]
 8006242:	42a1      	cmp	r1, r4
 8006244:	d107      	bne.n	8006256 <RVBS_CheckFaultState+0x1e>
 8006246:	4291      	cmp	r1, r2
 8006248:	d30e      	bcc.n	8006268 <RVBS_CheckFaultState+0x30>
 800624a:	8a43      	ldrh	r3, [r0, #18]
 800624c:	429a      	cmp	r2, r3
 800624e:	4192      	sbcs	r2, r2
 8006250:	4252      	negs	r2, r2
 8006252:	0090      	lsls	r0, r2, #2
 8006254:	bd30      	pop	{r4, r5, pc}
 8006256:	8a45      	ldrh	r5, [r0, #18]
 8006258:	2004      	movs	r0, #4
 800625a:	4295      	cmp	r5, r2
 800625c:	d8fa      	bhi.n	8006254 <RVBS_CheckFaultState+0x1c>
 800625e:	7c18      	ldrb	r0, [r3, #16]
 8006260:	2800      	cmp	r0, #0
 8006262:	d107      	bne.n	8006274 <RVBS_CheckFaultState+0x3c>
 8006264:	4294      	cmp	r4, r2
 8006266:	d801      	bhi.n	800626c <RVBS_CheckFaultState+0x34>
 8006268:	2002      	movs	r0, #2
 800626a:	e7f3      	b.n	8006254 <RVBS_CheckFaultState+0x1c>
 800626c:	2201      	movs	r2, #1
 800626e:	741a      	strb	r2, [r3, #16]
 8006270:	2000      	movs	r0, #0
 8006272:	e7ef      	b.n	8006254 <RVBS_CheckFaultState+0x1c>
 8006274:	4291      	cmp	r1, r2
 8006276:	d2fb      	bcs.n	8006270 <RVBS_CheckFaultState+0x38>
 8006278:	2200      	movs	r2, #0
 800627a:	741a      	strb	r2, [r3, #16]
 800627c:	e7f4      	b.n	8006268 <RVBS_CheckFaultState+0x30>
	...

08006280 <RVBS_CalcAvVbus>:
 8006280:	b5f8      	push	{r3, r4, r5, r6, r7, lr}
 8006282:	4b13      	ldr	r3, [pc, #76]	@ (80062d0 <RVBS_CalcAvVbus+0x50>)
 8006284:	0004      	movs	r4, r0
 8006286:	000f      	movs	r7, r1
 8006288:	4299      	cmp	r1, r3
 800628a:	d014      	beq.n	80062b6 <RVBS_CalcAvVbus+0x36>
 800628c:	7e45      	ldrb	r5, [r0, #25]
 800628e:	6943      	ldr	r3, [r0, #20]
 8006290:	006a      	lsls	r2, r5, #1
 8006292:	52d1      	strh	r1, [r2, r3]
 8006294:	8946      	ldrh	r6, [r0, #10]
 8006296:	2000      	movs	r0, #0
 8006298:	b2f2      	uxtb	r2, r6
 800629a:	0052      	lsls	r2, r2, #1
 800629c:	189a      	adds	r2, r3, r2
 800629e:	4293      	cmp	r3, r2
 80062a0:	d10e      	bne.n	80062c0 <RVBS_CalcAvVbus+0x40>
 80062a2:	0031      	movs	r1, r6
 80062a4:	f7f9 ff44 	bl	8000130 <__udivsi3>
 80062a8:	3e01      	subs	r6, #1
 80062aa:	80e0      	strh	r0, [r4, #6]
 80062ac:	80a7      	strh	r7, [r4, #4]
 80062ae:	42b5      	cmp	r5, r6
 80062b0:	d20a      	bcs.n	80062c8 <RVBS_CalcAvVbus+0x48>
 80062b2:	3501      	adds	r5, #1
 80062b4:	7665      	strb	r5, [r4, #25]
 80062b6:	0020      	movs	r0, r4
 80062b8:	f7ff ffbe 	bl	8006238 <RVBS_CheckFaultState>
 80062bc:	8120      	strh	r0, [r4, #8]
 80062be:	bdf8      	pop	{r3, r4, r5, r6, r7, pc}
 80062c0:	8819      	ldrh	r1, [r3, #0]
 80062c2:	3302      	adds	r3, #2
 80062c4:	1840      	adds	r0, r0, r1
 80062c6:	e7ea      	b.n	800629e <RVBS_CalcAvVbus+0x1e>
 80062c8:	2300      	movs	r3, #0
 80062ca:	7663      	strb	r3, [r4, #25]
 80062cc:	e7f3      	b.n	80062b6 <RVBS_CalcAvVbus+0x36>
 80062ce:	46c0      	nop			@ (mov r8, r8)
 80062d0:	0000ffff 	.word	0x0000ffff

080062d4 <REMNG_Init>:
 80062d4:	2300      	movs	r3, #0
 80062d6:	6083      	str	r3, [r0, #8]
 80062d8:	6043      	str	r3, [r0, #4]
 80062da:	60c3      	str	r3, [r0, #12]
 80062dc:	6103      	str	r3, [r0, #16]
 80062de:	3301      	adds	r3, #1
 80062e0:	6143      	str	r3, [r0, #20]
 80062e2:	4770      	bx	lr

080062e4 <SPD_GetElAngle>:
 80062e4:	2304      	movs	r3, #4
 80062e6:	5ec0      	ldrsh	r0, [r0, r3]
 80062e8:	4770      	bx	lr

080062ea <SPD_GetAvrgMecSpeedUnit>:
 80062ea:	230c      	movs	r3, #12
 80062ec:	5ec0      	ldrsh	r0, [r0, r3]
 80062ee:	4770      	bx	lr

080062f0 <SPD_GetInstElSpeedDpp>:
 80062f0:	2310      	movs	r3, #16
 80062f2:	5ec0      	ldrsh	r0, [r0, r3]
 80062f4:	4770      	bx	lr

080062f6 <SPD_IsMecSpeedReliable>:
 80062f6:	b570      	push	{r4, r5, r6, lr}
 80062f8:	0002      	movs	r2, r0
 80062fa:	78c3      	ldrb	r3, [r0, #3]
 80062fc:	7804      	ldrb	r4, [r0, #0]
 80062fe:	2000      	movs	r0, #0
 8006300:	5e08      	ldrsh	r0, [r1, r0]
 8006302:	b281      	uxth	r1, r0
 8006304:	2800      	cmp	r0, #0
 8006306:	da01      	bge.n	800630c <SPD_IsMecSpeedReliable+0x16>
 8006308:	4249      	negs	r1, r1
 800630a:	b289      	uxth	r1, r1
 800630c:	8ad6      	ldrh	r6, [r2, #22]
 800630e:	2001      	movs	r0, #1
 8006310:	8a95      	ldrh	r5, [r2, #20]
 8006312:	428e      	cmp	r6, r1
 8006314:	d802      	bhi.n	800631c <SPD_IsMecSpeedReliable+0x26>
 8006316:	428d      	cmp	r5, r1
 8006318:	4189      	sbcs	r1, r1
 800631a:	4248      	negs	r0, r1
 800631c:	2112      	movs	r1, #18
 800631e:	5e55      	ldrsh	r5, [r2, r1]
 8006320:	b2a9      	uxth	r1, r5
 8006322:	2d00      	cmp	r5, #0
 8006324:	da01      	bge.n	800632a <SPD_IsMecSpeedReliable+0x34>
 8006326:	4249      	negs	r1, r1
 8006328:	b289      	uxth	r1, r1
 800632a:	8b15      	ldrh	r5, [r2, #24]
 800632c:	428d      	cmp	r5, r1
 800632e:	d301      	bcc.n	8006334 <SPD_IsMecSpeedReliable+0x3e>
 8006330:	2800      	cmp	r0, #0
 8006332:	d009      	beq.n	8006348 <SPD_IsMecSpeedReliable+0x52>
 8006334:	42a3      	cmp	r3, r4
 8006336:	d901      	bls.n	800633c <SPD_IsMecSpeedReliable+0x46>
 8006338:	3401      	adds	r4, #1
 800633a:	b2e4      	uxtb	r4, r4
 800633c:	1ae3      	subs	r3, r4, r3
 800633e:	1e59      	subs	r1, r3, #1
 8006340:	418b      	sbcs	r3, r1
 8006342:	b2d8      	uxtb	r0, r3
 8006344:	7014      	strb	r4, [r2, #0]
 8006346:	bd70      	pop	{r4, r5, r6, pc}
 8006348:	42a3      	cmp	r3, r4
 800634a:	d9f7      	bls.n	800633c <SPD_IsMecSpeedReliable+0x46>
 800634c:	0004      	movs	r4, r0
 800634e:	2001      	movs	r0, #1
 8006350:	e7f8      	b.n	8006344 <SPD_IsMecSpeedReliable+0x4e>

08006352 <SPD_GetS16Speed>:
 8006352:	0003      	movs	r3, r0
 8006354:	b510      	push	{r4, lr}
 8006356:	210c      	movs	r1, #12
 8006358:	5e42      	ldrsh	r2, [r0, r1]
 800635a:	2114      	movs	r1, #20
 800635c:	5e59      	ldrsh	r1, [r3, r1]
 800635e:	03d0      	lsls	r0, r2, #15
 8006360:	1a80      	subs	r0, r0, r2
 8006362:	f7f9 ff6f 	bl	8000244 <__divsi3>
 8006366:	b200      	sxth	r0, r0
 8006368:	bd10      	pop	{r4, pc}

0800636a <STC_Init>:
 800636a:	0003      	movs	r3, r0
 800636c:	6142      	str	r2, [r0, #20]
 800636e:	6101      	str	r1, [r0, #16]
 8006370:	332a      	adds	r3, #42	@ 0x2a
 8006372:	781b      	ldrb	r3, [r3, #0]
 8006374:	7003      	strb	r3, [r0, #0]
 8006376:	222c      	movs	r2, #44	@ 0x2c
 8006378:	5e83      	ldrsh	r3, [r0, r2]
 800637a:	041b      	lsls	r3, r3, #16
 800637c:	6043      	str	r3, [r0, #4]
 800637e:	222e      	movs	r2, #46	@ 0x2e
 8006380:	5e83      	ldrsh	r3, [r0, r2]
 8006382:	041b      	lsls	r3, r3, #16
 8006384:	6083      	str	r3, [r0, #8]
 8006386:	2300      	movs	r3, #0
 8006388:	8043      	strh	r3, [r0, #2]
 800638a:	60c3      	str	r3, [r0, #12]
 800638c:	6183      	str	r3, [r0, #24]
 800638e:	4770      	bx	lr

08006390 <STC_SetSpeedSensor>:
 8006390:	6141      	str	r1, [r0, #20]
 8006392:	4770      	bx	lr

08006394 <STC_GetSpeedSensor>:
 8006394:	6940      	ldr	r0, [r0, #20]
 8006396:	4770      	bx	lr

08006398 <STC_Clear>:
 8006398:	7803      	ldrb	r3, [r0, #0]
 800639a:	b510      	push	{r4, lr}
 800639c:	2b03      	cmp	r3, #3
 800639e:	d103      	bne.n	80063a8 <STC_Clear+0x10>
 80063a0:	2100      	movs	r1, #0
 80063a2:	6900      	ldr	r0, [r0, #16]
 80063a4:	f7ff fe76 	bl	8006094 <PID_SetIntegralTerm>
 80063a8:	bd10      	pop	{r4, pc}

080063aa <STC_GetMecSpeedRefUnit>:
 80063aa:	6840      	ldr	r0, [r0, #4]
 80063ac:	1400      	asrs	r0, r0, #16
 80063ae:	4770      	bx	lr

080063b0 <STC_GetTorqueRef>:
 80063b0:	6880      	ldr	r0, [r0, #8]
 80063b2:	1400      	asrs	r0, r0, #16
 80063b4:	4770      	bx	lr

080063b6 <STC_SetControlMode>:
 80063b6:	2300      	movs	r3, #0
 80063b8:	7001      	strb	r1, [r0, #0]
 80063ba:	60c3      	str	r3, [r0, #12]
 80063bc:	4770      	bx	lr

080063be <STC_ExecRamp>:
 80063be:	b5f8      	push	{r3, r4, r5, r6, r7, lr}
 80063c0:	7803      	ldrb	r3, [r0, #0]
 80063c2:	0004      	movs	r4, r0
 80063c4:	000d      	movs	r5, r1
 80063c6:	0016      	movs	r6, r2
 80063c8:	2b04      	cmp	r3, #4
 80063ca:	d109      	bne.n	80063e0 <STC_ExecRamp+0x22>
 80063cc:	f7ff fff0 	bl	80063b0 <STC_GetTorqueRef>
 80063d0:	2128      	movs	r1, #40	@ 0x28
 80063d2:	5e62      	ldrsh	r2, [r4, r1]
 80063d4:	0007      	movs	r7, r0
 80063d6:	8ce3      	ldrh	r3, [r4, #38]	@ 0x26
 80063d8:	42aa      	cmp	r2, r5
 80063da:	dd0f      	ble.n	80063fc <STC_ExecRamp+0x3e>
 80063dc:	2000      	movs	r0, #0
 80063de:	bdf8      	pop	{r3, r4, r5, r6, r7, pc}
 80063e0:	6847      	ldr	r7, [r0, #4]
 80063e2:	8bc3      	ldrh	r3, [r0, #30]
 80063e4:	143f      	asrs	r7, r7, #16
 80063e6:	428b      	cmp	r3, r1
 80063e8:	dbf8      	blt.n	80063dc <STC_ExecRamp+0x1e>
 80063ea:	2224      	movs	r2, #36	@ 0x24
 80063ec:	5e83      	ldrsh	r3, [r0, r2]
 80063ee:	428b      	cmp	r3, r1
 80063f0:	dcf4      	bgt.n	80063dc <STC_ExecRamp+0x1e>
 80063f2:	8c03      	ldrh	r3, [r0, #32]
 80063f4:	428b      	cmp	r3, r1
 80063f6:	dd03      	ble.n	8006400 <STC_ExecRamp+0x42>
 80063f8:	2222      	movs	r2, #34	@ 0x22
 80063fa:	5e83      	ldrsh	r3, [r0, r2]
 80063fc:	42ab      	cmp	r3, r5
 80063fe:	dbed      	blt.n	80063dc <STC_ExecRamp+0x1e>
 8006400:	2e00      	cmp	r6, #0
 8006402:	d10b      	bne.n	800641c <STC_ExecRamp+0x5e>
 8006404:	7823      	ldrb	r3, [r4, #0]
 8006406:	042d      	lsls	r5, r5, #16
 8006408:	2b03      	cmp	r3, #3
 800640a:	d105      	bne.n	8006418 <STC_ExecRamp+0x5a>
 800640c:	6065      	str	r5, [r4, #4]
 800640e:	2000      	movs	r0, #0
 8006410:	61a0      	str	r0, [r4, #24]
 8006412:	60e6      	str	r6, [r4, #12]
 8006414:	2001      	movs	r0, #1
 8006416:	e7e2      	b.n	80063de <STC_ExecRamp+0x20>
 8006418:	60a5      	str	r5, [r4, #8]
 800641a:	e7f8      	b.n	800640e <STC_ExecRamp+0x50>
 800641c:	21fa      	movs	r1, #250	@ 0xfa
 800641e:	8ba0      	ldrh	r0, [r4, #28]
 8006420:	8065      	strh	r5, [r4, #2]
 8006422:	4370      	muls	r0, r6
 8006424:	0089      	lsls	r1, r1, #2
 8006426:	f7f9 fe83 	bl	8000130 <__udivsi3>
 800642a:	1c46      	adds	r6, r0, #1
 800642c:	1be8      	subs	r0, r5, r7
 800642e:	0031      	movs	r1, r6
 8006430:	0400      	lsls	r0, r0, #16
 8006432:	f7f9 ff07 	bl	8000244 <__divsi3>
 8006436:	e7eb      	b.n	8006410 <STC_ExecRamp+0x52>

08006438 <STC_StopRamp>:
 8006438:	2300      	movs	r3, #0
 800643a:	60c3      	str	r3, [r0, #12]
 800643c:	6183      	str	r3, [r0, #24]
 800643e:	4770      	bx	lr

08006440 <STC_CalcTorqueReference>:
 8006440:	7802      	ldrb	r2, [r0, #0]
 8006442:	b570      	push	{r4, r5, r6, lr}
 8006444:	0004      	movs	r4, r0
 8006446:	2a04      	cmp	r2, #4
 8006448:	d116      	bne.n	8006478 <STC_CalcTorqueReference+0x38>
 800644a:	6885      	ldr	r5, [r0, #8]
 800644c:	68e3      	ldr	r3, [r4, #12]
 800644e:	2b01      	cmp	r3, #1
 8006450:	d914      	bls.n	800647c <STC_CalcTorqueReference+0x3c>
 8006452:	69a1      	ldr	r1, [r4, #24]
 8006454:	3b01      	subs	r3, #1
 8006456:	186d      	adds	r5, r5, r1
 8006458:	60e3      	str	r3, [r4, #12]
 800645a:	142e      	asrs	r6, r5, #16
 800645c:	2a03      	cmp	r2, #3
 800645e:	d114      	bne.n	800648a <STC_CalcTorqueReference+0x4a>
 8006460:	6960      	ldr	r0, [r4, #20]
 8006462:	f7ff ff42 	bl	80062ea <SPD_GetAvrgMecSpeedUnit>
 8006466:	1a31      	subs	r1, r6, r0
 8006468:	b209      	sxth	r1, r1
 800646a:	6920      	ldr	r0, [r4, #16]
 800646c:	f7ff fe44 	bl	80060f8 <PI_Controller>
 8006470:	6065      	str	r5, [r4, #4]
 8006472:	0405      	lsls	r5, r0, #16
 8006474:	60a5      	str	r5, [r4, #8]
 8006476:	bd70      	pop	{r4, r5, r6, pc}
 8006478:	6845      	ldr	r5, [r0, #4]
 800647a:	e7e7      	b.n	800644c <STC_CalcTorqueReference+0xc>
 800647c:	2b01      	cmp	r3, #1
 800647e:	d1ec      	bne.n	800645a <STC_CalcTorqueReference+0x1a>
 8006480:	2302      	movs	r3, #2
 8006482:	5ee5      	ldrsh	r5, [r4, r3]
 8006484:	2300      	movs	r3, #0
 8006486:	042d      	lsls	r5, r5, #16
 8006488:	e7e6      	b.n	8006458 <STC_CalcTorqueReference+0x18>
 800648a:	b230      	sxth	r0, r6
 800648c:	e7f2      	b.n	8006474 <STC_CalcTorqueReference+0x34>

0800648e <STC_GetMecSpeedRefUnitDefault>:
 800648e:	232c      	movs	r3, #44	@ 0x2c
 8006490:	5ec0      	ldrsh	r0, [r0, r3]
 8006492:	4770      	bx	lr

08006494 <STC_GetDefaultIqdref>:
 8006494:	8e02      	ldrh	r2, [r0, #48]	@ 0x30
 8006496:	8dc3      	ldrh	r3, [r0, #46]	@ 0x2e
 8006498:	0412      	lsls	r2, r2, #16
 800649a:	b298      	uxth	r0, r3
 800649c:	b082      	sub	sp, #8
 800649e:	4310      	orrs	r0, r2
 80064a0:	b002      	add	sp, #8
 80064a2:	4770      	bx	lr

080064a4 <STC_ForceSpeedReferenceToCurrentSpeed>:
 80064a4:	b510      	push	{r4, lr}
 80064a6:	0004      	movs	r4, r0
 80064a8:	6940      	ldr	r0, [r0, #20]
 80064aa:	f7ff ff1e 	bl	80062ea <SPD_GetAvrgMecSpeedUnit>
 80064ae:	0400      	lsls	r0, r0, #16
 80064b0:	6060      	str	r0, [r4, #4]
 80064b2:	bd10      	pop	{r4, pc}

080064b4 <VSS_Clear>:
 80064b4:	2300      	movs	r3, #0
 80064b6:	8ec2      	ldrh	r2, [r0, #54]	@ 0x36
 80064b8:	7003      	strb	r3, [r0, #0]
 80064ba:	6043      	str	r3, [r0, #4]
 80064bc:	60c3      	str	r3, [r0, #12]
 80064be:	8243      	strh	r3, [r0, #18]
 80064c0:	6203      	str	r3, [r0, #32]
 80064c2:	6243      	str	r3, [r0, #36]	@ 0x24
 80064c4:	8503      	strh	r3, [r0, #40]	@ 0x28
 80064c6:	8583      	strh	r3, [r0, #44]	@ 0x2c
 80064c8:	85c2      	strh	r2, [r0, #46]	@ 0x2e
 80064ca:	6303      	str	r3, [r0, #48]	@ 0x30
 80064cc:	4770      	bx	lr

080064ce <VSS_Init>:
 80064ce:	b510      	push	{r4, lr}
 80064d0:	f7ff fff0 	bl	80064b4 <VSS_Clear>
 80064d4:	bd10      	pop	{r4, pc}

080064d6 <VSS_SetMecAngle>:
 80064d6:	b570      	push	{r4, r5, r6, lr}
 80064d8:	000d      	movs	r5, r1
 80064da:	0004      	movs	r4, r0
 80064dc:	8601      	strh	r1, [r0, #48]	@ 0x30
 80064de:	7841      	ldrb	r1, [r0, #1]
 80064e0:	0028      	movs	r0, r5
 80064e2:	f7f9 feaf 	bl	8000244 <__divsi3>
 80064e6:	80a5      	strh	r5, [r4, #4]
 80064e8:	80e0      	strh	r0, [r4, #6]
 80064ea:	bd70      	pop	{r4, r5, r6, pc}

080064ec <VSS_SetMecAcceleration>:
 80064ec:	0003      	movs	r3, r0
 80064ee:	b5f7      	push	{r0, r1, r2, r4, r5, r6, r7, lr}
 80064f0:	332c      	adds	r3, #44	@ 0x2c
 80064f2:	781b      	ldrb	r3, [r3, #0]
 80064f4:	0004      	movs	r4, r0
 80064f6:	000f      	movs	r7, r1
 80064f8:	0015      	movs	r5, r2
 80064fa:	2b00      	cmp	r3, #0
 80064fc:	d112      	bne.n	8006524 <VSS_SetMecAcceleration+0x38>
 80064fe:	7843      	ldrb	r3, [r0, #1]
 8006500:	69c0      	ldr	r0, [r0, #28]
 8006502:	9300      	str	r3, [sp, #0]
 8006504:	4348      	muls	r0, r1
 8006506:	210a      	movs	r1, #10
 8006508:	8b63      	ldrh	r3, [r4, #26]
 800650a:	4359      	muls	r1, r3
 800650c:	f7f9 fe9a 	bl	8000244 <__divsi3>
 8006510:	9001      	str	r0, [sp, #4]
 8006512:	2d00      	cmp	r5, #0
 8006514:	d107      	bne.n	8006526 <VSS_SetMecAcceleration+0x3a>
 8006516:	0003      	movs	r3, r0
 8006518:	9a00      	ldr	r2, [sp, #0]
 800651a:	81a7      	strh	r7, [r4, #12]
 800651c:	4353      	muls	r3, r2
 800651e:	8525      	strh	r5, [r4, #40]	@ 0x28
 8006520:	81e3      	strh	r3, [r4, #14]
 8006522:	8567      	strh	r7, [r4, #42]	@ 0x2a
 8006524:	bdf7      	pop	{r0, r1, r2, r4, r5, r6, r7, pc}
 8006526:	21fa      	movs	r1, #250	@ 0xfa
 8006528:	8ea0      	ldrh	r0, [r4, #52]	@ 0x34
 800652a:	0089      	lsls	r1, r1, #2
 800652c:	4368      	muls	r0, r5
 800652e:	f7f9 fdff 	bl	8000130 <__udivsi3>
 8006532:	3001      	adds	r0, #1
 8006534:	b286      	uxth	r6, r0
 8006536:	230e      	movs	r3, #14
 8006538:	5ee5      	ldrsh	r5, [r4, r3]
 800653a:	8526      	strh	r6, [r4, #40]	@ 0x28
 800653c:	2e00      	cmp	r6, #0
 800653e:	d010      	beq.n	8006562 <VSS_SetMecAcceleration+0x76>
 8006540:	466b      	mov	r3, sp
 8006542:	2204      	movs	r2, #4
 8006544:	5e9b      	ldrsh	r3, [r3, r2]
 8006546:	9900      	ldr	r1, [sp, #0]
 8006548:	0028      	movs	r0, r5
 800654a:	9301      	str	r3, [sp, #4]
 800654c:	f7f9 fe7a 	bl	8000244 <__divsi3>
 8006550:	9b01      	ldr	r3, [sp, #4]
 8006552:	0031      	movs	r1, r6
 8006554:	1a18      	subs	r0, r3, r0
 8006556:	0400      	lsls	r0, r0, #16
 8006558:	f7f9 fe74 	bl	8000244 <__divsi3>
 800655c:	9b00      	ldr	r3, [sp, #0]
 800655e:	4343      	muls	r3, r0
 8006560:	6223      	str	r3, [r4, #32]
 8006562:	042b      	lsls	r3, r5, #16
 8006564:	8567      	strh	r7, [r4, #42]	@ 0x2a
 8006566:	6263      	str	r3, [r4, #36]	@ 0x24
 8006568:	e7dc      	b.n	8006524 <VSS_SetMecAcceleration+0x38>

0800656a <memset>:
 800656a:	0003      	movs	r3, r0
 800656c:	1882      	adds	r2, r0, r2
 800656e:	4293      	cmp	r3, r2
 8006570:	d100      	bne.n	8006574 <memset+0xa>
 8006572:	4770      	bx	lr
 8006574:	7019      	strb	r1, [r3, #0]
 8006576:	3301      	adds	r3, #1
 8006578:	e7f9      	b.n	800656e <memset+0x4>
	...

0800657c <__libc_init_array>:
 800657c:	b570      	push	{r4, r5, r6, lr}
 800657e:	2600      	movs	r6, #0
 8006580:	4c0c      	ldr	r4, [pc, #48]	@ (80065b4 <__libc_init_array+0x38>)
 8006582:	4d0d      	ldr	r5, [pc, #52]	@ (80065b8 <__libc_init_array+0x3c>)
 8006584:	1b64      	subs	r4, r4, r5
 8006586:	10a4      	asrs	r4, r4, #2
 8006588:	42a6      	cmp	r6, r4
 800658a:	d109      	bne.n	80065a0 <__libc_init_array+0x24>
 800658c:	2600      	movs	r6, #0
 800658e:	f000 f823 	bl	80065d8 <_init>
 8006592:	4c0a      	ldr	r4, [pc, #40]	@ (80065bc <__libc_init_array+0x40>)
 8006594:	4d0a      	ldr	r5, [pc, #40]	@ (80065c0 <__libc_init_array+0x44>)
 8006596:	1b64      	subs	r4, r4, r5
 8006598:	10a4      	asrs	r4, r4, #2
 800659a:	42a6      	cmp	r6, r4
 800659c:	d105      	bne.n	80065aa <__libc_init_array+0x2e>
 800659e:	bd70      	pop	{r4, r5, r6, pc}
 80065a0:	00b3      	lsls	r3, r6, #2
 80065a2:	58eb      	ldr	r3, [r5, r3]
 80065a4:	4798      	blx	r3
 80065a6:	3601      	adds	r6, #1
 80065a8:	e7ee      	b.n	8006588 <__libc_init_array+0xc>
 80065aa:	00b3      	lsls	r3, r6, #2
 80065ac:	58eb      	ldr	r3, [r5, r3]
 80065ae:	4798      	blx	r3
 80065b0:	3601      	adds	r6, #1
 80065b2:	e7f2      	b.n	800659a <__libc_init_array+0x1e>
 80065b4:	08007230 	.word	0x08007230
 80065b8:	08007230 	.word	0x08007230
 80065bc:	08007234 	.word	0x08007234
 80065c0:	08007230 	.word	0x08007230

080065c4 <memcpy>:
 80065c4:	2300      	movs	r3, #0
 80065c6:	b510      	push	{r4, lr}
 80065c8:	429a      	cmp	r2, r3
 80065ca:	d100      	bne.n	80065ce <memcpy+0xa>
 80065cc:	bd10      	pop	{r4, pc}
 80065ce:	5ccc      	ldrb	r4, [r1, r3]
 80065d0:	54c4      	strb	r4, [r0, r3]
 80065d2:	3301      	adds	r3, #1
 80065d4:	e7f8      	b.n	80065c8 <memcpy+0x4>
	...

080065d8 <_init>:
 80065d8:	b5f8      	push	{r3, r4, r5, r6, r7, lr}
 80065da:	46c0      	nop			@ (mov r8, r8)
 80065dc:	bcf8      	pop	{r3, r4, r5, r6, r7}
 80065de:	bc08      	pop	{r3}
 80065e0:	469e      	mov	lr, r3
 80065e2:	4770      	bx	lr

080065e4 <_fini>:
 80065e4:	b5f8      	push	{r3, r4, r5, r6, r7, lr}
 80065e6:	46c0      	nop			@ (mov r8, r8)
 80065e8:	bcf8      	pop	{r3, r4, r5, r6, r7}
 80065ea:	bc08      	pop	{r3}
 80065ec:	469e      	mov	lr, r3
 80065ee:	4770      	bx	lr
